
Node2.elf:     file format elf32-littlearm

Sections:
Idx Name          Size      VMA       LMA       File off  Algn
  0 .text         00003ac0  00080000  00080000  00010000  2**3
                  CONTENTS, ALLOC, LOAD, READONLY, CODE
  1 .relocate     00000844  20000000  00083ac0  00020000  2**3
                  CONTENTS, ALLOC, LOAD, DATA
  2 .bss          000004d0  20000848  00084308  00020844  2**3
                  ALLOC
  3 .stack        00000400  20000d18  000847d8  00020844  2**0
                  ALLOC
  4 .heap         00000200  20001118  00084bd8  00020844  2**0
                  ALLOC
  5 .ARM.attributes 00000029  00000000  00000000  00020844  2**0
                  CONTENTS, READONLY
  6 .comment      00000059  00000000  00000000  0002086d  2**0
                  CONTENTS, READONLY
  7 .debug_info   0000c8ff  00000000  00000000  000208c6  2**0
                  CONTENTS, READONLY, DEBUGGING
  8 .debug_abbrev 00001ede  00000000  00000000  0002d1c5  2**0
                  CONTENTS, READONLY, DEBUGGING
  9 .debug_loc    000012cd  00000000  00000000  0002f0a3  2**0
                  CONTENTS, READONLY, DEBUGGING
 10 .debug_aranges 000003a8  00000000  00000000  00030370  2**0
                  CONTENTS, READONLY, DEBUGGING
 11 .debug_ranges 000002e0  00000000  00000000  00030718  2**0
                  CONTENTS, READONLY, DEBUGGING
 12 .debug_macro  00014ab1  00000000  00000000  000309f8  2**0
                  CONTENTS, READONLY, DEBUGGING
 13 .debug_line   00007591  00000000  00000000  000454a9  2**0
                  CONTENTS, READONLY, DEBUGGING
 14 .debug_str    00055db2  00000000  00000000  0004ca3a  2**0
                  CONTENTS, READONLY, DEBUGGING
 15 .debug_frame  000014dc  00000000  00000000  000a27ec  2**2
                  CONTENTS, READONLY, DEBUGGING

Disassembly of section .text:

00080000 <exception_table>:
   80000:	18 11 00 20 95 03 08 00 91 03 08 00 91 03 08 00     ... ............
   80010:	91 03 08 00 91 03 08 00 91 03 08 00 00 00 00 00     ................
	...
   8002c:	91 03 08 00 91 03 08 00 00 00 00 00 91 03 08 00     ................
   8003c:	c1 0c 08 00 91 03 08 00 91 03 08 00 91 03 08 00     ................
   8004c:	91 03 08 00 91 03 08 00 91 03 08 00 91 03 08 00     ................
   8005c:	91 03 08 00 91 0e 08 00 91 03 08 00 00 00 00 00     ................
   8006c:	91 03 08 00 91 03 08 00 91 03 08 00 91 03 08 00     ................
	...
   80084:	91 03 08 00 91 03 08 00 91 03 08 00 91 03 08 00     ................
   80094:	91 03 08 00 91 03 08 00 91 03 08 00 91 03 08 00     ................
   800a4:	00 00 00 00 91 03 08 00 91 03 08 00 91 03 08 00     ................
   800b4:	91 03 08 00 91 03 08 00 91 03 08 00 91 03 08 00     ................
   800c4:	91 03 08 00 91 03 08 00 91 03 08 00 91 03 08 00     ................
   800d4:	91 03 08 00 91 03 08 00 91 03 08 00 91 03 08 00     ................
   800e4:	91 03 08 00 91 03 08 00 91 03 08 00 91 03 08 00     ................

000800f4 <__do_global_dtors_aux>:
   800f4:	b510      	push	{r4, lr}
   800f6:	4c05      	ldr	r4, [pc, #20]	; (8010c <__do_global_dtors_aux+0x18>)
   800f8:	7823      	ldrb	r3, [r4, #0]
   800fa:	b933      	cbnz	r3, 8010a <__do_global_dtors_aux+0x16>
   800fc:	4b04      	ldr	r3, [pc, #16]	; (80110 <__do_global_dtors_aux+0x1c>)
   800fe:	b113      	cbz	r3, 80106 <__do_global_dtors_aux+0x12>
   80100:	4804      	ldr	r0, [pc, #16]	; (80114 <__do_global_dtors_aux+0x20>)
   80102:	f3af 8000 	nop.w
   80106:	2301      	movs	r3, #1
   80108:	7023      	strb	r3, [r4, #0]
   8010a:	bd10      	pop	{r4, pc}
   8010c:	20000848 	.word	0x20000848
   80110:	00000000 	.word	0x00000000
   80114:	00083ac0 	.word	0x00083ac0

00080118 <frame_dummy>:
   80118:	4b0c      	ldr	r3, [pc, #48]	; (8014c <frame_dummy+0x34>)
   8011a:	b143      	cbz	r3, 8012e <frame_dummy+0x16>
   8011c:	480c      	ldr	r0, [pc, #48]	; (80150 <frame_dummy+0x38>)
   8011e:	b510      	push	{r4, lr}
   80120:	490c      	ldr	r1, [pc, #48]	; (80154 <frame_dummy+0x3c>)
   80122:	f3af 8000 	nop.w
   80126:	480c      	ldr	r0, [pc, #48]	; (80158 <frame_dummy+0x40>)
   80128:	6803      	ldr	r3, [r0, #0]
   8012a:	b923      	cbnz	r3, 80136 <frame_dummy+0x1e>
   8012c:	bd10      	pop	{r4, pc}
   8012e:	480a      	ldr	r0, [pc, #40]	; (80158 <frame_dummy+0x40>)
   80130:	6803      	ldr	r3, [r0, #0]
   80132:	b933      	cbnz	r3, 80142 <frame_dummy+0x2a>
   80134:	4770      	bx	lr
   80136:	4b09      	ldr	r3, [pc, #36]	; (8015c <frame_dummy+0x44>)
   80138:	2b00      	cmp	r3, #0
   8013a:	d0f7      	beq.n	8012c <frame_dummy+0x14>
   8013c:	e8bd 4010 	ldmia.w	sp!, {r4, lr}
   80140:	4718      	bx	r3
   80142:	4b06      	ldr	r3, [pc, #24]	; (8015c <frame_dummy+0x44>)
   80144:	2b00      	cmp	r3, #0
   80146:	d0f5      	beq.n	80134 <frame_dummy+0x1c>
   80148:	4718      	bx	r3
   8014a:	bf00      	nop
   8014c:	00000000 	.word	0x00000000
   80150:	00083ac0 	.word	0x00083ac0
   80154:	2000084c 	.word	0x2000084c
   80158:	00083ac0 	.word	0x00083ac0
   8015c:	00000000 	.word	0x00000000

00080160 <adc_init>:

uint8_t adc_initialized = 0;

void adc_init(void)
{
	if (!adc_initialized) {
   80160:	4b0a      	ldr	r3, [pc, #40]	; (8018c <adc_init+0x2c>)
   80162:	781b      	ldrb	r3, [r3, #0]
   80164:	b983      	cbnz	r3, 80188 <adc_init+0x28>
		// Enable the peripheral clock for ADC
		PMC->PMC_PCER1 |= (1 << (ID_ADC - 32));
   80166:	4a0a      	ldr	r2, [pc, #40]	; (80190 <adc_init+0x30>)
   80168:	f8d2 3100 	ldr.w	r3, [r2, #256]	; 0x100
   8016c:	f043 0320 	orr.w	r3, r3, #32
   80170:	f8c2 3100 	str.w	r3, [r2, #256]	; 0x100
		
		// Reset the ADC
		ADC->ADC_CR = ADC_CR_SWRST;
   80174:	4b07      	ldr	r3, [pc, #28]	; (80194 <adc_init+0x34>)
   80176:	2201      	movs	r2, #1
   80178:	601a      	str	r2, [r3, #0]

		// Set prescaler, startup time, and settling time
		ADC->ADC_MR = ADC_MR_PRESCAL(3)
   8017a:	4907      	ldr	r1, [pc, #28]	; (80198 <adc_init+0x38>)
   8017c:	6059      	str	r1, [r3, #4]
		| ADC_MR_SETTLING_AST3
		| ADC_MR_TRACKTIM(15)
		| ADC_MR_TRANSFER(2);

		// Disable all channels initially
		ADC->ADC_CHDR = 0xFFFF;
   8017e:	f64f 71ff 	movw	r1, #65535	; 0xffff
   80182:	6159      	str	r1, [r3, #20]
		adc_initialized = 1;
   80184:	4b01      	ldr	r3, [pc, #4]	; (8018c <adc_init+0x2c>)
   80186:	701a      	strb	r2, [r3, #0]
   80188:	4770      	bx	lr
   8018a:	bf00      	nop
   8018c:	20000864 	.word	0x20000864
   80190:	400e0600 	.word	0x400e0600
   80194:	400c0000 	.word	0x400c0000
   80198:	2f040300 	.word	0x2f040300

0008019c <adc_enable_channel>:
	}
}

void adc_enable_channel(uint8_t channel) {
	ADC->ADC_CHER |= (1 << channel);
   8019c:	4903      	ldr	r1, [pc, #12]	; (801ac <adc_enable_channel+0x10>)
   8019e:	690b      	ldr	r3, [r1, #16]
   801a0:	2201      	movs	r2, #1
   801a2:	fa02 f000 	lsl.w	r0, r2, r0
   801a6:	4303      	orrs	r3, r0
   801a8:	610b      	str	r3, [r1, #16]
   801aa:	4770      	bx	lr
   801ac:	400c0000 	.word	0x400c0000

000801b0 <adc_read>:
	ADC->ADC_CHER &= ~(1 << channel);
}

uint16_t adc_read(uint8_t channel)
{
    if (channel > 15) return 0;
   801b0:	280f      	cmp	r0, #15
   801b2:	d80f      	bhi.n	801d4 <adc_read+0x24>
	ADC->ADC_CR = ADC_CR_START;
   801b4:	2202      	movs	r2, #2
   801b6:	4b08      	ldr	r3, [pc, #32]	; (801d8 <adc_read+0x28>)
   801b8:	601a      	str	r2, [r3, #0]

    // Wait for conversion to complete
    while ((ADC->ADC_ISR & (1 << channel)) == 0);
   801ba:	4b07      	ldr	r3, [pc, #28]	; (801d8 <adc_read+0x28>)
   801bc:	6b1a      	ldr	r2, [r3, #48]	; 0x30
   801be:	4601      	mov	r1, r0
   801c0:	2301      	movs	r3, #1
   801c2:	4083      	lsls	r3, r0
   801c4:	421a      	tst	r2, r3
   801c6:	d0f8      	beq.n	801ba <adc_read+0xa>

    // Read result
    return ADC->ADC_CDR[channel];
   801c8:	3114      	adds	r1, #20
   801ca:	4b03      	ldr	r3, [pc, #12]	; (801d8 <adc_read+0x28>)
   801cc:	f853 0021 	ldr.w	r0, [r3, r1, lsl #2]
   801d0:	b280      	uxth	r0, r0
   801d2:	4770      	bx	lr
    if (channel > 15) return 0;
   801d4:	2000      	movs	r0, #0
   801d6:	4770      	bx	lr
   801d8:	400c0000 	.word	0x400c0000

000801dc <can_init>:

#define txMailbox 0
#define rxMailbox 1


void can_init(CanInit init, uint8_t rxInterrupt){
   801dc:	b410      	push	{r4}
    // Disable CAN
    CAN0->CAN_MR &= ~CAN_MR_CANEN; 
   801de:	4b22      	ldr	r3, [pc, #136]	; (80268 <can_init+0x8c>)
   801e0:	681a      	ldr	r2, [r3, #0]
   801e2:	f022 0201 	bic.w	r2, r2, #1
   801e6:	601a      	str	r2, [r3, #0]
    
    // Clear status register by reading it
    __attribute__((unused)) uint32_t ul_status = CAN0->CAN_SR;     
   801e8:	691a      	ldr	r2, [r3, #16]
    
    // Disable interrupts on CANH and CANL pins
    PIOA->PIO_IDR = PIO_PA8A_URXD | PIO_PA9A_UTXD;
   801ea:	4a20      	ldr	r2, [pc, #128]	; (8026c <can_init+0x90>)
   801ec:	f44f 7440 	mov.w	r4, #768	; 0x300
   801f0:	6454      	str	r4, [r2, #68]	; 0x44
    
    // Select CAN0 RX and TX in PIOA
    PIOA->PIO_ABSR &= ~(PIO_PA1A_CANRX0 | PIO_PA0A_CANTX0);
   801f2:	6f14      	ldr	r4, [r2, #112]	; 0x70
   801f4:	f024 0403 	bic.w	r4, r4, #3
   801f8:	6714      	str	r4, [r2, #112]	; 0x70
    
    // Disable the Parallel IO (PIO) of the Rx and Tx pins so that the peripheral controller can use them
    PIOA->PIO_PDR = PIO_PA1A_CANRX0 | PIO_PA0A_CANTX0;
   801fa:	2403      	movs	r4, #3
   801fc:	6054      	str	r4, [r2, #4]
    
    // Enable pull up on CANH and CANL pin
    PIOA->PIO_PUER = (PIO_PA1A_CANRX0 | PIO_PA0A_CANTX0);    
   801fe:	6654      	str	r4, [r2, #100]	; 0x64
    
    // Enable Clock for CAN0 in PMC
    // DIV = 1 (can clk = MCK/2), CMD = 1 (write), PID = 2B (CAN0)
    PMC->PMC_PCR = PMC_PCR_EN | (0/*??*/ << PMC_PCR_DIV_Pos) | PMC_PCR_CMD | (ID_CAN0 << PMC_PCR_PID_Pos); 
   80200:	f5a2 6200 	sub.w	r2, r2, #2048	; 0x800
   80204:	4c1a      	ldr	r4, [pc, #104]	; (80270 <can_init+0x94>)
   80206:	f8c2 410c 	str.w	r4, [r2, #268]	; 0x10c
    PMC->PMC_PCER1 |= 1 << (ID_CAN0 - 32);
   8020a:	f8d2 4100 	ldr.w	r4, [r2, #256]	; 0x100
   8020e:	f444 6400 	orr.w	r4, r4, #2048	; 0x800
   80212:	f8c2 4100 	str.w	r4, [r2, #256]	; 0x100
    
    //Set baudrate, Phase1, phase2 and propagation delay for can bus. Must match on all nodes!
    CAN0->CAN_BR = init.reg; 
   80216:	6158      	str	r0, [r3, #20]
    


    // Configure mailboxes
    // transmit
    CAN0->CAN_MB[txMailbox].CAN_MID = CAN_MID_MIDE;
   80218:	f04f 5200 	mov.w	r2, #536870912	; 0x20000000
   8021c:	f8c3 2208 	str.w	r2, [r3, #520]	; 0x208
    CAN0->CAN_MB[txMailbox].CAN_MMR = CAN_MMR_MOT_MB_TX;
   80220:	f04f 7040 	mov.w	r0, #50331648	; 0x3000000
   80224:	f8c3 0200 	str.w	r0, [r3, #512]	; 0x200
    
    // receive
    CAN0->CAN_MB[rxMailbox].CAN_MAM = 0; // Accept all messages
   80228:	2000      	movs	r0, #0
   8022a:	f8c3 0224 	str.w	r0, [r3, #548]	; 0x224
    CAN0->CAN_MB[rxMailbox].CAN_MID = CAN_MID_MIDE;
   8022e:	f8c3 2228 	str.w	r2, [r3, #552]	; 0x228
    CAN0->CAN_MB[rxMailbox].CAN_MMR = CAN_MMR_MOT_MB_RX;
   80232:	f04f 7280 	mov.w	r2, #16777216	; 0x1000000
   80236:	f8c3 2220 	str.w	r2, [r3, #544]	; 0x220
    CAN0->CAN_MB[rxMailbox].CAN_MCR |= CAN_MCR_MTCR;
   8023a:	f8d3 223c 	ldr.w	r2, [r3, #572]	; 0x23c
   8023e:	f442 0200 	orr.w	r2, r2, #8388608	; 0x800000
   80242:	f8c3 223c 	str.w	r2, [r3, #572]	; 0x23c
    if(rxInterrupt){
   80246:	b141      	cbz	r1, 8025a <can_init+0x7e>
        // Enable interrupt on receive
        CAN0->CAN_IER |= (1 << rxMailbox); 
   80248:	461a      	mov	r2, r3
   8024a:	685b      	ldr	r3, [r3, #4]
   8024c:	f043 0302 	orr.w	r3, r3, #2
   80250:	6053      	str	r3, [r2, #4]
 */
__STATIC_INLINE void __NVIC_EnableIRQ(IRQn_Type IRQn)
{
  if ((int32_t)(IRQn) >= 0)
  {
    NVIC->ISER[(((uint32_t)IRQn) >> 5UL)] = (uint32_t)(1UL << (((uint32_t)IRQn) & 0x1FUL));
   80252:	f44f 6200 	mov.w	r2, #2048	; 0x800
   80256:	4b07      	ldr	r3, [pc, #28]	; (80274 <can_init+0x98>)
   80258:	605a      	str	r2, [r3, #4]
        // Enable interrupt in NVIC 
        NVIC_EnableIRQ(ID_CAN0);
    }

    // Enable CAN
    CAN0->CAN_MR |= CAN_MR_CANEN;
   8025a:	4a03      	ldr	r2, [pc, #12]	; (80268 <can_init+0x8c>)
   8025c:	6813      	ldr	r3, [r2, #0]
   8025e:	f043 0301 	orr.w	r3, r3, #1
   80262:	6013      	str	r3, [r2, #0]
}
   80264:	bc10      	pop	{r4}
   80266:	4770      	bx	lr
   80268:	400b4000 	.word	0x400b4000
   8026c:	400e0e00 	.word	0x400e0e00
   80270:	1000102b 	.word	0x1000102b
   80274:	e000e100 	.word	0xe000e100

00080278 <can_tx>:


void can_tx(CanMsg m){
   80278:	b084      	sub	sp, #16
   8027a:	ab04      	add	r3, sp, #16
   8027c:	e903 0007 	stmdb	r3, {r0, r1, r2}
    while(!(CAN0->CAN_MB[txMailbox].CAN_MSR & CAN_MSR_MRDY)){}
   80280:	4b0f      	ldr	r3, [pc, #60]	; (802c0 <can_tx+0x48>)
   80282:	f8d3 3210 	ldr.w	r3, [r3, #528]	; 0x210
   80286:	f413 0f00 	tst.w	r3, #8388608	; 0x800000
   8028a:	d0f9      	beq.n	80280 <can_tx+0x8>
    
    // Set message ID and use CAN 2.0B protocol
    CAN0->CAN_MB[txMailbox].CAN_MID = CAN_MID_MIDvA(m.id) | CAN_MID_MIDE ;
   8028c:	f89d 3004 	ldrb.w	r3, [sp, #4]
   80290:	049b      	lsls	r3, r3, #18
   80292:	f043 5300 	orr.w	r3, r3, #536870912	; 0x20000000
   80296:	4a0a      	ldr	r2, [pc, #40]	; (802c0 <can_tx+0x48>)
   80298:	f8c2 3208 	str.w	r3, [r2, #520]	; 0x208
        
    // Coerce maximum 8 byte length
    m.length = m.length > 8 ? 8 : m.length;
   8029c:	f89d 3005 	ldrb.w	r3, [sp, #5]
   802a0:	2b08      	cmp	r3, #8
   802a2:	bf28      	it	cs
   802a4:	2308      	movcs	r3, #8
    
    //  Put message in can data registers
    CAN0->CAN_MB[txMailbox].CAN_MDL = m.dword[0];
   802a6:	9902      	ldr	r1, [sp, #8]
   802a8:	f8c2 1214 	str.w	r1, [r2, #532]	; 0x214
    CAN0->CAN_MB[txMailbox].CAN_MDH = m.dword[1];
   802ac:	9903      	ldr	r1, [sp, #12]
   802ae:	f8c2 1218 	str.w	r1, [r2, #536]	; 0x218
        
    // Set message length and mailbox ready to send
    CAN0->CAN_MB[txMailbox].CAN_MCR = (m.length << CAN_MCR_MDLC_Pos) | CAN_MCR_MTCR;
   802b2:	041b      	lsls	r3, r3, #16
   802b4:	f443 0300 	orr.w	r3, r3, #8388608	; 0x800000
   802b8:	f8c2 321c 	str.w	r3, [r2, #540]	; 0x21c
}
   802bc:	b004      	add	sp, #16
   802be:	4770      	bx	lr
   802c0:	400b4000 	.word	0x400b4000

000802c4 <can_rx>:

uint8_t can_rx(CanMsg* m){
    if(!(CAN0->CAN_MB[rxMailbox].CAN_MSR & CAN_MSR_MRDY)){
   802c4:	4b12      	ldr	r3, [pc, #72]	; (80310 <can_rx+0x4c>)
   802c6:	f8d3 3230 	ldr.w	r3, [r3, #560]	; 0x230
   802ca:	f413 0f00 	tst.w	r3, #8388608	; 0x800000
   802ce:	d01c      	beq.n	8030a <can_rx+0x46>
        return 0;
    }

    // Get message ID
    m->id = (uint8_t)((CAN0->CAN_MB[rxMailbox].CAN_MID & CAN_MID_MIDvA_Msk) >> CAN_MID_MIDvA_Pos);
   802d0:	4b0f      	ldr	r3, [pc, #60]	; (80310 <can_rx+0x4c>)
   802d2:	f8d3 2228 	ldr.w	r2, [r3, #552]	; 0x228
   802d6:	f3c2 4287 	ubfx	r2, r2, #18, #8
   802da:	7002      	strb	r2, [r0, #0]
        
    // Get data length
    m->length = (uint8_t)((CAN0->CAN_MB[rxMailbox].CAN_MSR & CAN_MSR_MDLC_Msk) >> CAN_MSR_MDLC_Pos);
   802dc:	f8d3 2230 	ldr.w	r2, [r3, #560]	; 0x230
   802e0:	f3c2 4203 	ubfx	r2, r2, #16, #4
   802e4:	7042      	strb	r2, [r0, #1]
    
    // Get data from CAN mailbox
    m->dword[0] = CAN0->CAN_MB[rxMailbox].CAN_MDL;
   802e6:	f8d3 2234 	ldr.w	r2, [r3, #564]	; 0x234
   802ea:	6042      	str	r2, [r0, #4]
    m->dword[1] = CAN0->CAN_MB[rxMailbox].CAN_MDH;
   802ec:	f8d3 2238 	ldr.w	r2, [r3, #568]	; 0x238
   802f0:	6082      	str	r2, [r0, #8]
                
    // Reset for new receive
    CAN0->CAN_MB[rxMailbox].CAN_MMR = CAN_MMR_MOT_MB_RX;
   802f2:	f04f 7280 	mov.w	r2, #16777216	; 0x1000000
   802f6:	f8c3 2220 	str.w	r2, [r3, #544]	; 0x220
    CAN0->CAN_MB[rxMailbox].CAN_MCR |= CAN_MCR_MTCR;
   802fa:	f8d3 223c 	ldr.w	r2, [r3, #572]	; 0x23c
   802fe:	f442 0200 	orr.w	r2, r2, #8388608	; 0x800000
   80302:	f8c3 223c 	str.w	r2, [r3, #572]	; 0x23c
    return 1;
   80306:	2001      	movs	r0, #1
   80308:	4770      	bx	lr
        return 0;
   8030a:	2000      	movs	r0, #0
}
   8030c:	4770      	bx	lr
   8030e:	bf00      	nop
   80310:	400b4000 	.word	0x400b4000

00080314 <print_can_error>:
    
    NVIC_ClearPendingIRQ(ID_CAN0);
} 
*/

void print_can_error() {
   80314:	b508      	push	{r3, lr}
	if (CAN0->CAN_SR & (1 << 24)) {
   80316:	4b17      	ldr	r3, [pc, #92]	; (80374 <print_can_error+0x60>)
   80318:	691b      	ldr	r3, [r3, #16]
   8031a:	f013 7f80 	tst.w	r3, #16777216	; 0x1000000
   8031e:	d114      	bne.n	8034a <print_can_error+0x36>
		printf("CRC ERROR\r\n");
	}
	if (CAN0->CAN_SR & (1 << 25)) {
   80320:	4b14      	ldr	r3, [pc, #80]	; (80374 <print_can_error+0x60>)
   80322:	691b      	ldr	r3, [r3, #16]
   80324:	f013 7f00 	tst.w	r3, #33554432	; 0x2000000
   80328:	d113      	bne.n	80352 <print_can_error+0x3e>
		printf("S ERROR\r\n");
	}
	if (CAN0->CAN_SR & (1 << 26)) {
   8032a:	4b12      	ldr	r3, [pc, #72]	; (80374 <print_can_error+0x60>)
   8032c:	691b      	ldr	r3, [r3, #16]
   8032e:	f013 6f80 	tst.w	r3, #67108864	; 0x4000000
   80332:	d112      	bne.n	8035a <print_can_error+0x46>
		printf("A ERROR\r\n");
	}
	if (CAN0->CAN_SR & (1 << 27)) {
   80334:	4b0f      	ldr	r3, [pc, #60]	; (80374 <print_can_error+0x60>)
   80336:	691b      	ldr	r3, [r3, #16]
   80338:	f013 6f00 	tst.w	r3, #134217728	; 0x8000000
   8033c:	d111      	bne.n	80362 <print_can_error+0x4e>
		printf("F ERROR\r\n");
	}
	if (CAN0->CAN_SR & (1 << 28)) {
   8033e:	4b0d      	ldr	r3, [pc, #52]	; (80374 <print_can_error+0x60>)
   80340:	691b      	ldr	r3, [r3, #16]
   80342:	f013 5f80 	tst.w	r3, #268435456	; 0x10000000
   80346:	d110      	bne.n	8036a <print_can_error+0x56>
   80348:	bd08      	pop	{r3, pc}
		printf("CRC ERROR\r\n");
   8034a:	480b      	ldr	r0, [pc, #44]	; (80378 <print_can_error+0x64>)
   8034c:	4b0b      	ldr	r3, [pc, #44]	; (8037c <print_can_error+0x68>)
   8034e:	4798      	blx	r3
   80350:	e7e6      	b.n	80320 <print_can_error+0xc>
		printf("S ERROR\r\n");
   80352:	480b      	ldr	r0, [pc, #44]	; (80380 <print_can_error+0x6c>)
   80354:	4b09      	ldr	r3, [pc, #36]	; (8037c <print_can_error+0x68>)
   80356:	4798      	blx	r3
   80358:	e7e7      	b.n	8032a <print_can_error+0x16>
		printf("A ERROR\r\n");
   8035a:	480a      	ldr	r0, [pc, #40]	; (80384 <print_can_error+0x70>)
   8035c:	4b07      	ldr	r3, [pc, #28]	; (8037c <print_can_error+0x68>)
   8035e:	4798      	blx	r3
   80360:	e7e8      	b.n	80334 <print_can_error+0x20>
		printf("F ERROR\r\n");
   80362:	4809      	ldr	r0, [pc, #36]	; (80388 <print_can_error+0x74>)
   80364:	4b05      	ldr	r3, [pc, #20]	; (8037c <print_can_error+0x68>)
   80366:	4798      	blx	r3
   80368:	e7e9      	b.n	8033e <print_can_error+0x2a>
		printf("B ERROR\r\n");
   8036a:	4808      	ldr	r0, [pc, #32]	; (8038c <print_can_error+0x78>)
   8036c:	4b03      	ldr	r3, [pc, #12]	; (8037c <print_can_error+0x68>)
   8036e:	4798      	blx	r3
	}
   80370:	e7ea      	b.n	80348 <print_can_error+0x34>
   80372:	bf00      	nop
   80374:	400b4000 	.word	0x400b4000
   80378:	000839f8 	.word	0x000839f8
   8037c:	00082101 	.word	0x00082101
   80380:	00083a04 	.word	0x00083a04
   80384:	00083a10 	.word	0x00083a10
   80388:	00083a1c 	.word	0x00083a1c
   8038c:	00083a28 	.word	0x00083a28

00080390 <Dummy_Handler>:

/**
 * \brief Default interrupt handler for unused IRQs.
 */
void Dummy_Handler(void)
{
   80390:	e7fe      	b.n	80390 <Dummy_Handler>
	...

00080394 <Reset_Handler>:
{
   80394:	b508      	push	{r3, lr}
        if (pSrc != pDest) {
   80396:	4b11      	ldr	r3, [pc, #68]	; (803dc <Reset_Handler+0x48>)
   80398:	4a11      	ldr	r2, [pc, #68]	; (803e0 <Reset_Handler+0x4c>)
   8039a:	429a      	cmp	r2, r3
   8039c:	d009      	beq.n	803b2 <Reset_Handler+0x1e>
   8039e:	4b0f      	ldr	r3, [pc, #60]	; (803dc <Reset_Handler+0x48>)
   803a0:	4a0f      	ldr	r2, [pc, #60]	; (803e0 <Reset_Handler+0x4c>)
   803a2:	e003      	b.n	803ac <Reset_Handler+0x18>
                        *pDest++ = *pSrc++;
   803a4:	6811      	ldr	r1, [r2, #0]
   803a6:	6019      	str	r1, [r3, #0]
   803a8:	3304      	adds	r3, #4
   803aa:	3204      	adds	r2, #4
                for (; pDest < &_erelocate;) {
   803ac:	490d      	ldr	r1, [pc, #52]	; (803e4 <Reset_Handler+0x50>)
   803ae:	428b      	cmp	r3, r1
   803b0:	d3f8      	bcc.n	803a4 <Reset_Handler+0x10>
                        *pDest++ = *pSrc++;
   803b2:	4b0d      	ldr	r3, [pc, #52]	; (803e8 <Reset_Handler+0x54>)
   803b4:	e002      	b.n	803bc <Reset_Handler+0x28>
                *pDest++ = 0;
   803b6:	2200      	movs	r2, #0
   803b8:	601a      	str	r2, [r3, #0]
   803ba:	3304      	adds	r3, #4
        for (pDest = &_szero; pDest < &_ezero;) {
   803bc:	4a0b      	ldr	r2, [pc, #44]	; (803ec <Reset_Handler+0x58>)
   803be:	4293      	cmp	r3, r2
   803c0:	d3f9      	bcc.n	803b6 <Reset_Handler+0x22>
        SCB->VTOR = ((uint32_t) pSrc & SCB_VTOR_TBLOFF_Msk);
   803c2:	4b0b      	ldr	r3, [pc, #44]	; (803f0 <Reset_Handler+0x5c>)
   803c4:	f023 4360 	bic.w	r3, r3, #3758096384	; 0xe0000000
   803c8:	f023 037f 	bic.w	r3, r3, #127	; 0x7f
   803cc:	4a09      	ldr	r2, [pc, #36]	; (803f4 <Reset_Handler+0x60>)
   803ce:	6093      	str	r3, [r2, #8]
        __libc_init_array();
   803d0:	4b09      	ldr	r3, [pc, #36]	; (803f8 <Reset_Handler+0x64>)
   803d2:	4798      	blx	r3
        main();
   803d4:	4b09      	ldr	r3, [pc, #36]	; (803fc <Reset_Handler+0x68>)
   803d6:	4798      	blx	r3
   803d8:	e7fe      	b.n	803d8 <Reset_Handler+0x44>
   803da:	bf00      	nop
   803dc:	20000000 	.word	0x20000000
   803e0:	00083ac0 	.word	0x00083ac0
   803e4:	20000844 	.word	0x20000844
   803e8:	20000848 	.word	0x20000848
   803ec:	20000d18 	.word	0x20000d18
   803f0:	00080000 	.word	0x00080000
   803f4:	e000ed00 	.word	0xe000ed00
   803f8:	00081f79 	.word	0x00081f79
   803fc:	00080541 	.word	0x00080541

00080400 <SystemInit>:
 * Initialize the System and update the SystemFrequency variable.
 */
void SystemInit( void )
{
  /* Set FWS according to SYS_BOARD_MCKR configuration */
  EFC0->EEFC_FMR = EEFC_FMR_FWS(4);
   80400:	f44f 6380 	mov.w	r3, #1024	; 0x400
   80404:	4a20      	ldr	r2, [pc, #128]	; (80488 <SystemInit+0x88>)
   80406:	6013      	str	r3, [r2, #0]
  EFC1->EEFC_FMR = EEFC_FMR_FWS(4);
   80408:	f502 7200 	add.w	r2, r2, #512	; 0x200
   8040c:	6013      	str	r3, [r2, #0]

  /* Initialize main oscillator */
  if ( !(PMC->CKGR_MOR & CKGR_MOR_MOSCSEL) )
   8040e:	4b1f      	ldr	r3, [pc, #124]	; (8048c <SystemInit+0x8c>)
   80410:	6a1b      	ldr	r3, [r3, #32]
   80412:	f013 7f80 	tst.w	r3, #16777216	; 0x1000000
   80416:	d107      	bne.n	80428 <SystemInit+0x28>
  {
    PMC->CKGR_MOR = CKGR_MOR_KEY_PASSWD | SYS_BOARD_OSCOUNT | CKGR_MOR_MOSCRCEN | CKGR_MOR_MOSCXTEN;
   80418:	4a1d      	ldr	r2, [pc, #116]	; (80490 <SystemInit+0x90>)
   8041a:	4b1c      	ldr	r3, [pc, #112]	; (8048c <SystemInit+0x8c>)
   8041c:	621a      	str	r2, [r3, #32]
    while ( !(PMC->PMC_SR & PMC_SR_MOSCXTS) )
   8041e:	4b1b      	ldr	r3, [pc, #108]	; (8048c <SystemInit+0x8c>)
   80420:	6e9b      	ldr	r3, [r3, #104]	; 0x68
   80422:	f013 0f01 	tst.w	r3, #1
   80426:	d0fa      	beq.n	8041e <SystemInit+0x1e>
    {
    }
  }

  /* Switch to 3-20MHz Xtal oscillator */
  PMC->CKGR_MOR = CKGR_MOR_KEY_PASSWD | SYS_BOARD_OSCOUNT | CKGR_MOR_MOSCRCEN | CKGR_MOR_MOSCXTEN | CKGR_MOR_MOSCSEL;
   80428:	4a1a      	ldr	r2, [pc, #104]	; (80494 <SystemInit+0x94>)
   8042a:	4b18      	ldr	r3, [pc, #96]	; (8048c <SystemInit+0x8c>)
   8042c:	621a      	str	r2, [r3, #32]

  while ( !(PMC->PMC_SR & PMC_SR_MOSCSELS) )
   8042e:	4b17      	ldr	r3, [pc, #92]	; (8048c <SystemInit+0x8c>)
   80430:	6e9b      	ldr	r3, [r3, #104]	; 0x68
   80432:	f413 3f80 	tst.w	r3, #65536	; 0x10000
   80436:	d0fa      	beq.n	8042e <SystemInit+0x2e>
  {
  }
 	PMC->PMC_MCKR = (PMC->PMC_MCKR & ~(uint32_t)PMC_MCKR_CSS_Msk) | PMC_MCKR_CSS_MAIN_CLK;
   80438:	4a14      	ldr	r2, [pc, #80]	; (8048c <SystemInit+0x8c>)
   8043a:	6b13      	ldr	r3, [r2, #48]	; 0x30
   8043c:	f023 0303 	bic.w	r3, r3, #3
   80440:	f043 0301 	orr.w	r3, r3, #1
   80444:	6313      	str	r3, [r2, #48]	; 0x30
  while (!(PMC->PMC_SR & PMC_SR_MCKRDY))
   80446:	4b11      	ldr	r3, [pc, #68]	; (8048c <SystemInit+0x8c>)
   80448:	6e9b      	ldr	r3, [r3, #104]	; 0x68
   8044a:	f013 0f08 	tst.w	r3, #8
   8044e:	d0fa      	beq.n	80446 <SystemInit+0x46>
  {
  }

  /* Initialize PLLA */
  PMC->CKGR_PLLAR = SYS_BOARD_PLLAR;
   80450:	4a11      	ldr	r2, [pc, #68]	; (80498 <SystemInit+0x98>)
   80452:	4b0e      	ldr	r3, [pc, #56]	; (8048c <SystemInit+0x8c>)
   80454:	629a      	str	r2, [r3, #40]	; 0x28
  while ( !(PMC->PMC_SR & PMC_SR_LOCKA) )
   80456:	4b0d      	ldr	r3, [pc, #52]	; (8048c <SystemInit+0x8c>)
   80458:	6e9b      	ldr	r3, [r3, #104]	; 0x68
   8045a:	f013 0f02 	tst.w	r3, #2
   8045e:	d0fa      	beq.n	80456 <SystemInit+0x56>
  {
  }

  /* Switch to main clock */
  PMC->PMC_MCKR = (SYS_BOARD_MCKR & ~PMC_MCKR_CSS_Msk) | PMC_MCKR_CSS_MAIN_CLK;
   80460:	2211      	movs	r2, #17
   80462:	4b0a      	ldr	r3, [pc, #40]	; (8048c <SystemInit+0x8c>)
   80464:	631a      	str	r2, [r3, #48]	; 0x30
  while ( !(PMC->PMC_SR & PMC_SR_MCKRDY) )
   80466:	4b09      	ldr	r3, [pc, #36]	; (8048c <SystemInit+0x8c>)
   80468:	6e9b      	ldr	r3, [r3, #104]	; 0x68
   8046a:	f013 0f08 	tst.w	r3, #8
   8046e:	d0fa      	beq.n	80466 <SystemInit+0x66>
  {
  }

  /* Switch to PLLA */
  PMC->PMC_MCKR = SYS_BOARD_MCKR;
   80470:	2212      	movs	r2, #18
   80472:	4b06      	ldr	r3, [pc, #24]	; (8048c <SystemInit+0x8c>)
   80474:	631a      	str	r2, [r3, #48]	; 0x30
  while ( !(PMC->PMC_SR & PMC_SR_MCKRDY) )
   80476:	4b05      	ldr	r3, [pc, #20]	; (8048c <SystemInit+0x8c>)
   80478:	6e9b      	ldr	r3, [r3, #104]	; 0x68
   8047a:	f013 0f08 	tst.w	r3, #8
   8047e:	d0fa      	beq.n	80476 <SystemInit+0x76>
  {
  }

  SystemCoreClock = CHIP_FREQ_CPU_MAX;
   80480:	4a06      	ldr	r2, [pc, #24]	; (8049c <SystemInit+0x9c>)
   80482:	4b07      	ldr	r3, [pc, #28]	; (804a0 <SystemInit+0xa0>)
   80484:	601a      	str	r2, [r3, #0]
   80486:	4770      	bx	lr
   80488:	400e0a00 	.word	0x400e0a00
   8048c:	400e0600 	.word	0x400e0600
   80490:	00370809 	.word	0x00370809
   80494:	01370809 	.word	0x01370809
   80498:	200d3f01 	.word	0x200d3f01
   8049c:	0501bd00 	.word	0x0501bd00
   804a0:	20000000 	.word	0x20000000

000804a4 <ir_init>:
#include "../adc/adc.h"
#include <sam.h>

uint8_t ir_initialized = 0;

void ir_init() {
   804a4:	b508      	push	{r3, lr}
	if (!ir_initialized) {
   804a6:	4b06      	ldr	r3, [pc, #24]	; (804c0 <ir_init+0x1c>)
   804a8:	781b      	ldrb	r3, [r3, #0]
   804aa:	b103      	cbz	r3, 804ae <ir_init+0xa>
   804ac:	bd08      	pop	{r3, pc}
		adc_init();
   804ae:	4b05      	ldr	r3, [pc, #20]	; (804c4 <ir_init+0x20>)
   804b0:	4798      	blx	r3
		adc_enable_channel(7);	
   804b2:	2007      	movs	r0, #7
   804b4:	4b04      	ldr	r3, [pc, #16]	; (804c8 <ir_init+0x24>)
   804b6:	4798      	blx	r3
		ir_initialized = 1;
   804b8:	2201      	movs	r2, #1
   804ba:	4b01      	ldr	r3, [pc, #4]	; (804c0 <ir_init+0x1c>)
   804bc:	701a      	strb	r2, [r3, #0]
	}
}
   804be:	e7f5      	b.n	804ac <ir_init+0x8>
   804c0:	20000865 	.word	0x20000865
   804c4:	00080161 	.word	0x00080161
   804c8:	0008019d 	.word	0x0008019d

000804cc <ir_get_state>:

uint8_t ir_get_state() {
   804cc:	b500      	push	{lr}
   804ce:	b083      	sub	sp, #12
	uint adc_value = adc_read(7);
   804d0:	2007      	movs	r0, #7
   804d2:	4b0a      	ldr	r3, [pc, #40]	; (804fc <ir_get_state+0x30>)
   804d4:	4798      	blx	r3
	for (volatile uint32_t i = 0; i < 10000; i++); // Small delay for stability
   804d6:	2300      	movs	r3, #0
   804d8:	9301      	str	r3, [sp, #4]
   804da:	e002      	b.n	804e2 <ir_get_state+0x16>
   804dc:	9b01      	ldr	r3, [sp, #4]
   804de:	3301      	adds	r3, #1
   804e0:	9301      	str	r3, [sp, #4]
   804e2:	9a01      	ldr	r2, [sp, #4]
   804e4:	f242 730f 	movw	r3, #9999	; 0x270f
   804e8:	429a      	cmp	r2, r3
   804ea:	d9f7      	bls.n	804dc <ir_get_state+0x10>
	return adc_value < 500;
   804ec:	f5b0 7ffa 	cmp.w	r0, #500	; 0x1f4
   804f0:	bf2c      	ite	cs
   804f2:	2000      	movcs	r0, #0
   804f4:	2001      	movcc	r0, #1
   804f6:	b003      	add	sp, #12
   804f8:	f85d fb04 	ldr.w	pc, [sp], #4
   804fc:	000801b1 	.word	0x000801b1

00080500 <get_joystick>:
	else if (dir == NEUTRAL) printf("NEUTRAL\r\n");
	else printf("ERROR: %d\r\n", dir);
}


uint8_t get_joystick(joystick *joy) {
   80500:	b510      	push	{r4, lr}
   80502:	b084      	sub	sp, #16
   80504:	4604      	mov	r4, r0
	CanMsg m;
	if (can_rx(&m)) {
   80506:	a801      	add	r0, sp, #4
   80508:	4b0c      	ldr	r3, [pc, #48]	; (8053c <get_joystick+0x3c>)
   8050a:	4798      	blx	r3
   8050c:	4603      	mov	r3, r0
   8050e:	b130      	cbz	r0, 8051e <get_joystick+0x1e>
		if (m.id != 10 || m.length != 3) return 0; // not a message for joystick or problem in size
   80510:	f8bd 2004 	ldrh.w	r2, [sp, #4]
   80514:	f240 330a 	movw	r3, #778	; 0x30a
   80518:	429a      	cmp	r2, r3
   8051a:	d003      	beq.n	80524 <get_joystick+0x24>
   8051c:	2300      	movs	r3, #0
		joy->y = m.byte[1];
		joy->pressed = m.byte[2];
		return 1; // joystick data updated
	}
	return 0; // Did not receive input
   8051e:	4618      	mov	r0, r3
   80520:	b004      	add	sp, #16
   80522:	bd10      	pop	{r4, pc}
 		joy->x = m.byte[0];
   80524:	f89d 3008 	ldrb.w	r3, [sp, #8]
   80528:	7023      	strb	r3, [r4, #0]
		joy->y = m.byte[1];
   8052a:	f89d 3009 	ldrb.w	r3, [sp, #9]
   8052e:	7063      	strb	r3, [r4, #1]
		joy->pressed = m.byte[2];
   80530:	f89d 300a 	ldrb.w	r3, [sp, #10]
   80534:	70a3      	strb	r3, [r4, #2]
		return 1; // joystick data updated
   80536:	2301      	movs	r3, #1
   80538:	e7f1      	b.n	8051e <get_joystick+0x1e>
   8053a:	bf00      	nop
   8053c:	000802c5 	.word	0x000802c5

00080540 <main>:

#define F_CPU 84000000


int main(void)
{
   80540:	b530      	push	{r4, r5, lr}
   80542:	b089      	sub	sp, #36	; 0x24
    /* Initialize the SAM system */
    SystemInit();
   80544:	4b32      	ldr	r3, [pc, #200]	; (80610 <main+0xd0>)
   80546:	4798      	blx	r3
	
	// Disable Watchdog Timer (automatic restart)
	WDT->WDT_MR = WDT_MR_WDDIS;
   80548:	f44f 4200 	mov.w	r2, #32768	; 0x8000
   8054c:	4b31      	ldr	r3, [pc, #196]	; (80614 <main+0xd4>)
   8054e:	605a      	str	r2, [r3, #4]
	
	uart_init(F_CPU, 9600);
   80550:	f44f 5116 	mov.w	r1, #9600	; 0x2580
   80554:	4830      	ldr	r0, [pc, #192]	; (80618 <main+0xd8>)
   80556:	4b31      	ldr	r3, [pc, #196]	; (8061c <main+0xdc>)
   80558:	4798      	blx	r3
	motor_init(); 
   8055a:	4b31      	ldr	r3, [pc, #196]	; (80620 <main+0xe0>)
   8055c:	4798      	blx	r3
	servo_init(); 
   8055e:	4b31      	ldr	r3, [pc, #196]	; (80624 <main+0xe4>)
   80560:	4798      	blx	r3
	solenoid_init();
   80562:	4b31      	ldr	r3, [pc, #196]	; (80628 <main+0xe8>)
   80564:	4798      	blx	r3
	can_init((CanInit){.brp = 41, .phase1 = 6, .phase2 = 5, .propag = 0}, 0); // brp = 41 --> TQ = 0.5 us --> bit time = 7.5 us
   80566:	2000      	movs	r0, #0
   80568:	2305      	movs	r3, #5
   8056a:	f363 0003 	bfi	r0, r3, #0, #4
   8056e:	2306      	movs	r3, #6
   80570:	f363 1007 	bfi	r0, r3, #4, #4
   80574:	2329      	movs	r3, #41	; 0x29
   80576:	f363 4017 	bfi	r0, r3, #16, #8
   8057a:	2100      	movs	r1, #0
   8057c:	4b2b      	ldr	r3, [pc, #172]	; (8062c <main+0xec>)
   8057e:	4798      	blx	r3
	score_init();
   80580:	4b2b      	ldr	r3, [pc, #172]	; (80630 <main+0xf0>)
   80582:	4798      	blx	r3
	
	//can_init((CanInit){.brp = 83, .phase1 = 5, .phase2 = 5, .propag = 2}, 0); // brp = 83 --> TQ = 1 us --> bit time = 16 us
	
	printf("started\r\n");
   80584:	482b      	ldr	r0, [pc, #172]	; (80634 <main+0xf4>)
   80586:	4b2c      	ldr	r3, [pc, #176]	; (80638 <main+0xf8>)
   80588:	4798      	blx	r3

	joystick joy;
	uint8_t playing = 0;
   8058a:	2400      	movs	r4, #0
   8058c:	e00b      	b.n	805a6 <main+0x66>
				servo_from_input(joy.y);
				wanted_pos = input_to_pos(joy.x);
				if (joy.pressed) {
					solenoid_push();
					} else {
					solenoid_pull();
   8058e:	4b2b      	ldr	r3, [pc, #172]	; (8063c <main+0xfc>)
   80590:	4798      	blx	r3
				}
			}
			print_can_error();
   80592:	4b2b      	ldr	r3, [pc, #172]	; (80640 <main+0x100>)
   80594:	4798      	blx	r3
		
			set_motor(get_pos_from_pid(wanted_pos));
   80596:	b228      	sxth	r0, r5
   80598:	4b2a      	ldr	r3, [pc, #168]	; (80644 <main+0x104>)
   8059a:	4798      	blx	r3
   8059c:	4b2a      	ldr	r3, [pc, #168]	; (80648 <main+0x108>)
   8059e:	4798      	blx	r3
			playing = score_handle();
   805a0:	4b2a      	ldr	r3, [pc, #168]	; (8064c <main+0x10c>)
   805a2:	4798      	blx	r3
   805a4:	4604      	mov	r4, r0
		if (playing) {
   805a6:	b1a4      	cbz	r4, 805d2 <main+0x92>
			if (get_joystick(&joy)) {
   805a8:	a804      	add	r0, sp, #16
   805aa:	4b29      	ldr	r3, [pc, #164]	; (80650 <main+0x110>)
   805ac:	4798      	blx	r3
   805ae:	2800      	cmp	r0, #0
   805b0:	d0ef      	beq.n	80592 <main+0x52>
				servo_from_input(joy.y);
   805b2:	f89d 0011 	ldrb.w	r0, [sp, #17]
   805b6:	4b27      	ldr	r3, [pc, #156]	; (80654 <main+0x114>)
   805b8:	4798      	blx	r3
				wanted_pos = input_to_pos(joy.x);
   805ba:	f89d 0010 	ldrb.w	r0, [sp, #16]
   805be:	4b26      	ldr	r3, [pc, #152]	; (80658 <main+0x118>)
   805c0:	4798      	blx	r3
   805c2:	b285      	uxth	r5, r0
				if (joy.pressed) {
   805c4:	f89d 3012 	ldrb.w	r3, [sp, #18]
   805c8:	2b00      	cmp	r3, #0
   805ca:	d0e0      	beq.n	8058e <main+0x4e>
					solenoid_push();
   805cc:	4b23      	ldr	r3, [pc, #140]	; (8065c <main+0x11c>)
   805ce:	4798      	blx	r3
   805d0:	e7df      	b.n	80592 <main+0x52>
		} else {
			CanMsg start_playing_sig;
			if (can_rx(&start_playing_sig)) {
   805d2:	a801      	add	r0, sp, #4
   805d4:	4b22      	ldr	r3, [pc, #136]	; (80660 <main+0x120>)
   805d6:	4798      	blx	r3
   805d8:	2800      	cmp	r0, #0
   805da:	d0e4      	beq.n	805a6 <main+0x66>
				if (start_playing_sig.id == 4) {
   805dc:	f89d 3004 	ldrb.w	r3, [sp, #4]
   805e0:	2b04      	cmp	r3, #4
   805e2:	d013      	beq.n	8060c <main+0xcc>
					playing = 1;
				} else {
					printf("received weird message, sending error\r\n");
   805e4:	481f      	ldr	r0, [pc, #124]	; (80664 <main+0x124>)
   805e6:	4b14      	ldr	r3, [pc, #80]	; (80638 <main+0xf8>)
   805e8:	4798      	blx	r3
					can_tx((CanMsg) {.id = 1, .length = 1, .byte[0] = 1});
   805ea:	ab05      	add	r3, sp, #20
   805ec:	2200      	movs	r2, #0
   805ee:	9205      	str	r2, [sp, #20]
   805f0:	9206      	str	r2, [sp, #24]
   805f2:	9207      	str	r2, [sp, #28]
   805f4:	2201      	movs	r2, #1
   805f6:	f88d 2014 	strb.w	r2, [sp, #20]
   805fa:	f88d 2015 	strb.w	r2, [sp, #21]
   805fe:	f88d 2018 	strb.w	r2, [sp, #24]
   80602:	e893 0007 	ldmia.w	r3, {r0, r1, r2}
   80606:	4b18      	ldr	r3, [pc, #96]	; (80668 <main+0x128>)
   80608:	4798      	blx	r3
   8060a:	e7cc      	b.n	805a6 <main+0x66>
					playing = 1;
   8060c:	2401      	movs	r4, #1
   8060e:	e7ca      	b.n	805a6 <main+0x66>
   80610:	00080401 	.word	0x00080401
   80614:	400e1a50 	.word	0x400e1a50
   80618:	0501bd00 	.word	0x0501bd00
   8061c:	00080e0d 	.word	0x00080e0d
   80620:	000806d5 	.word	0x000806d5
   80624:	00080a9d 	.word	0x00080a9d
   80628:	00080af9 	.word	0x00080af9
   8062c:	000801dd 	.word	0x000801dd
   80630:	000808f5 	.word	0x000808f5
   80634:	00083a34 	.word	0x00083a34
   80638:	00082101 	.word	0x00082101
   8063c:	00080b35 	.word	0x00080b35
   80640:	00080315 	.word	0x00080315
   80644:	00080751 	.word	0x00080751
   80648:	00080855 	.word	0x00080855
   8064c:	00080955 	.word	0x00080955
   80650:	00080501 	.word	0x00080501
   80654:	00080acd 	.word	0x00080acd
   80658:	000808b9 	.word	0x000808b9
   8065c:	00080b25 	.word	0x00080b25
   80660:	000802c5 	.word	0x000802c5
   80664:	00083a40 	.word	0x00083a40
   80668:	00080279 	.word	0x00080279

0008066c <motor_calibrate>:
		
		motor_initialized = 1;
	}
}

void motor_calibrate() {
   8066c:	b530      	push	{r4, r5, lr}
   8066e:	b083      	sub	sp, #12
	pwm_set_pulse_width(0, 0);
   80670:	2100      	movs	r1, #0
   80672:	4608      	mov	r0, r1
   80674:	4b13      	ldr	r3, [pc, #76]	; (806c4 <motor_calibrate+0x58>)
   80676:	4798      	blx	r3
	for (volatile uint32_t i = 0; i < 5000000; i++);
   80678:	2300      	movs	r3, #0
   8067a:	9301      	str	r3, [sp, #4]
   8067c:	e002      	b.n	80684 <motor_calibrate+0x18>
   8067e:	9b01      	ldr	r3, [sp, #4]
   80680:	3301      	adds	r3, #1
   80682:	9301      	str	r3, [sp, #4]
   80684:	9a01      	ldr	r2, [sp, #4]
   80686:	4b10      	ldr	r3, [pc, #64]	; (806c8 <motor_calibrate+0x5c>)
   80688:	429a      	cmp	r2, r3
   8068a:	d9f8      	bls.n	8067e <motor_calibrate+0x12>

	uint8_t counter = 0;
	uint8_t previous = timer_get(2);
   8068c:	2002      	movs	r0, #2
   8068e:	4b0f      	ldr	r3, [pc, #60]	; (806cc <motor_calibrate+0x60>)
   80690:	4798      	blx	r3
   80692:	4605      	mov	r5, r0
	uint8_t counter = 0;
   80694:	2400      	movs	r4, #0
	while (counter < 5) {
   80696:	e001      	b.n	8069c <motor_calibrate+0x30>
		if (timer_get(2) == previous) counter++;
   80698:	3401      	adds	r4, #1
   8069a:	b2e4      	uxtb	r4, r4
	while (counter < 5) {
   8069c:	2c04      	cmp	r4, #4
   8069e:	d807      	bhi.n	806b0 <motor_calibrate+0x44>
		if (timer_get(2) == previous) counter++;
   806a0:	2002      	movs	r0, #2
   806a2:	4b0a      	ldr	r3, [pc, #40]	; (806cc <motor_calibrate+0x60>)
   806a4:	4798      	blx	r3
   806a6:	b2eb      	uxtb	r3, r5
   806a8:	4283      	cmp	r3, r0
   806aa:	d0f5      	beq.n	80698 <motor_calibrate+0x2c>
		else counter = 0;
   806ac:	2400      	movs	r4, #0
   806ae:	e7f5      	b.n	8069c <motor_calibrate+0x30>
	}
	TC2->TC_CHANNEL[0].TC_CCR = TC_CCR_CLKEN | TC_CCR_SWTRG;
   806b0:	2205      	movs	r2, #5
   806b2:	4b07      	ldr	r3, [pc, #28]	; (806d0 <motor_calibrate+0x64>)
   806b4:	601a      	str	r2, [r3, #0]
	pwm_set_pulse_width(0, 1200);
   806b6:	f44f 6196 	mov.w	r1, #1200	; 0x4b0
   806ba:	2000      	movs	r0, #0
   806bc:	4b01      	ldr	r3, [pc, #4]	; (806c4 <motor_calibrate+0x58>)
   806be:	4798      	blx	r3
	for (volatile uint32_t i = 0; i < 5000000; i++);
	pos_max = timer_get(2);
	printf("pos max = %d\r\n", pos_max);
	joy_to_pos_step = (float)pos_max / 180;
	*/
}
   806c0:	b003      	add	sp, #12
   806c2:	bd30      	pop	{r4, r5, pc}
   806c4:	00080c7d 	.word	0x00080c7d
   806c8:	004c4b3f 	.word	0x004c4b3f
   806cc:	00080b91 	.word	0x00080b91
   806d0:	40088000 	.word	0x40088000

000806d4 <motor_init>:
void motor_init(void) {
   806d4:	b508      	push	{r3, lr}
	if (!motor_initialized) {
   806d6:	4b13      	ldr	r3, [pc, #76]	; (80724 <motor_init+0x50>)
   806d8:	781b      	ldrb	r3, [r3, #0]
   806da:	b103      	cbz	r3, 806de <motor_init+0xa>
   806dc:	bd08      	pop	{r3, pc}
		printf("motor init\r\n");
   806de:	4812      	ldr	r0, [pc, #72]	; (80728 <motor_init+0x54>)
   806e0:	4b12      	ldr	r3, [pc, #72]	; (8072c <motor_init+0x58>)
   806e2:	4798      	blx	r3
		pwm_init(0, 35000); // ENABLE/PWM
   806e4:	f648 01b8 	movw	r1, #35000	; 0x88b8
   806e8:	2000      	movs	r0, #0
   806ea:	4b11      	ldr	r3, [pc, #68]	; (80730 <motor_init+0x5c>)
   806ec:	4798      	blx	r3
		PMC->PMC_PCER0 = (1 << ID_PIOC); // PIOC clock
   806ee:	f44f 5200 	mov.w	r2, #8192	; 0x2000
   806f2:	4b10      	ldr	r3, [pc, #64]	; (80734 <motor_init+0x60>)
   806f4:	611a      	str	r2, [r3, #16]
		PIOC->PIO_PER = (1 << 23);   // Activate PIO control on PC23
   806f6:	f503 6340 	add.w	r3, r3, #3072	; 0xc00
   806fa:	f44f 0200 	mov.w	r2, #8388608	; 0x800000
   806fe:	601a      	str	r2, [r3, #0]
		PIOC->PIO_OER = (1 << 23);   // PC23 as output
   80700:	611a      	str	r2, [r3, #16]
		motor_calibrate();
   80702:	4b0d      	ldr	r3, [pc, #52]	; (80738 <motor_init+0x64>)
   80704:	4798      	blx	r3
		integral = 0;
   80706:	2300      	movs	r3, #0
   80708:	4a0c      	ldr	r2, [pc, #48]	; (8073c <motor_init+0x68>)
   8070a:	6013      	str	r3, [r2, #0]
		prev_err = 0.0;
   8070c:	4a0c      	ldr	r2, [pc, #48]	; (80740 <motor_init+0x6c>)
   8070e:	6013      	str	r3, [r2, #0]
		prev_time = time_now();
   80710:	4b0c      	ldr	r3, [pc, #48]	; (80744 <motor_init+0x70>)
   80712:	4798      	blx	r3
   80714:	4b0c      	ldr	r3, [pc, #48]	; (80748 <motor_init+0x74>)
   80716:	e9c3 0100 	strd	r0, r1, [r3]
		motor_initialized = 1;
   8071a:	2201      	movs	r2, #1
   8071c:	4b01      	ldr	r3, [pc, #4]	; (80724 <motor_init+0x50>)
   8071e:	701a      	strb	r2, [r3, #0]
}
   80720:	e7dc      	b.n	806dc <motor_init+0x8>
   80722:	bf00      	nop
   80724:	20000866 	.word	0x20000866
   80728:	00083a68 	.word	0x00083a68
   8072c:	00082101 	.word	0x00082101
   80730:	00080bcd 	.word	0x00080bcd
   80734:	400e0600 	.word	0x400e0600
   80738:	0008066d 	.word	0x0008066d
   8073c:	20000cd0 	.word	0x20000cd0
   80740:	20000cc0 	.word	0x20000cc0
   80744:	00080ce5 	.word	0x00080ce5
   80748:	20000cc8 	.word	0x20000cc8
   8074c:	00000000 	.word	0x00000000

00080750 <get_pos_from_pid>:


float get_pos_from_pid(int16_t wanted_pos) {
   80750:	e92d 4ff0 	stmdb	sp!, {r4, r5, r6, r7, r8, r9, sl, fp, lr}
   80754:	b083      	sub	sp, #12
   80756:	4606      	mov	r6, r0
	const int16_t pos = timer_get(2);
   80758:	2002      	movs	r0, #2
   8075a:	4b2b      	ldr	r3, [pc, #172]	; (80808 <get_pos_from_pid+0xb8>)
   8075c:	4798      	blx	r3
	const int16_t error = wanted_pos - pos;
   8075e:	1a36      	subs	r6, r6, r0
   80760:	b236      	sxth	r6, r6
	integral += error;
   80762:	f8df a0ec 	ldr.w	sl, [pc, #236]	; 80850 <get_pos_from_pid+0x100>
   80766:	4630      	mov	r0, r6
   80768:	47d0      	blx	sl
   8076a:	4604      	mov	r4, r0
   8076c:	4f27      	ldr	r7, [pc, #156]	; (8080c <get_pos_from_pid+0xbc>)
   8076e:	4d28      	ldr	r5, [pc, #160]	; (80810 <get_pos_from_pid+0xc0>)
   80770:	4601      	mov	r1, r0
   80772:	6838      	ldr	r0, [r7, #0]
   80774:	47a8      	blx	r5
   80776:	6038      	str	r0, [r7, #0]
	uint64_t now = time_now();
   80778:	4b26      	ldr	r3, [pc, #152]	; (80814 <get_pos_from_pid+0xc4>)
   8077a:	4798      	blx	r3
   8077c:	4680      	mov	r8, r0
   8077e:	4689      	mov	r9, r1
	float P = Kp * error;
   80780:	0070      	lsls	r0, r6, #1
   80782:	47d0      	blx	sl
   80784:	4683      	mov	fp, r0
	float I = Ki * integral;
   80786:	6838      	ldr	r0, [r7, #0]
   80788:	4b23      	ldr	r3, [pc, #140]	; (80818 <get_pos_from_pid+0xc8>)
   8078a:	4798      	blx	r3
   8078c:	a31c      	add	r3, pc, #112	; (adr r3, 80800 <get_pos_from_pid+0xb0>)
   8078e:	e9d3 2300 	ldrd	r2, r3, [r3]
   80792:	4e22      	ldr	r6, [pc, #136]	; (8081c <get_pos_from_pid+0xcc>)
   80794:	47b0      	blx	r6
   80796:	4b22      	ldr	r3, [pc, #136]	; (80820 <get_pos_from_pid+0xd0>)
   80798:	4798      	blx	r3
   8079a:	9001      	str	r0, [sp, #4]
	float D = Kd * (error - prev_err) / (now - prev_time);
   8079c:	4e21      	ldr	r6, [pc, #132]	; (80824 <get_pos_from_pid+0xd4>)
   8079e:	6831      	ldr	r1, [r6, #0]
   807a0:	4620      	mov	r0, r4
   807a2:	4b21      	ldr	r3, [pc, #132]	; (80828 <get_pos_from_pid+0xd8>)
   807a4:	4798      	blx	r3
   807a6:	4921      	ldr	r1, [pc, #132]	; (8082c <get_pos_from_pid+0xdc>)
   807a8:	4b21      	ldr	r3, [pc, #132]	; (80830 <get_pos_from_pid+0xe0>)
   807aa:	4798      	blx	r3
   807ac:	4682      	mov	sl, r0
   807ae:	4f21      	ldr	r7, [pc, #132]	; (80834 <get_pos_from_pid+0xe4>)
   807b0:	e9d7 0100 	ldrd	r0, r1, [r7]
   807b4:	ebb8 0000 	subs.w	r0, r8, r0
   807b8:	eb69 0101 	sbc.w	r1, r9, r1
   807bc:	4b1e      	ldr	r3, [pc, #120]	; (80838 <get_pos_from_pid+0xe8>)
   807be:	4798      	blx	r3
   807c0:	4601      	mov	r1, r0
   807c2:	4650      	mov	r0, sl
   807c4:	4b1d      	ldr	r3, [pc, #116]	; (8083c <get_pos_from_pid+0xec>)
   807c6:	4798      	blx	r3
   807c8:	4682      	mov	sl, r0
	float PID = P + I + D;
   807ca:	9901      	ldr	r1, [sp, #4]
   807cc:	4658      	mov	r0, fp
   807ce:	47a8      	blx	r5
   807d0:	4601      	mov	r1, r0
   807d2:	4650      	mov	r0, sl
   807d4:	47a8      	blx	r5
   807d6:	4605      	mov	r5, r0
	prev_time = now;
   807d8:	e9c7 8900 	strd	r8, r9, [r7]
	prev_err = error;
   807dc:	6034      	str	r4, [r6, #0]
	if (PID < -1200) PID = -1200;
   807de:	4918      	ldr	r1, [pc, #96]	; (80840 <get_pos_from_pid+0xf0>)
   807e0:	4b18      	ldr	r3, [pc, #96]	; (80844 <get_pos_from_pid+0xf4>)
   807e2:	4798      	blx	r3
   807e4:	b930      	cbnz	r0, 807f4 <get_pos_from_pid+0xa4>
	else if (PID > 1200) PID = 1200;
   807e6:	4918      	ldr	r1, [pc, #96]	; (80848 <get_pos_from_pid+0xf8>)
   807e8:	4628      	mov	r0, r5
   807ea:	4b18      	ldr	r3, [pc, #96]	; (8084c <get_pos_from_pid+0xfc>)
   807ec:	4798      	blx	r3
   807ee:	b110      	cbz	r0, 807f6 <get_pos_from_pid+0xa6>
   807f0:	4d15      	ldr	r5, [pc, #84]	; (80848 <get_pos_from_pid+0xf8>)
	return PID;
   807f2:	e000      	b.n	807f6 <get_pos_from_pid+0xa6>
	if (PID < -1200) PID = -1200;
   807f4:	4d12      	ldr	r5, [pc, #72]	; (80840 <get_pos_from_pid+0xf0>)
}
   807f6:	4628      	mov	r0, r5
   807f8:	b003      	add	sp, #12
   807fa:	e8bd 8ff0 	ldmia.w	sp!, {r4, r5, r6, r7, r8, r9, sl, fp, pc}
   807fe:	bf00      	nop
   80800:	d2f1a9fc 	.word	0xd2f1a9fc
   80804:	3f50624d 	.word	0x3f50624d
   80808:	00080b91 	.word	0x00080b91
   8080c:	20000cd0 	.word	0x20000cd0
   80810:	00081911 	.word	0x00081911
   80814:	00080ce5 	.word	0x00080ce5
   80818:	00081239 	.word	0x00081239
   8081c:	000812e1 	.word	0x000812e1
   80820:	00081865 	.word	0x00081865
   80824:	20000cc0 	.word	0x20000cc0
   80828:	0008190d 	.word	0x0008190d
   8082c:	4b189680 	.word	0x4b189680
   80830:	00081b21 	.word	0x00081b21
   80834:	20000cc8 	.word	0x20000cc8
   80838:	00081a95 	.word	0x00081a95
   8083c:	00081c89 	.word	0x00081c89
   80840:	c4960000 	.word	0xc4960000
   80844:	00081e5d 	.word	0x00081e5d
   80848:	44960000 	.word	0x44960000
   8084c:	00081e99 	.word	0x00081e99
   80850:	00081a79 	.word	0x00081a79

00080854 <set_motor>:

void set_motor(float speed) {
   80854:	b510      	push	{r4, lr}
   80856:	4604      	mov	r4, r0
	if (speed < 0) {
   80858:	2100      	movs	r1, #0
   8085a:	4b10      	ldr	r3, [pc, #64]	; (8089c <set_motor+0x48>)
   8085c:	4798      	blx	r3
   8085e:	b970      	cbnz	r0, 8087e <set_motor+0x2a>
		PIOC->PIO_SODR = (1 << 23);
		uint32_t pulse_width = speed + 1200;
		pwm_set_pulse_width(0, pulse_width);
	}
	else {
		PIOC->PIO_CODR = (1 << 23);
   80860:	f44f 0200 	mov.w	r2, #8388608	; 0x800000
   80864:	4b0e      	ldr	r3, [pc, #56]	; (808a0 <set_motor+0x4c>)
   80866:	635a      	str	r2, [r3, #52]	; 0x34
		uint32_t pulse_width = 1200 - speed;
   80868:	4621      	mov	r1, r4
   8086a:	480e      	ldr	r0, [pc, #56]	; (808a4 <set_motor+0x50>)
   8086c:	4b0e      	ldr	r3, [pc, #56]	; (808a8 <set_motor+0x54>)
   8086e:	4798      	blx	r3
   80870:	4b0e      	ldr	r3, [pc, #56]	; (808ac <set_motor+0x58>)
   80872:	4798      	blx	r3
		pwm_set_pulse_width(0, pulse_width);
   80874:	4601      	mov	r1, r0
   80876:	2000      	movs	r0, #0
   80878:	4b0d      	ldr	r3, [pc, #52]	; (808b0 <set_motor+0x5c>)
   8087a:	4798      	blx	r3
   8087c:	bd10      	pop	{r4, pc}
		PIOC->PIO_SODR = (1 << 23);
   8087e:	f44f 0200 	mov.w	r2, #8388608	; 0x800000
   80882:	4b07      	ldr	r3, [pc, #28]	; (808a0 <set_motor+0x4c>)
   80884:	631a      	str	r2, [r3, #48]	; 0x30
		uint32_t pulse_width = speed + 1200;
   80886:	4907      	ldr	r1, [pc, #28]	; (808a4 <set_motor+0x50>)
   80888:	4620      	mov	r0, r4
   8088a:	4b0a      	ldr	r3, [pc, #40]	; (808b4 <set_motor+0x60>)
   8088c:	4798      	blx	r3
   8088e:	4b07      	ldr	r3, [pc, #28]	; (808ac <set_motor+0x58>)
   80890:	4798      	blx	r3
		pwm_set_pulse_width(0, pulse_width);
   80892:	4601      	mov	r1, r0
   80894:	2000      	movs	r0, #0
   80896:	4b06      	ldr	r3, [pc, #24]	; (808b0 <set_motor+0x5c>)
   80898:	4798      	blx	r3
   8089a:	bd10      	pop	{r4, pc}
   8089c:	00081e5d 	.word	0x00081e5d
   808a0:	400e1200 	.word	0x400e1200
   808a4:	44960000 	.word	0x44960000
   808a8:	0008190d 	.word	0x0008190d
   808ac:	00081ead 	.word	0x00081ead
   808b0:	00080c7d 	.word	0x00080c7d
   808b4:	00081911 	.word	0x00081911

000808b8 <input_to_pos>:
	}
}

int16_t input_to_pos(uint8_t input) {
   808b8:	b510      	push	{r4, lr}
	if (input < 70) input = 70;
   808ba:	2845      	cmp	r0, #69	; 0x45
   808bc:	d800      	bhi.n	808c0 <input_to_pos+0x8>
   808be:	2046      	movs	r0, #70	; 0x46
	if (input > 250) input = 250;
   808c0:	28fa      	cmp	r0, #250	; 0xfa
   808c2:	d900      	bls.n	808c6 <input_to_pos+0xe>
   808c4:	20fa      	movs	r0, #250	; 0xfa
	const int16_t wanted_pos = (input - 70) * (-31.23);
   808c6:	3846      	subs	r0, #70	; 0x46
   808c8:	4b07      	ldr	r3, [pc, #28]	; (808e8 <input_to_pos+0x30>)
   808ca:	4798      	blx	r3
   808cc:	a304      	add	r3, pc, #16	; (adr r3, 808e0 <input_to_pos+0x28>)
   808ce:	e9d3 2300 	ldrd	r2, r3, [r3]
   808d2:	4c06      	ldr	r4, [pc, #24]	; (808ec <input_to_pos+0x34>)
   808d4:	47a0      	blx	r4
   808d6:	4b06      	ldr	r3, [pc, #24]	; (808f0 <input_to_pos+0x38>)
   808d8:	4798      	blx	r3
	return wanted_pos;
}
   808da:	b200      	sxth	r0, r0
   808dc:	bd10      	pop	{r4, pc}
   808de:	bf00      	nop
   808e0:	47ae147b 	.word	0x47ae147b
   808e4:	c03f3ae1 	.word	0xc03f3ae1
   808e8:	00081215 	.word	0x00081215
   808ec:	000812e1 	.word	0x000812e1
   808f0:	00081815 	.word	0x00081815

000808f4 <score_init>:
uint8_t score_initialized = 0;

uint8_t score;
uint64_t last_time;

void score_init(void) {
   808f4:	b508      	push	{r3, lr}
	if (!score_initialized) {
   808f6:	4b0c      	ldr	r3, [pc, #48]	; (80928 <score_init+0x34>)
   808f8:	781b      	ldrb	r3, [r3, #0]
   808fa:	b103      	cbz	r3, 808fe <score_init+0xa>
   808fc:	bd08      	pop	{r3, pc}
		ir_init();
   808fe:	4b0b      	ldr	r3, [pc, #44]	; (8092c <score_init+0x38>)
   80900:	4798      	blx	r3
		timer_init();
   80902:	4b0b      	ldr	r3, [pc, #44]	; (80930 <score_init+0x3c>)
   80904:	4798      	blx	r3
		score = 0;
   80906:	2200      	movs	r2, #0
   80908:	4b0a      	ldr	r3, [pc, #40]	; (80934 <score_init+0x40>)
   8090a:	701a      	strb	r2, [r3, #0]
		last_time = totalSeconds(time_now());
   8090c:	4b0a      	ldr	r3, [pc, #40]	; (80938 <score_init+0x44>)
   8090e:	4798      	blx	r3
   80910:	4b0a      	ldr	r3, [pc, #40]	; (8093c <score_init+0x48>)
   80912:	4798      	blx	r3
   80914:	4b0a      	ldr	r3, [pc, #40]	; (80940 <score_init+0x4c>)
   80916:	4798      	blx	r3
   80918:	4b0a      	ldr	r3, [pc, #40]	; (80944 <score_init+0x50>)
   8091a:	e9c3 0100 	strd	r0, r1, [r3]
		score_initialized = 1;
   8091e:	2201      	movs	r2, #1
   80920:	4b01      	ldr	r3, [pc, #4]	; (80928 <score_init+0x34>)
   80922:	701a      	strb	r2, [r3, #0]
	}

}
   80924:	e7ea      	b.n	808fc <score_init+0x8>
   80926:	bf00      	nop
   80928:	20000867 	.word	0x20000867
   8092c:	000804a5 	.word	0x000804a5
   80930:	00080b45 	.word	0x00080b45
   80934:	20000cd8 	.word	0x20000cd8
   80938:	00080ce5 	.word	0x00080ce5
   8093c:	00080d39 	.word	0x00080d39
   80940:	00081eed 	.word	0x00081eed
   80944:	20000ce0 	.word	0x20000ce0

00080948 <score_reset>:

void score_reset() {
	score = 0;
   80948:	2200      	movs	r2, #0
   8094a:	4b01      	ldr	r3, [pc, #4]	; (80950 <score_reset+0x8>)
   8094c:	701a      	strb	r2, [r3, #0]
   8094e:	4770      	bx	lr
   80950:	20000cd8 	.word	0x20000cd8

00080954 <score_handle>:
}

uint8_t score_handle() {
   80954:	b5f0      	push	{r4, r5, r6, r7, lr}
   80956:	b089      	sub	sp, #36	; 0x24
	double now = totalSeconds(time_now());
   80958:	4b3f      	ldr	r3, [pc, #252]	; (80a58 <score_handle+0x104>)
   8095a:	4798      	blx	r3
   8095c:	4b3f      	ldr	r3, [pc, #252]	; (80a5c <score_handle+0x108>)
   8095e:	4798      	blx	r3
   80960:	4607      	mov	r7, r0
   80962:	4b3f      	ldr	r3, [pc, #252]	; (80a60 <score_handle+0x10c>)
   80964:	4798      	blx	r3
   80966:	4604      	mov	r4, r0
   80968:	460d      	mov	r5, r1
	if (now > last_time + 1.) {
   8096a:	4b3e      	ldr	r3, [pc, #248]	; (80a64 <score_handle+0x110>)
   8096c:	e9d3 0100 	ldrd	r0, r1, [r3]
   80970:	4b3d      	ldr	r3, [pc, #244]	; (80a68 <score_handle+0x114>)
   80972:	4798      	blx	r3
   80974:	2200      	movs	r2, #0
   80976:	4b3d      	ldr	r3, [pc, #244]	; (80a6c <score_handle+0x118>)
   80978:	4e3d      	ldr	r6, [pc, #244]	; (80a70 <score_handle+0x11c>)
   8097a:	47b0      	blx	r6
   8097c:	4602      	mov	r2, r0
   8097e:	460b      	mov	r3, r1
   80980:	4620      	mov	r0, r4
   80982:	4629      	mov	r1, r5
   80984:	4c3b      	ldr	r4, [pc, #236]	; (80a74 <score_handle+0x120>)
   80986:	47a0      	blx	r4
   80988:	b928      	cbnz	r0, 80996 <score_handle+0x42>
			.byte[0] = score,
		};
		can_tx(score_msg);
		last_time = now;
	}
	if (ir_get_state() && ir_get_state()) {
   8098a:	4b3b      	ldr	r3, [pc, #236]	; (80a78 <score_handle+0x124>)
   8098c:	4798      	blx	r3
   8098e:	b9f0      	cbnz	r0, 809ce <score_handle+0x7a>
		}
		time_spinFor(msecs(500));
		can_rx(NULL); // clean CAN communication
		return 0; // stop playing
	}
	return 1; // keep playing
   80990:	2001      	movs	r0, #1
}
   80992:	b009      	add	sp, #36	; 0x24
   80994:	bdf0      	pop	{r4, r5, r6, r7, pc}
		score++;
   80996:	4a39      	ldr	r2, [pc, #228]	; (80a7c <score_handle+0x128>)
   80998:	7813      	ldrb	r3, [r2, #0]
   8099a:	3301      	adds	r3, #1
   8099c:	b2db      	uxtb	r3, r3
   8099e:	7013      	strb	r3, [r2, #0]
		const CanMsg score_msg = (CanMsg){
   809a0:	aa05      	add	r2, sp, #20
   809a2:	2100      	movs	r1, #0
   809a4:	9105      	str	r1, [sp, #20]
   809a6:	9106      	str	r1, [sp, #24]
   809a8:	9107      	str	r1, [sp, #28]
   809aa:	210f      	movs	r1, #15
   809ac:	f88d 1014 	strb.w	r1, [sp, #20]
   809b0:	2101      	movs	r1, #1
   809b2:	f88d 1015 	strb.w	r1, [sp, #21]
   809b6:	f88d 3018 	strb.w	r3, [sp, #24]
		can_tx(score_msg);
   809ba:	ca07      	ldmia	r2, {r0, r1, r2}
   809bc:	4b30      	ldr	r3, [pc, #192]	; (80a80 <score_handle+0x12c>)
   809be:	4798      	blx	r3
		last_time = now;
   809c0:	4638      	mov	r0, r7
   809c2:	4b30      	ldr	r3, [pc, #192]	; (80a84 <score_handle+0x130>)
   809c4:	4798      	blx	r3
   809c6:	4b27      	ldr	r3, [pc, #156]	; (80a64 <score_handle+0x110>)
   809c8:	e9c3 0100 	strd	r0, r1, [r3]
   809cc:	e7dd      	b.n	8098a <score_handle+0x36>
	if (ir_get_state() && ir_get_state()) {
   809ce:	4b2a      	ldr	r3, [pc, #168]	; (80a78 <score_handle+0x124>)
   809d0:	4798      	blx	r3
   809d2:	b908      	cbnz	r0, 809d8 <score_handle+0x84>
	return 1; // keep playing
   809d4:	2001      	movs	r0, #1
   809d6:	e7dc      	b.n	80992 <score_handle+0x3e>
		const CanMsg game_over_sig = (CanMsg){
   809d8:	ab02      	add	r3, sp, #8
   809da:	2400      	movs	r4, #0
   809dc:	9402      	str	r4, [sp, #8]
   809de:	9403      	str	r4, [sp, #12]
   809e0:	9404      	str	r4, [sp, #16]
   809e2:	2205      	movs	r2, #5
   809e4:	f88d 2008 	strb.w	r2, [sp, #8]
   809e8:	2201      	movs	r2, #1
   809ea:	f88d 2009 	strb.w	r2, [sp, #9]
   809ee:	4a23      	ldr	r2, [pc, #140]	; (80a7c <score_handle+0x128>)
   809f0:	7812      	ldrb	r2, [r2, #0]
   809f2:	f88d 200c 	strb.w	r2, [sp, #12]
		can_tx(game_over_sig);
   809f6:	e893 0007 	ldmia.w	r3, {r0, r1, r2}
   809fa:	4b21      	ldr	r3, [pc, #132]	; (80a80 <score_handle+0x12c>)
   809fc:	4798      	blx	r3
		pwm_set_pulse_width(0, 1200);
   809fe:	f44f 6196 	mov.w	r1, #1200	; 0x4b0
   80a02:	4620      	mov	r0, r4
   80a04:	4b20      	ldr	r3, [pc, #128]	; (80a88 <score_handle+0x134>)
   80a06:	4798      	blx	r3
		score_reset();
   80a08:	4b20      	ldr	r3, [pc, #128]	; (80a8c <score_handle+0x138>)
   80a0a:	4798      	blx	r3
		while(!can_rx(&end_ack_sig) && end_ack_sig.id == 3) {
   80a0c:	e00c      	b.n	80a28 <score_handle+0xd4>
			for (volatile uint32_t i = 0; i < 10000; i++);
   80a0e:	9b01      	ldr	r3, [sp, #4]
   80a10:	3301      	adds	r3, #1
   80a12:	9301      	str	r3, [sp, #4]
   80a14:	9a01      	ldr	r2, [sp, #4]
   80a16:	f242 730f 	movw	r3, #9999	; 0x270f
   80a1a:	429a      	cmp	r2, r3
   80a1c:	d9f7      	bls.n	80a0e <score_handle+0xba>
			can_tx(game_over_sig);
   80a1e:	ab02      	add	r3, sp, #8
   80a20:	e893 0007 	ldmia.w	r3, {r0, r1, r2}
   80a24:	4b16      	ldr	r3, [pc, #88]	; (80a80 <score_handle+0x12c>)
   80a26:	4798      	blx	r3
		while(!can_rx(&end_ack_sig) && end_ack_sig.id == 3) {
   80a28:	a805      	add	r0, sp, #20
   80a2a:	4b19      	ldr	r3, [pc, #100]	; (80a90 <score_handle+0x13c>)
   80a2c:	4798      	blx	r3
   80a2e:	b930      	cbnz	r0, 80a3e <score_handle+0xea>
   80a30:	f89d 3014 	ldrb.w	r3, [sp, #20]
   80a34:	2b03      	cmp	r3, #3
   80a36:	d102      	bne.n	80a3e <score_handle+0xea>
			for (volatile uint32_t i = 0; i < 10000; i++);
   80a38:	2300      	movs	r3, #0
   80a3a:	9301      	str	r3, [sp, #4]
   80a3c:	e7ea      	b.n	80a14 <score_handle+0xc0>
		time_spinFor(msecs(500));
   80a3e:	f44f 70fa 	mov.w	r0, #500	; 0x1f4
   80a42:	2100      	movs	r1, #0
   80a44:	4b13      	ldr	r3, [pc, #76]	; (80a94 <score_handle+0x140>)
   80a46:	4798      	blx	r3
   80a48:	4b13      	ldr	r3, [pc, #76]	; (80a98 <score_handle+0x144>)
   80a4a:	4798      	blx	r3
		can_rx(NULL); // clean CAN communication
   80a4c:	2000      	movs	r0, #0
   80a4e:	4b10      	ldr	r3, [pc, #64]	; (80a90 <score_handle+0x13c>)
   80a50:	4798      	blx	r3
		return 0; // stop playing
   80a52:	2000      	movs	r0, #0
   80a54:	e79d      	b.n	80992 <score_handle+0x3e>
   80a56:	bf00      	nop
   80a58:	00080ce5 	.word	0x00080ce5
   80a5c:	00080d39 	.word	0x00080d39
   80a60:	00081239 	.word	0x00081239
   80a64:	20000ce0 	.word	0x20000ce0
   80a68:	00081275 	.word	0x00081275
   80a6c:	3ff00000 	.word	0x3ff00000
   80a70:	00080f7d 	.word	0x00080f7d
   80a74:	00081801 	.word	0x00081801
   80a78:	000804cd 	.word	0x000804cd
   80a7c:	20000cd8 	.word	0x20000cd8
   80a80:	00080279 	.word	0x00080279
   80a84:	00081eed 	.word	0x00081eed
   80a88:	00080c7d 	.word	0x00080c7d
   80a8c:	00080949 	.word	0x00080949
   80a90:	000802c5 	.word	0x000802c5
   80a94:	00080d1d 	.word	0x00080d1d
   80a98:	00080d9d 	.word	0x00080d9d

00080a9c <servo_init>:
#include "../timer/timer.h"
#include <sam.h>

uint8_t servo_initialized = 0;

void servo_init() {
   80a9c:	b508      	push	{r3, lr}
	if (!servo_initialized) {
   80a9e:	4b08      	ldr	r3, [pc, #32]	; (80ac0 <servo_init+0x24>)
   80aa0:	781b      	ldrb	r3, [r3, #0]
   80aa2:	b103      	cbz	r3, 80aa6 <servo_init+0xa>
   80aa4:	bd08      	pop	{r3, pc}
		pwm_init(1, 50); // SERVO/PWM
   80aa6:	2132      	movs	r1, #50	; 0x32
   80aa8:	2001      	movs	r0, #1
   80aaa:	4b06      	ldr	r3, [pc, #24]	; (80ac4 <servo_init+0x28>)
   80aac:	4798      	blx	r3
		pwm_set_pulse_width(1, 35900); //103700	 101350, diff = 2350
   80aae:	f648 413c 	movw	r1, #35900	; 0x8c3c
   80ab2:	2001      	movs	r0, #1
   80ab4:	4b04      	ldr	r3, [pc, #16]	; (80ac8 <servo_init+0x2c>)
   80ab6:	4798      	blx	r3
		// or 38100 to 35900, diff = 2200
		//    0.9 ms   2.1 ms
		servo_initialized = 1;
   80ab8:	2201      	movs	r2, #1
   80aba:	4b01      	ldr	r3, [pc, #4]	; (80ac0 <servo_init+0x24>)
   80abc:	701a      	strb	r2, [r3, #0]
	}
}
   80abe:	e7f1      	b.n	80aa4 <servo_init+0x8>
   80ac0:	20000868 	.word	0x20000868
   80ac4:	00080bcd 	.word	0x00080bcd
   80ac8:	00080c7d 	.word	0x00080c7d

00080acc <servo_from_input>:

void servo_from_input(uint8_t input) {
   80acc:	b508      	push	{r3, lr}
	if (input < 70) input = 70;
   80ace:	2845      	cmp	r0, #69	; 0x45
   80ad0:	d800      	bhi.n	80ad4 <servo_from_input+0x8>
   80ad2:	2046      	movs	r0, #70	; 0x46
	if (input > 250) input = 250;
   80ad4:	28fa      	cmp	r0, #250	; 0xfa
   80ad6:	d900      	bls.n	80ada <servo_from_input+0xe>
   80ad8:	20fa      	movs	r0, #250	; 0xfa
	
	//uint16_t pulse_width = (input - 70) * 13 + 101350;
	uint16_t pulse_width = (input - 70) * 12 + 35900; //+ 101350;
   80ada:	3846      	subs	r0, #70	; 0x46
   80adc:	eb00 0040 	add.w	r0, r0, r0, lsl #1
   80ae0:	0081      	lsls	r1, r0, #2
   80ae2:	b289      	uxth	r1, r1
   80ae4:	f5a1 41e7 	sub.w	r1, r1, #29568	; 0x7380
   80ae8:	3944      	subs	r1, #68	; 0x44
   80aea:	b289      	uxth	r1, r1
	pwm_set_pulse_width(1, pulse_width);
   80aec:	2001      	movs	r0, #1
   80aee:	4b01      	ldr	r3, [pc, #4]	; (80af4 <servo_from_input+0x28>)
   80af0:	4798      	blx	r3
   80af2:	bd08      	pop	{r3, pc}
   80af4:	00080c7d 	.word	0x00080c7d

00080af8 <solenoid_init>:
#include "solenoid.h"

uint8_t solenoid_initialized = 0;

void solenoid_init(void) {
	if (!solenoid_initialized) {
   80af8:	4b08      	ldr	r3, [pc, #32]	; (80b1c <solenoid_init+0x24>)
   80afa:	781b      	ldrb	r3, [r3, #0]
   80afc:	b96b      	cbnz	r3, 80b1a <solenoid_init+0x22>
		// Enable peripheral clock for PIOB
		PMC->PMC_PCER0 = (1 << ID_PIOB);
   80afe:	f44f 5280 	mov.w	r2, #4096	; 0x1000
   80b02:	4b07      	ldr	r3, [pc, #28]	; (80b20 <solenoid_init+0x28>)
   80b04:	611a      	str	r2, [r3, #16]

		// Enable PIO control on PB14
		PIOB->PIO_PER = (1 << 14);
   80b06:	f503 6320 	add.w	r3, r3, #2560	; 0xa00
   80b0a:	f44f 4280 	mov.w	r2, #16384	; 0x4000
   80b0e:	601a      	str	r2, [r3, #0]

		// Set PB14 as output
		PIOB->PIO_OER = (1 << 14);
   80b10:	611a      	str	r2, [r3, #16]

		// Initialize PB14 to HIGH (retracted)
		PIOB->PIO_SODR = (1 << 14);
   80b12:	631a      	str	r2, [r3, #48]	; 0x30
		solenoid_initialized = 1;
   80b14:	2201      	movs	r2, #1
   80b16:	4b01      	ldr	r3, [pc, #4]	; (80b1c <solenoid_init+0x24>)
   80b18:	701a      	strb	r2, [r3, #0]
   80b1a:	4770      	bx	lr
   80b1c:	20000869 	.word	0x20000869
   80b20:	400e0600 	.word	0x400e0600

00080b24 <solenoid_push>:
	}
}

void solenoid_push(void) {
	PIOB->PIO_CODR = (1 << 14);
   80b24:	f44f 4280 	mov.w	r2, #16384	; 0x4000
   80b28:	4b01      	ldr	r3, [pc, #4]	; (80b30 <solenoid_push+0xc>)
   80b2a:	635a      	str	r2, [r3, #52]	; 0x34
   80b2c:	4770      	bx	lr
   80b2e:	bf00      	nop
   80b30:	400e1000 	.word	0x400e1000

00080b34 <solenoid_pull>:
}

void solenoid_pull(void) {
	PIOB->PIO_SODR = (1 << 14);
   80b34:	f44f 4280 	mov.w	r2, #16384	; 0x4000
   80b38:	4b01      	ldr	r3, [pc, #4]	; (80b40 <solenoid_pull+0xc>)
   80b3a:	631a      	str	r2, [r3, #48]	; 0x30
   80b3c:	4770      	bx	lr
   80b3e:	bf00      	nop
   80b40:	400e1000 	.word	0x400e1000

00080b44 <timer_init>:

uint8_t timer_initialized = 0;

/* ====> TIMERS <==== */
void timer_init() {
	if (!timer_initialized) {
   80b44:	4b0d      	ldr	r3, [pc, #52]	; (80b7c <timer_init+0x38>)
   80b46:	781b      	ldrb	r3, [r3, #0]
   80b48:	b9b3      	cbnz	r3, 80b78 <timer_init+0x34>
		/* Init timer 0 (for score) */
		PMC->PMC_PCER1 = (1 << (ID_TC6 - 32));
   80b4a:	4b0d      	ldr	r3, [pc, #52]	; (80b80 <timer_init+0x3c>)
   80b4c:	2202      	movs	r2, #2
   80b4e:	f8c3 2100 	str.w	r2, [r3, #256]	; 0x100
		TC0->TC_CHANNEL[0].TC_CMR = TC_CMR_TCCLKS_TIMER_CLOCK4;  // MCK/128
   80b52:	4a0c      	ldr	r2, [pc, #48]	; (80b84 <timer_init+0x40>)
   80b54:	2103      	movs	r1, #3
   80b56:	6051      	str	r1, [r2, #4]
		TC0->TC_CHANNEL[0].TC_CCR = TC_CCR_CLKEN | TC_CCR_SWTRG; // enable + reset
   80b58:	2105      	movs	r1, #5
   80b5a:	6011      	str	r1, [r2, #0]
	
		/* Init timer 2 as quadrature decoder (decoding motor position) */
		PMC->PMC_PCER0 |= (1 << ID_TC2);   // enable clock for TC2
   80b5c:	691a      	ldr	r2, [r3, #16]
   80b5e:	f042 5200 	orr.w	r2, r2, #536870912	; 0x20000000
   80b62:	611a      	str	r2, [r3, #16]
		TC2->TC_BMR = TC_BMR_QDEN          // enable quadrature decoder
   80b64:	4b08      	ldr	r3, [pc, #32]	; (80b88 <timer_init+0x44>)
   80b66:	4a09      	ldr	r2, [pc, #36]	; (80b8c <timer_init+0x48>)
   80b68:	f8c3 20c4 	str.w	r2, [r3, #196]	; 0xc4
					| TC_BMR_POSEN          // activate position
					| TC_BMR_EDGPHA         // actif edge on A and B
					| TC_BMR_MAXFILT(1);    // minimal filtering
		
		TC2->TC_CHANNEL[0].TC_CMR = 0;
   80b6c:	2200      	movs	r2, #0
   80b6e:	605a      	str	r2, [r3, #4]
		TC2->TC_CHANNEL[0].TC_CCR = TC_CCR_CLKEN | TC_CCR_SWTRG;
   80b70:	6019      	str	r1, [r3, #0]
		timer_initialized = 1;
   80b72:	2201      	movs	r2, #1
   80b74:	4b01      	ldr	r3, [pc, #4]	; (80b7c <timer_init+0x38>)
   80b76:	701a      	strb	r2, [r3, #0]
   80b78:	4770      	bx	lr
   80b7a:	bf00      	nop
   80b7c:	2000086a 	.word	0x2000086a
   80b80:	400e0600 	.word	0x400e0600
   80b84:	40080000 	.word	0x40080000
   80b88:	40088000 	.word	0x40088000
   80b8c:	00101300 	.word	0x00101300

00080b90 <timer_get>:
	}
}

uint32_t timer_get(uint8_t timer) {
	if (timer == 0) {
   80b90:	b128      	cbz	r0, 80b9e <timer_get+0xe>
		return TC0->TC_CHANNEL[0].TC_CV;
	} else if (timer == 1) {
   80b92:	2801      	cmp	r0, #1
   80b94:	d006      	beq.n	80ba4 <timer_get+0x14>
		return TC1->TC_CHANNEL[0].TC_CV;
	} else if (timer == 2) {
   80b96:	2802      	cmp	r0, #2
   80b98:	d007      	beq.n	80baa <timer_get+0x1a>
		return TC2->TC_CHANNEL[0].TC_CV;
    }
	return 0;
   80b9a:	2000      	movs	r0, #0
}
   80b9c:	4770      	bx	lr
		return TC0->TC_CHANNEL[0].TC_CV;
   80b9e:	4b04      	ldr	r3, [pc, #16]	; (80bb0 <timer_get+0x20>)
   80ba0:	6918      	ldr	r0, [r3, #16]
   80ba2:	4770      	bx	lr
		return TC1->TC_CHANNEL[0].TC_CV;
   80ba4:	4b03      	ldr	r3, [pc, #12]	; (80bb4 <timer_get+0x24>)
   80ba6:	6918      	ldr	r0, [r3, #16]
   80ba8:	4770      	bx	lr
		return TC2->TC_CHANNEL[0].TC_CV;
   80baa:	4b03      	ldr	r3, [pc, #12]	; (80bb8 <timer_get+0x28>)
   80bac:	6918      	ldr	r0, [r3, #16]
   80bae:	4770      	bx	lr
   80bb0:	40080000 	.word	0x40080000
   80bb4:	40084000 	.word	0x40084000
   80bb8:	40088000 	.word	0x40088000

00080bbc <pwm_start>:
	}
	pwm_start(channel);
}

void pwm_start(uint32_t channel){
	PWM->PWM_ENA = (1 << channel);
   80bbc:	2301      	movs	r3, #1
   80bbe:	fa03 f000 	lsl.w	r0, r3, r0
   80bc2:	4b01      	ldr	r3, [pc, #4]	; (80bc8 <pwm_start+0xc>)
   80bc4:	6058      	str	r0, [r3, #4]
   80bc6:	4770      	bx	lr
   80bc8:	40094000 	.word	0x40094000

00080bcc <pwm_init>:
void pwm_init(uint32_t channel, uint32_t freq) {
   80bcc:	b538      	push	{r3, r4, r5, lr}
	PMC->PMC_PCER1 |= (1 << (ID_PWM - 32));
   80bce:	4a24      	ldr	r2, [pc, #144]	; (80c60 <pwm_init+0x94>)
   80bd0:	f8d2 3100 	ldr.w	r3, [r2, #256]	; 0x100
   80bd4:	f043 0310 	orr.w	r3, r3, #16
   80bd8:	f8c2 3100 	str.w	r3, [r2, #256]	; 0x100
	PWM->PWM_DIS = (1 << channel);
   80bdc:	2201      	movs	r2, #1
   80bde:	4082      	lsls	r2, r0
   80be0:	4b20      	ldr	r3, [pc, #128]	; (80c64 <pwm_init+0x98>)
   80be2:	609a      	str	r2, [r3, #8]
	PWM->PWM_CH_NUM[channel].PWM_CMR = 0;
   80be4:	f100 0210 	add.w	r2, r0, #16
   80be8:	0152      	lsls	r2, r2, #5
   80bea:	2400      	movs	r4, #0
   80bec:	509c      	str	r4, [r3, r2]
	PWM->PWM_CLK = PWM_CLK_PREA(1) | PWM_CLK_DIVA(1) // CLKA = 84MHz / 2 = 42MHz
   80bee:	4a1e      	ldr	r2, [pc, #120]	; (80c68 <pwm_init+0x9c>)
   80bf0:	601a      	str	r2, [r3, #0]
	if (channel == 1) {
   80bf2:	2801      	cmp	r0, #1
   80bf4:	d01b      	beq.n	80c2e <pwm_init+0x62>
	} else if (channel == 0) {
   80bf6:	b9b8      	cbnz	r0, 80c28 <pwm_init+0x5c>
		PWM->PWM_CH_NUM[channel].PWM_CMR = PWM_CMR_CPRE_CLKA;
   80bf8:	4b1a      	ldr	r3, [pc, #104]	; (80c64 <pwm_init+0x98>)
   80bfa:	f100 0210 	add.w	r2, r0, #16
   80bfe:	0152      	lsls	r2, r2, #5
   80c00:	189c      	adds	r4, r3, r2
   80c02:	250b      	movs	r5, #11
   80c04:	509d      	str	r5, [r3, r2]
		uint32_t period = pwm_clk / freq; // 42 000 000 / 35 000 = 1200. See page 1048 datasheet
   80c06:	4a19      	ldr	r2, [pc, #100]	; (80c6c <pwm_init+0xa0>)
   80c08:	fbb2 f1f1 	udiv	r1, r2, r1
		PWM->PWM_CH_NUM[channel].PWM_CPRD = period;
   80c0c:	eb03 1340 	add.w	r3, r3, r0, lsl #5
   80c10:	f8c3 120c 	str.w	r1, [r3, #524]	; 0x20c
		PWM->PWM_CH_NUM[channel].PWM_CDTY = 0;
   80c14:	2300      	movs	r3, #0
   80c16:	6063      	str	r3, [r4, #4]
		PIOB->PIO_PDR = PIO_PB12;       // Disable GPIO on PB12
   80c18:	4b15      	ldr	r3, [pc, #84]	; (80c70 <pwm_init+0xa4>)
   80c1a:	f44f 5280 	mov.w	r2, #4096	; 0x1000
   80c1e:	605a      	str	r2, [r3, #4]
		PIOB->PIO_ABSR |= PIO_PB12;     // Select peripheral B (PWMH0)
   80c20:	6f1a      	ldr	r2, [r3, #112]	; 0x70
   80c22:	f442 5280 	orr.w	r2, r2, #4096	; 0x1000
   80c26:	671a      	str	r2, [r3, #112]	; 0x70
	pwm_start(channel);
   80c28:	4b12      	ldr	r3, [pc, #72]	; (80c74 <pwm_init+0xa8>)
   80c2a:	4798      	blx	r3
   80c2c:	bd38      	pop	{r3, r4, r5, pc}
		PWM->PWM_CH_NUM[channel].PWM_CMR = PWM_CMR_CPRE_CLKB;
   80c2e:	f100 0210 	add.w	r2, r0, #16
   80c32:	0152      	lsls	r2, r2, #5
   80c34:	189c      	adds	r4, r3, r2
   80c36:	250c      	movs	r5, #12
   80c38:	509d      	str	r5, [r3, r2]
		uint32_t period = pwm_clk / freq; // 2000000 / 5000 = 400. 2000000/50 = 40000 See page 1048 datasheet
   80c3a:	4a0f      	ldr	r2, [pc, #60]	; (80c78 <pwm_init+0xac>)
   80c3c:	fbb2 f1f1 	udiv	r1, r2, r1
		PWM->PWM_CH_NUM[channel].PWM_CPRD = period;
   80c40:	eb03 1340 	add.w	r3, r3, r0, lsl #5
   80c44:	f8c3 120c 	str.w	r1, [r3, #524]	; 0x20c
		PWM->PWM_CH_NUM[channel].PWM_CDTY = 0;
   80c48:	2300      	movs	r3, #0
   80c4a:	6063      	str	r3, [r4, #4]
		PIOB->PIO_PDR = PIO_PB13;       // Disable GPIO on PB13
   80c4c:	4b08      	ldr	r3, [pc, #32]	; (80c70 <pwm_init+0xa4>)
   80c4e:	f44f 5200 	mov.w	r2, #8192	; 0x2000
   80c52:	605a      	str	r2, [r3, #4]
		PIOB->PIO_ABSR |= PIO_PB13;     // Select peripheral B (PWMH1)
   80c54:	6f1a      	ldr	r2, [r3, #112]	; 0x70
   80c56:	f442 5200 	orr.w	r2, r2, #8192	; 0x2000
   80c5a:	671a      	str	r2, [r3, #112]	; 0x70
   80c5c:	e7e4      	b.n	80c28 <pwm_init+0x5c>
   80c5e:	bf00      	nop
   80c60:	400e0600 	.word	0x400e0600
   80c64:	40094000 	.word	0x40094000
   80c68:	002a0101 	.word	0x002a0101
   80c6c:	0280de80 	.word	0x0280de80
   80c70:	400e1000 	.word	0x400e1000
   80c74:	00080bbd 	.word	0x00080bbd
   80c78:	001e8480 	.word	0x001e8480

00080c7c <pwm_set_pulse_width>:
void pwm_stop(uint32_t channel){
	PWM->PWM_DIS = (1 << channel);
}

void pwm_set_pulse_width(uint32_t channel, uint32_t pulse_width){
	PWM->PWM_CH_NUM[channel].PWM_CDTYUPD = pulse_width; // Pulse width is supposed to be between 0 and PWM_CPRD
   80c7c:	0140      	lsls	r0, r0, #5
   80c7e:	f100 2040 	add.w	r0, r0, #1073758208	; 0x40004000
   80c82:	f500 2010 	add.w	r0, r0, #589824	; 0x90000
   80c86:	f8c0 1208 	str.w	r1, [r0, #520]	; 0x208
   80c8a:	4770      	bx	lr

00080c8c <time_init>:
static uint64_t now = 0;

__attribute__((constructor)) void time_init(void){
	// Clock calibration is set to '(num cycles for 1ms) / 8'
	// (SysTick is by default set to use 8x clock divisor)
	calib = SysTick->CALIB * 8;
   80c8c:	4a09      	ldr	r2, [pc, #36]	; (80cb4 <time_init+0x28>)
   80c8e:	68d3      	ldr	r3, [r2, #12]
   80c90:	00db      	lsls	r3, r3, #3
   80c92:	2100      	movs	r1, #0
   80c94:	4808      	ldr	r0, [pc, #32]	; (80cb8 <time_init+0x2c>)
   80c96:	6003      	str	r3, [r0, #0]
   80c98:	6041      	str	r1, [r0, #4]
	// Set reload at calib-1 ticks
	SysTick->LOAD = (calib & SysTick_LOAD_RELOAD_Msk)-1;
   80c9a:	f023 437f 	bic.w	r3, r3, #4278190080	; 0xff000000
   80c9e:	3b01      	subs	r3, #1
   80ca0:	6053      	str	r3, [r2, #4]
	// Reset counter
	SysTick->VAL = 0;
   80ca2:	6091      	str	r1, [r2, #8]
  {
    NVIC->IP[((uint32_t)IRQn)]               = (uint8_t)((priority << (8U - __NVIC_PRIO_BITS)) & (uint32_t)0xFFUL);
  }
  else
  {
    SCB->SHP[(((uint32_t)IRQn) & 0xFUL)-4UL] = (uint8_t)((priority << (8U - __NVIC_PRIO_BITS)) & (uint32_t)0xFFUL);
   80ca4:	2120      	movs	r1, #32
   80ca6:	4b05      	ldr	r3, [pc, #20]	; (80cbc <time_init+0x30>)
   80ca8:	f883 1023 	strb.w	r1, [r3, #35]	; 0x23
	// Set interrupt priority
	NVIC_SetPriority(SysTick_IRQn, 2);
	SysTick->CTRL =
   80cac:	2307      	movs	r3, #7
   80cae:	6013      	str	r3, [r2, #0]
   80cb0:	4770      	bx	lr
   80cb2:	bf00      	nop
   80cb4:	e000e010 	.word	0xe000e010
   80cb8:	20000ce8 	.word	0x20000ce8
   80cbc:	e000ed00 	.word	0xe000ed00

00080cc0 <SysTick_Handler>:
	((1 << SysTick_CTRL_TICKINT_Pos)   & SysTick_CTRL_TICKINT_Msk)      |   // Enable interrupt
	((1 << SysTick_CTRL_ENABLE_Pos)    & SysTick_CTRL_ENABLE_Msk);	        // Enable SysTick
}


void SysTick_Handler(void){
   80cc0:	b430      	push	{r4, r5}
	now += calib;
   80cc2:	4906      	ldr	r1, [pc, #24]	; (80cdc <SysTick_Handler+0x1c>)
   80cc4:	e9d1 2300 	ldrd	r2, r3, [r1]
   80cc8:	4805      	ldr	r0, [pc, #20]	; (80ce0 <SysTick_Handler+0x20>)
   80cca:	e9d0 4500 	ldrd	r4, r5, [r0]
   80cce:	1912      	adds	r2, r2, r4
   80cd0:	416b      	adcs	r3, r5
   80cd2:	e9c1 2300 	strd	r2, r3, [r1]
}
   80cd6:	bc30      	pop	{r4, r5}
   80cd8:	4770      	bx	lr
   80cda:	bf00      	nop
   80cdc:	20000870 	.word	0x20000870
   80ce0:	20000ce8 	.word	0x20000ce8

00080ce4 <time_now>:


uint64_t time_now(void){
   80ce4:	f84d bd04 	str.w	fp, [sp, #-4]!
	return now + calib - SysTick->VAL;
   80ce8:	4b09      	ldr	r3, [pc, #36]	; (80d10 <time_now+0x2c>)
   80cea:	e9d3 2300 	ldrd	r2, r3, [r3]
   80cee:	4909      	ldr	r1, [pc, #36]	; (80d14 <time_now+0x30>)
   80cf0:	e9d1 0100 	ldrd	r0, r1, [r1]
   80cf4:	1812      	adds	r2, r2, r0
   80cf6:	414b      	adcs	r3, r1
   80cf8:	4907      	ldr	r1, [pc, #28]	; (80d18 <time_now+0x34>)
   80cfa:	6888      	ldr	r0, [r1, #8]
}
   80cfc:	ebb2 0b00 	subs.w	fp, r2, r0
   80d00:	f163 0c00 	sbc.w	ip, r3, #0
   80d04:	4658      	mov	r0, fp
   80d06:	4661      	mov	r1, ip
   80d08:	f85d bb04 	ldr.w	fp, [sp], #4
   80d0c:	4770      	bx	lr
   80d0e:	bf00      	nop
   80d10:	20000870 	.word	0x20000870
   80d14:	20000ce8 	.word	0x20000ce8
   80d18:	e000e010 	.word	0xe000e010

00080d1c <msecs>:

uint64_t usecs(uint64_t s){
	return s*calib/1000;
}
uint64_t msecs(uint64_t s){
	return s*calib;
   80d1c:	4a05      	ldr	r2, [pc, #20]	; (80d34 <msecs+0x18>)
   80d1e:	6813      	ldr	r3, [r2, #0]
   80d20:	6852      	ldr	r2, [r2, #4]
   80d22:	fb00 f202 	mul.w	r2, r0, r2
   80d26:	fb01 2203 	mla	r2, r1, r3, r2
   80d2a:	fba3 0100 	umull	r0, r1, r3, r0
   80d2e:	4411      	add	r1, r2
}
   80d30:	4770      	bx	lr
   80d32:	bf00      	nop
   80d34:	20000ce8 	.word	0x20000ce8

00080d38 <totalSeconds>:
	return t / (1.0 * calib / 1000);
}
float totalMsecs(uint64_t t){
	return t / (1.0 * calib);
}
float totalSeconds(uint64_t t){
   80d38:	e92d 43f8 	stmdb	sp!, {r3, r4, r5, r6, r7, r8, r9, lr}
   80d3c:	4680      	mov	r8, r0
   80d3e:	4689      	mov	r9, r1
	return t / (1.0 * calib * 1000);
   80d40:	4c0a      	ldr	r4, [pc, #40]	; (80d6c <totalSeconds+0x34>)
   80d42:	4b0b      	ldr	r3, [pc, #44]	; (80d70 <totalSeconds+0x38>)
   80d44:	e9d3 0100 	ldrd	r0, r1, [r3]
   80d48:	47a0      	blx	r4
   80d4a:	2200      	movs	r2, #0
   80d4c:	4b09      	ldr	r3, [pc, #36]	; (80d74 <totalSeconds+0x3c>)
   80d4e:	4d0a      	ldr	r5, [pc, #40]	; (80d78 <totalSeconds+0x40>)
   80d50:	47a8      	blx	r5
   80d52:	4606      	mov	r6, r0
   80d54:	460f      	mov	r7, r1
   80d56:	4640      	mov	r0, r8
   80d58:	4649      	mov	r1, r9
   80d5a:	47a0      	blx	r4
   80d5c:	4632      	mov	r2, r6
   80d5e:	463b      	mov	r3, r7
   80d60:	4c06      	ldr	r4, [pc, #24]	; (80d7c <totalSeconds+0x44>)
   80d62:	47a0      	blx	r4
   80d64:	4b06      	ldr	r3, [pc, #24]	; (80d80 <totalSeconds+0x48>)
   80d66:	4798      	blx	r3
}
   80d68:	e8bd 83f8 	ldmia.w	sp!, {r3, r4, r5, r6, r7, r8, r9, pc}
   80d6c:	00081275 	.word	0x00081275
   80d70:	20000ce8 	.word	0x20000ce8
   80d74:	408f4000 	.word	0x408f4000
   80d78:	000812e1 	.word	0x000812e1
   80d7c:	00081535 	.word	0x00081535
   80d80:	00081865 	.word	0x00081865

00080d84 <time_spinUntil>:

void time_spinFor(uint64_t duration){
	time_spinUntil(time_now() + duration);
}

void time_spinUntil(uint64_t then){
   80d84:	b538      	push	{r3, r4, r5, lr}
   80d86:	4604      	mov	r4, r0
   80d88:	460d      	mov	r5, r1
	while(then > time_now()){}
   80d8a:	4b03      	ldr	r3, [pc, #12]	; (80d98 <time_spinUntil+0x14>)
   80d8c:	4798      	blx	r3
   80d8e:	42a9      	cmp	r1, r5
   80d90:	bf08      	it	eq
   80d92:	42a0      	cmpeq	r0, r4
   80d94:	d3f9      	bcc.n	80d8a <time_spinUntil+0x6>
}
   80d96:	bd38      	pop	{r3, r4, r5, pc}
   80d98:	00080ce5 	.word	0x00080ce5

00080d9c <time_spinFor>:
void time_spinFor(uint64_t duration){
   80d9c:	b538      	push	{r3, r4, r5, lr}
   80d9e:	4604      	mov	r4, r0
   80da0:	460d      	mov	r5, r1
	time_spinUntil(time_now() + duration);
   80da2:	4b03      	ldr	r3, [pc, #12]	; (80db0 <time_spinFor+0x14>)
   80da4:	4798      	blx	r3
   80da6:	1900      	adds	r0, r0, r4
   80da8:	4169      	adcs	r1, r5
   80daa:	4b02      	ldr	r3, [pc, #8]	; (80db4 <time_spinFor+0x18>)
   80dac:	4798      	blx	r3
   80dae:	bd38      	pop	{r3, r4, r5, pc}
   80db0:	00080ce5 	.word	0x00080ce5
   80db4:	00080d85 	.word	0x00080d85

00080db8 <push>:
};
RingBuf ringBuf = {0};


int push(RingBuf* rb, uint8_t val){
	if(rb->length >= (sizeof(rb->buffer)/sizeof(rb->buffer[0]))){
   80db8:	f8d0 240c 	ldr.w	r2, [r0, #1036]	; 0x40c
   80dbc:	f5b2 6f80 	cmp.w	r2, #1024	; 0x400
   80dc0:	d20c      	bcs.n	80ddc <push+0x24>
		return 0;
	}
	rb->buffer[rb->insertIdx] = val;
   80dc2:	f8d0 3404 	ldr.w	r3, [r0, #1028]	; 0x404
   80dc6:	54c1      	strb	r1, [r0, r3]
	rb->insertIdx = (rb->insertIdx + 1) % (sizeof(rb->buffer)/sizeof(rb->buffer[0]));
   80dc8:	3301      	adds	r3, #1
   80dca:	f3c3 0309 	ubfx	r3, r3, #0, #10
   80dce:	f8c0 3404 	str.w	r3, [r0, #1028]	; 0x404
	rb->length++;
   80dd2:	3201      	adds	r2, #1
   80dd4:	f8c0 240c 	str.w	r2, [r0, #1036]	; 0x40c
	return 1;
   80dd8:	2001      	movs	r0, #1
   80dda:	4770      	bx	lr
		return 0;
   80ddc:	2000      	movs	r0, #0
}
   80dde:	4770      	bx	lr

00080de0 <pop>:

int pop(RingBuf* rb, uint8_t* val){
   80de0:	4603      	mov	r3, r0
	if(!rb->length){
   80de2:	f8d0 040c 	ldr.w	r0, [r0, #1036]	; 0x40c
   80de6:	b180      	cbz	r0, 80e0a <pop+0x2a>
		return 0;
	}
	*val = rb->buffer[rb->removeIdx];
   80de8:	f8d3 2408 	ldr.w	r2, [r3, #1032]	; 0x408
   80dec:	5c9a      	ldrb	r2, [r3, r2]
   80dee:	700a      	strb	r2, [r1, #0]
	rb->removeIdx = (rb->removeIdx + 1) % (sizeof(rb->buffer)/sizeof(rb->buffer[0]));
   80df0:	f8d3 2408 	ldr.w	r2, [r3, #1032]	; 0x408
   80df4:	3201      	adds	r2, #1
   80df6:	f3c2 0209 	ubfx	r2, r2, #0, #10
   80dfa:	f8c3 2408 	str.w	r2, [r3, #1032]	; 0x408
	rb->length--;
   80dfe:	f8d3 240c 	ldr.w	r2, [r3, #1036]	; 0x40c
   80e02:	3a01      	subs	r2, #1
   80e04:	f8c3 240c 	str.w	r2, [r3, #1036]	; 0x40c
	return 1;
   80e08:	2001      	movs	r0, #1
}
   80e0a:	4770      	bx	lr

00080e0c <uart_init>:

void uart_init(uint32_t cpufreq, uint32_t baudrate){
	PMC->PMC_PCER0 |= (1 << ID_UART);
   80e0c:	4a12      	ldr	r2, [pc, #72]	; (80e58 <uart_init+0x4c>)
   80e0e:	6913      	ldr	r3, [r2, #16]
   80e10:	f443 7380 	orr.w	r3, r3, #256	; 0x100
   80e14:	6113      	str	r3, [r2, #16]
	
	// Set UART pins (A8, A9) to use alternate function (this disables regular IO)
	PIOA->PIO_PDR   |=   PIO_PA8 | PIO_PA9;
   80e16:	4b11      	ldr	r3, [pc, #68]	; (80e5c <uart_init+0x50>)
   80e18:	685a      	ldr	r2, [r3, #4]
   80e1a:	f442 7240 	orr.w	r2, r2, #768	; 0x300
   80e1e:	605a      	str	r2, [r3, #4]
	// Set alternate function A (see tables 9-2, 34-2)
	PIOA->PIO_ABSR  &= ~(PIO_PA8 | PIO_PA9);
   80e20:	6f1a      	ldr	r2, [r3, #112]	; 0x70
   80e22:	f422 7240 	bic.w	r2, r2, #768	; 0x300
   80e26:	671a      	str	r2, [r3, #112]	; 0x70
	
	// Configure UART settings
	UART->UART_CR   |= UART_CR_TXEN | UART_CR_RXEN;
   80e28:	f5a3 63c0 	sub.w	r3, r3, #1536	; 0x600
   80e2c:	681a      	ldr	r2, [r3, #0]
   80e2e:	f042 0250 	orr.w	r2, r2, #80	; 0x50
   80e32:	601a      	str	r2, [r3, #0]
	UART->UART_MR   |= UART_MR_PAR_NO;
   80e34:	685a      	ldr	r2, [r3, #4]
   80e36:	f442 6200 	orr.w	r2, r2, #2048	; 0x800
   80e3a:	605a      	str	r2, [r3, #4]
	UART->UART_BRGR = cpufreq / 16 / baudrate;
   80e3c:	0900      	lsrs	r0, r0, #4
   80e3e:	fbb0 f1f1 	udiv	r1, r0, r1
   80e42:	6219      	str	r1, [r3, #32]
	
	
	// Configure interrupts on receive ready and errors
	UART->UART_IDR = 0xFFFFFFFF;
   80e44:	f04f 32ff 	mov.w	r2, #4294967295
   80e48:	60da      	str	r2, [r3, #12]
	UART->UART_IER = UART_IER_RXRDY | UART_IER_OVRE | UART_IER_FRAME | UART_IER_PARE;
   80e4a:	22e1      	movs	r2, #225	; 0xe1
   80e4c:	609a      	str	r2, [r3, #8]
    NVIC->ISER[(((uint32_t)IRQn) >> 5UL)] = (uint32_t)(1UL << (((uint32_t)IRQn) & 0x1FUL));
   80e4e:	f44f 7280 	mov.w	r2, #256	; 0x100
   80e52:	4b03      	ldr	r3, [pc, #12]	; (80e60 <uart_init+0x54>)
   80e54:	601a      	str	r2, [r3, #0]
   80e56:	4770      	bx	lr
   80e58:	400e0600 	.word	0x400e0600
   80e5c:	400e0e00 	.word	0x400e0e00
   80e60:	e000e100 	.word	0xe000e100

00080e64 <uart_tx>:
	NVIC_EnableIRQ((IRQn_Type) ID_UART);
	
}

void uart_tx(uint8_t val){
	while(!(UART->UART_SR & UART_SR_TXEMPTY)){}
   80e64:	4b03      	ldr	r3, [pc, #12]	; (80e74 <uart_tx+0x10>)
   80e66:	695b      	ldr	r3, [r3, #20]
   80e68:	f413 7f00 	tst.w	r3, #512	; 0x200
   80e6c:	d0fa      	beq.n	80e64 <uart_tx>
	UART->UART_THR = val;
   80e6e:	4b01      	ldr	r3, [pc, #4]	; (80e74 <uart_tx+0x10>)
   80e70:	61d8      	str	r0, [r3, #28]
   80e72:	4770      	bx	lr
   80e74:	400e0800 	.word	0x400e0800

00080e78 <uart_rx>:
}

uint8_t uart_rx(uint8_t* val){
   80e78:	b508      	push	{r3, lr}
	return pop(&ringBuf, val);
   80e7a:	4601      	mov	r1, r0
   80e7c:	4802      	ldr	r0, [pc, #8]	; (80e88 <uart_rx+0x10>)
   80e7e:	4b03      	ldr	r3, [pc, #12]	; (80e8c <uart_rx+0x14>)
   80e80:	4798      	blx	r3
}
   80e82:	b2c0      	uxtb	r0, r0
   80e84:	bd08      	pop	{r3, pc}
   80e86:	bf00      	nop
   80e88:	20000878 	.word	0x20000878
   80e8c:	00080de1 	.word	0x00080de1

00080e90 <UART_Handler>:
	}
	return r;
}


void UART_Handler(){
   80e90:	b508      	push	{r3, lr}
	
	uint32_t status = UART->UART_SR;
   80e92:	4b0c      	ldr	r3, [pc, #48]	; (80ec4 <UART_Handler+0x34>)
   80e94:	695b      	ldr	r3, [r3, #20]
	
	// Errors: Reset UART
	if(status & (UART_SR_OVRE | UART_SR_FRAME | UART_SR_PARE)){
   80e96:	f013 0fe0 	tst.w	r3, #224	; 0xe0
   80e9a:	d003      	beq.n	80ea4 <UART_Handler+0x14>
		UART->UART_CR = UART_CR_RXEN | UART_CR_TXEN | UART_CR_RSTSTA;
   80e9c:	f44f 71a8 	mov.w	r1, #336	; 0x150
   80ea0:	4a08      	ldr	r2, [pc, #32]	; (80ec4 <UART_Handler+0x34>)
   80ea2:	6011      	str	r1, [r2, #0]
	}
	
	// Receive ready: push to ring buffer
	if(status & UART_SR_RXRDY){
   80ea4:	f013 0f01 	tst.w	r3, #1
   80ea8:	d100      	bne.n	80eac <UART_Handler+0x1c>
   80eaa:	bd08      	pop	{r3, pc}
		if(!push(&ringBuf, UART->UART_RHR & 0xff)){
   80eac:	4b05      	ldr	r3, [pc, #20]	; (80ec4 <UART_Handler+0x34>)
   80eae:	6999      	ldr	r1, [r3, #24]
   80eb0:	b2c9      	uxtb	r1, r1
   80eb2:	4805      	ldr	r0, [pc, #20]	; (80ec8 <UART_Handler+0x38>)
   80eb4:	4b05      	ldr	r3, [pc, #20]	; (80ecc <UART_Handler+0x3c>)
   80eb6:	4798      	blx	r3
   80eb8:	2800      	cmp	r0, #0
   80eba:	d1f6      	bne.n	80eaa <UART_Handler+0x1a>
			printf("UART receive buffer full\n");
   80ebc:	4804      	ldr	r0, [pc, #16]	; (80ed0 <UART_Handler+0x40>)
   80ebe:	4b05      	ldr	r3, [pc, #20]	; (80ed4 <UART_Handler+0x44>)
   80ec0:	4798      	blx	r3
		}
	}
	
}
   80ec2:	e7f2      	b.n	80eaa <UART_Handler+0x1a>
   80ec4:	400e0800 	.word	0x400e0800
   80ec8:	20000878 	.word	0x20000878
   80ecc:	00080db9 	.word	0x00080db9
   80ed0:	00083a74 	.word	0x00083a74
   80ed4:	00082101 	.word	0x00082101

00080ed8 <_sbrk>:
// See https://interrupt.memfault.com/blog/boostrapping-libc-with-newlib

extern int _end;
#include <sys/stat.h>

void *_sbrk(int incr){
   80ed8:	4603      	mov	r3, r0
	static unsigned char *heap = NULL;
	unsigned char *prev_heap;

	if(heap == NULL){
   80eda:	4a08      	ldr	r2, [pc, #32]	; (80efc <_sbrk+0x24>)
   80edc:	f8d2 2410 	ldr.w	r2, [r2, #1040]	; 0x410
   80ee0:	b132      	cbz	r2, 80ef0 <_sbrk+0x18>
		heap = (unsigned char*)&_end;
	}
	prev_heap = heap;
   80ee2:	4a06      	ldr	r2, [pc, #24]	; (80efc <_sbrk+0x24>)
   80ee4:	f8d2 0410 	ldr.w	r0, [r2, #1040]	; 0x410

	heap += incr;
   80ee8:	4403      	add	r3, r0
   80eea:	f8c2 3410 	str.w	r3, [r2, #1040]	; 0x410

	return prev_heap;
}
   80eee:	4770      	bx	lr
		heap = (unsigned char*)&_end;
   80ef0:	4903      	ldr	r1, [pc, #12]	; (80f00 <_sbrk+0x28>)
   80ef2:	4a02      	ldr	r2, [pc, #8]	; (80efc <_sbrk+0x24>)
   80ef4:	f8c2 1410 	str.w	r1, [r2, #1040]	; 0x410
   80ef8:	e7f3      	b.n	80ee2 <_sbrk+0xa>
   80efa:	bf00      	nop
   80efc:	20000878 	.word	0x20000878
   80f00:	20001318 	.word	0x20001318

00080f04 <_close>:

int _close(int file){
	return -1;
}
   80f04:	f04f 30ff 	mov.w	r0, #4294967295
   80f08:	4770      	bx	lr

00080f0a <_fstat>:

int _fstat(int file, struct stat* st){
	st->st_mode = S_IFCHR;
   80f0a:	f44f 5300 	mov.w	r3, #8192	; 0x2000
   80f0e:	604b      	str	r3, [r1, #4]
	return 0;
}
   80f10:	2000      	movs	r0, #0
   80f12:	4770      	bx	lr

00080f14 <_isatty>:

int _isatty(int file){
	return 1;
}
   80f14:	2001      	movs	r0, #1
   80f16:	4770      	bx	lr

00080f18 <_lseek>:

int _lseek(int file, int ptr, int dir){
	return 0;
}
   80f18:	2000      	movs	r0, #0
   80f1a:	4770      	bx	lr

00080f1c <_write>:

int _getpid(void){
	return -1;
}

int _write(int file, char* ptr, int len){
   80f1c:	b570      	push	{r4, r5, r6, lr}
	if(file > 1){
   80f1e:	2801      	cmp	r0, #1
   80f20:	dc0b      	bgt.n	80f3a <_write+0x1e>
   80f22:	460e      	mov	r6, r1
   80f24:	4615      	mov	r5, r2
   80f26:	2400      	movs	r4, #0
   80f28:	e003      	b.n	80f32 <_write+0x16>
		return -1;
	}

	for(int idx = 0; idx < len; idx++){
		uart_tx((uint8_t)ptr[idx]);
   80f2a:	5d30      	ldrb	r0, [r6, r4]
   80f2c:	4b04      	ldr	r3, [pc, #16]	; (80f40 <_write+0x24>)
   80f2e:	4798      	blx	r3
	for(int idx = 0; idx < len; idx++){
   80f30:	3401      	adds	r4, #1
   80f32:	42ac      	cmp	r4, r5
   80f34:	dbf9      	blt.n	80f2a <_write+0xe>
	}
	return len;
}
   80f36:	4628      	mov	r0, r5
   80f38:	bd70      	pop	{r4, r5, r6, pc}
		return -1;
   80f3a:	f04f 35ff 	mov.w	r5, #4294967295
   80f3e:	e7fa      	b.n	80f36 <_write+0x1a>
   80f40:	00080e65 	.word	0x00080e65

00080f44 <_read>:

int _read(int file, char* ptr, int len){
   80f44:	b5f8      	push	{r3, r4, r5, r6, r7, lr}
	if(file > 1){
   80f46:	2801      	cmp	r0, #1
   80f48:	dc0c      	bgt.n	80f64 <_read+0x20>
   80f4a:	4616      	mov	r6, r2
   80f4c:	460f      	mov	r7, r1
   80f4e:	2400      	movs	r4, #0
   80f50:	4625      	mov	r5, r4
		return -1;
	}
	
	int nread = 0;
	for(int idx = 0; idx < len; idx++){
   80f52:	42b4      	cmp	r4, r6
   80f54:	da08      	bge.n	80f68 <_read+0x24>
		int b = uart_rx((uint8_t*)&ptr[idx]);
   80f56:	1938      	adds	r0, r7, r4
   80f58:	4b04      	ldr	r3, [pc, #16]	; (80f6c <_read+0x28>)
   80f5a:	4798      	blx	r3
		nread += b;
   80f5c:	4405      	add	r5, r0
		if(!b){
   80f5e:	b118      	cbz	r0, 80f68 <_read+0x24>
	for(int idx = 0; idx < len; idx++){
   80f60:	3401      	adds	r4, #1
   80f62:	e7f6      	b.n	80f52 <_read+0xe>
		return -1;
   80f64:	f04f 35ff 	mov.w	r5, #4294967295
			return nread;
		}
	}
	return nread;
}
   80f68:	4628      	mov	r0, r5
   80f6a:	bdf8      	pop	{r3, r4, r5, r6, r7, pc}
   80f6c:	00080e79 	.word	0x00080e79

00080f70 <__aeabi_drsub>:
   80f70:	f081 4100 	eor.w	r1, r1, #2147483648	; 0x80000000
   80f74:	e002      	b.n	80f7c <__adddf3>
   80f76:	bf00      	nop

00080f78 <__aeabi_dsub>:
   80f78:	f083 4300 	eor.w	r3, r3, #2147483648	; 0x80000000

00080f7c <__adddf3>:
   80f7c:	b530      	push	{r4, r5, lr}
   80f7e:	ea4f 0441 	mov.w	r4, r1, lsl #1
   80f82:	ea4f 0543 	mov.w	r5, r3, lsl #1
   80f86:	ea94 0f05 	teq	r4, r5
   80f8a:	bf08      	it	eq
   80f8c:	ea90 0f02 	teqeq	r0, r2
   80f90:	bf1f      	itttt	ne
   80f92:	ea54 0c00 	orrsne.w	ip, r4, r0
   80f96:	ea55 0c02 	orrsne.w	ip, r5, r2
   80f9a:	ea7f 5c64 	mvnsne.w	ip, r4, asr #21
   80f9e:	ea7f 5c65 	mvnsne.w	ip, r5, asr #21
   80fa2:	f000 80e2 	beq.w	8116a <__adddf3+0x1ee>
   80fa6:	ea4f 5454 	mov.w	r4, r4, lsr #21
   80faa:	ebd4 5555 	rsbs	r5, r4, r5, lsr #21
   80fae:	bfb8      	it	lt
   80fb0:	426d      	neglt	r5, r5
   80fb2:	dd0c      	ble.n	80fce <__adddf3+0x52>
   80fb4:	442c      	add	r4, r5
   80fb6:	ea80 0202 	eor.w	r2, r0, r2
   80fba:	ea81 0303 	eor.w	r3, r1, r3
   80fbe:	ea82 0000 	eor.w	r0, r2, r0
   80fc2:	ea83 0101 	eor.w	r1, r3, r1
   80fc6:	ea80 0202 	eor.w	r2, r0, r2
   80fca:	ea81 0303 	eor.w	r3, r1, r3
   80fce:	2d36      	cmp	r5, #54	; 0x36
   80fd0:	bf88      	it	hi
   80fd2:	bd30      	pophi	{r4, r5, pc}
   80fd4:	f011 4f00 	tst.w	r1, #2147483648	; 0x80000000
   80fd8:	ea4f 3101 	mov.w	r1, r1, lsl #12
   80fdc:	f44f 1c80 	mov.w	ip, #1048576	; 0x100000
   80fe0:	ea4c 3111 	orr.w	r1, ip, r1, lsr #12
   80fe4:	d002      	beq.n	80fec <__adddf3+0x70>
   80fe6:	4240      	negs	r0, r0
   80fe8:	eb61 0141 	sbc.w	r1, r1, r1, lsl #1
   80fec:	f013 4f00 	tst.w	r3, #2147483648	; 0x80000000
   80ff0:	ea4f 3303 	mov.w	r3, r3, lsl #12
   80ff4:	ea4c 3313 	orr.w	r3, ip, r3, lsr #12
   80ff8:	d002      	beq.n	81000 <__adddf3+0x84>
   80ffa:	4252      	negs	r2, r2
   80ffc:	eb63 0343 	sbc.w	r3, r3, r3, lsl #1
   81000:	ea94 0f05 	teq	r4, r5
   81004:	f000 80a7 	beq.w	81156 <__adddf3+0x1da>
   81008:	f1a4 0401 	sub.w	r4, r4, #1
   8100c:	f1d5 0e20 	rsbs	lr, r5, #32
   81010:	db0d      	blt.n	8102e <__adddf3+0xb2>
   81012:	fa02 fc0e 	lsl.w	ip, r2, lr
   81016:	fa22 f205 	lsr.w	r2, r2, r5
   8101a:	1880      	adds	r0, r0, r2
   8101c:	f141 0100 	adc.w	r1, r1, #0
   81020:	fa03 f20e 	lsl.w	r2, r3, lr
   81024:	1880      	adds	r0, r0, r2
   81026:	fa43 f305 	asr.w	r3, r3, r5
   8102a:	4159      	adcs	r1, r3
   8102c:	e00e      	b.n	8104c <__adddf3+0xd0>
   8102e:	f1a5 0520 	sub.w	r5, r5, #32
   81032:	f10e 0e20 	add.w	lr, lr, #32
   81036:	2a01      	cmp	r2, #1
   81038:	fa03 fc0e 	lsl.w	ip, r3, lr
   8103c:	bf28      	it	cs
   8103e:	f04c 0c02 	orrcs.w	ip, ip, #2
   81042:	fa43 f305 	asr.w	r3, r3, r5
   81046:	18c0      	adds	r0, r0, r3
   81048:	eb51 71e3 	adcs.w	r1, r1, r3, asr #31
   8104c:	f001 4500 	and.w	r5, r1, #2147483648	; 0x80000000
   81050:	d507      	bpl.n	81062 <__adddf3+0xe6>
   81052:	f04f 0e00 	mov.w	lr, #0
   81056:	f1dc 0c00 	rsbs	ip, ip, #0
   8105a:	eb7e 0000 	sbcs.w	r0, lr, r0
   8105e:	eb6e 0101 	sbc.w	r1, lr, r1
   81062:	f5b1 1f80 	cmp.w	r1, #1048576	; 0x100000
   81066:	d31b      	bcc.n	810a0 <__adddf3+0x124>
   81068:	f5b1 1f00 	cmp.w	r1, #2097152	; 0x200000
   8106c:	d30c      	bcc.n	81088 <__adddf3+0x10c>
   8106e:	0849      	lsrs	r1, r1, #1
   81070:	ea5f 0030 	movs.w	r0, r0, rrx
   81074:	ea4f 0c3c 	mov.w	ip, ip, rrx
   81078:	f104 0401 	add.w	r4, r4, #1
   8107c:	ea4f 5244 	mov.w	r2, r4, lsl #21
   81080:	f512 0f80 	cmn.w	r2, #4194304	; 0x400000
   81084:	f080 809a 	bcs.w	811bc <__adddf3+0x240>
   81088:	f1bc 4f00 	cmp.w	ip, #2147483648	; 0x80000000
   8108c:	bf08      	it	eq
   8108e:	ea5f 0c50 	movseq.w	ip, r0, lsr #1
   81092:	f150 0000 	adcs.w	r0, r0, #0
   81096:	eb41 5104 	adc.w	r1, r1, r4, lsl #20
   8109a:	ea41 0105 	orr.w	r1, r1, r5
   8109e:	bd30      	pop	{r4, r5, pc}
   810a0:	ea5f 0c4c 	movs.w	ip, ip, lsl #1
   810a4:	4140      	adcs	r0, r0
   810a6:	eb41 0101 	adc.w	r1, r1, r1
   810aa:	f411 1f80 	tst.w	r1, #1048576	; 0x100000
   810ae:	f1a4 0401 	sub.w	r4, r4, #1
   810b2:	d1e9      	bne.n	81088 <__adddf3+0x10c>
   810b4:	f091 0f00 	teq	r1, #0
   810b8:	bf04      	itt	eq
   810ba:	4601      	moveq	r1, r0
   810bc:	2000      	moveq	r0, #0
   810be:	fab1 f381 	clz	r3, r1
   810c2:	bf08      	it	eq
   810c4:	3320      	addeq	r3, #32
   810c6:	f1a3 030b 	sub.w	r3, r3, #11
   810ca:	f1b3 0220 	subs.w	r2, r3, #32
   810ce:	da0c      	bge.n	810ea <__adddf3+0x16e>
   810d0:	320c      	adds	r2, #12
   810d2:	dd08      	ble.n	810e6 <__adddf3+0x16a>
   810d4:	f102 0c14 	add.w	ip, r2, #20
   810d8:	f1c2 020c 	rsb	r2, r2, #12
   810dc:	fa01 f00c 	lsl.w	r0, r1, ip
   810e0:	fa21 f102 	lsr.w	r1, r1, r2
   810e4:	e00c      	b.n	81100 <__adddf3+0x184>
   810e6:	f102 0214 	add.w	r2, r2, #20
   810ea:	bfd8      	it	le
   810ec:	f1c2 0c20 	rsble	ip, r2, #32
   810f0:	fa01 f102 	lsl.w	r1, r1, r2
   810f4:	fa20 fc0c 	lsr.w	ip, r0, ip
   810f8:	bfdc      	itt	le
   810fa:	ea41 010c 	orrle.w	r1, r1, ip
   810fe:	4090      	lslle	r0, r2
   81100:	1ae4      	subs	r4, r4, r3
   81102:	bfa2      	ittt	ge
   81104:	eb01 5104 	addge.w	r1, r1, r4, lsl #20
   81108:	4329      	orrge	r1, r5
   8110a:	bd30      	popge	{r4, r5, pc}
   8110c:	ea6f 0404 	mvn.w	r4, r4
   81110:	3c1f      	subs	r4, #31
   81112:	da1c      	bge.n	8114e <__adddf3+0x1d2>
   81114:	340c      	adds	r4, #12
   81116:	dc0e      	bgt.n	81136 <__adddf3+0x1ba>
   81118:	f104 0414 	add.w	r4, r4, #20
   8111c:	f1c4 0220 	rsb	r2, r4, #32
   81120:	fa20 f004 	lsr.w	r0, r0, r4
   81124:	fa01 f302 	lsl.w	r3, r1, r2
   81128:	ea40 0003 	orr.w	r0, r0, r3
   8112c:	fa21 f304 	lsr.w	r3, r1, r4
   81130:	ea45 0103 	orr.w	r1, r5, r3
   81134:	bd30      	pop	{r4, r5, pc}
   81136:	f1c4 040c 	rsb	r4, r4, #12
   8113a:	f1c4 0220 	rsb	r2, r4, #32
   8113e:	fa20 f002 	lsr.w	r0, r0, r2
   81142:	fa01 f304 	lsl.w	r3, r1, r4
   81146:	ea40 0003 	orr.w	r0, r0, r3
   8114a:	4629      	mov	r1, r5
   8114c:	bd30      	pop	{r4, r5, pc}
   8114e:	fa21 f004 	lsr.w	r0, r1, r4
   81152:	4629      	mov	r1, r5
   81154:	bd30      	pop	{r4, r5, pc}
   81156:	f094 0f00 	teq	r4, #0
   8115a:	f483 1380 	eor.w	r3, r3, #1048576	; 0x100000
   8115e:	bf06      	itte	eq
   81160:	f481 1180 	eoreq.w	r1, r1, #1048576	; 0x100000
   81164:	3401      	addeq	r4, #1
   81166:	3d01      	subne	r5, #1
   81168:	e74e      	b.n	81008 <__adddf3+0x8c>
   8116a:	ea7f 5c64 	mvns.w	ip, r4, asr #21
   8116e:	bf18      	it	ne
   81170:	ea7f 5c65 	mvnsne.w	ip, r5, asr #21
   81174:	d029      	beq.n	811ca <__adddf3+0x24e>
   81176:	ea94 0f05 	teq	r4, r5
   8117a:	bf08      	it	eq
   8117c:	ea90 0f02 	teqeq	r0, r2
   81180:	d005      	beq.n	8118e <__adddf3+0x212>
   81182:	ea54 0c00 	orrs.w	ip, r4, r0
   81186:	bf04      	itt	eq
   81188:	4619      	moveq	r1, r3
   8118a:	4610      	moveq	r0, r2
   8118c:	bd30      	pop	{r4, r5, pc}
   8118e:	ea91 0f03 	teq	r1, r3
   81192:	bf1e      	ittt	ne
   81194:	2100      	movne	r1, #0
   81196:	2000      	movne	r0, #0
   81198:	bd30      	popne	{r4, r5, pc}
   8119a:	ea5f 5c54 	movs.w	ip, r4, lsr #21
   8119e:	d105      	bne.n	811ac <__adddf3+0x230>
   811a0:	0040      	lsls	r0, r0, #1
   811a2:	4149      	adcs	r1, r1
   811a4:	bf28      	it	cs
   811a6:	f041 4100 	orrcs.w	r1, r1, #2147483648	; 0x80000000
   811aa:	bd30      	pop	{r4, r5, pc}
   811ac:	f514 0480 	adds.w	r4, r4, #4194304	; 0x400000
   811b0:	bf3c      	itt	cc
   811b2:	f501 1180 	addcc.w	r1, r1, #1048576	; 0x100000
   811b6:	bd30      	popcc	{r4, r5, pc}
   811b8:	f001 4500 	and.w	r5, r1, #2147483648	; 0x80000000
   811bc:	f045 41fe 	orr.w	r1, r5, #2130706432	; 0x7f000000
   811c0:	f441 0170 	orr.w	r1, r1, #15728640	; 0xf00000
   811c4:	f04f 0000 	mov.w	r0, #0
   811c8:	bd30      	pop	{r4, r5, pc}
   811ca:	ea7f 5c64 	mvns.w	ip, r4, asr #21
   811ce:	bf1a      	itte	ne
   811d0:	4619      	movne	r1, r3
   811d2:	4610      	movne	r0, r2
   811d4:	ea7f 5c65 	mvnseq.w	ip, r5, asr #21
   811d8:	bf1c      	itt	ne
   811da:	460b      	movne	r3, r1
   811dc:	4602      	movne	r2, r0
   811de:	ea50 3401 	orrs.w	r4, r0, r1, lsl #12
   811e2:	bf06      	itte	eq
   811e4:	ea52 3503 	orrseq.w	r5, r2, r3, lsl #12
   811e8:	ea91 0f03 	teqeq	r1, r3
   811ec:	f441 2100 	orrne.w	r1, r1, #524288	; 0x80000
   811f0:	bd30      	pop	{r4, r5, pc}
   811f2:	bf00      	nop

000811f4 <__aeabi_ui2d>:
   811f4:	f090 0f00 	teq	r0, #0
   811f8:	bf04      	itt	eq
   811fa:	2100      	moveq	r1, #0
   811fc:	4770      	bxeq	lr
   811fe:	b530      	push	{r4, r5, lr}
   81200:	f44f 6480 	mov.w	r4, #1024	; 0x400
   81204:	f104 0432 	add.w	r4, r4, #50	; 0x32
   81208:	f04f 0500 	mov.w	r5, #0
   8120c:	f04f 0100 	mov.w	r1, #0
   81210:	e750      	b.n	810b4 <__adddf3+0x138>
   81212:	bf00      	nop

00081214 <__aeabi_i2d>:
   81214:	f090 0f00 	teq	r0, #0
   81218:	bf04      	itt	eq
   8121a:	2100      	moveq	r1, #0
   8121c:	4770      	bxeq	lr
   8121e:	b530      	push	{r4, r5, lr}
   81220:	f44f 6480 	mov.w	r4, #1024	; 0x400
   81224:	f104 0432 	add.w	r4, r4, #50	; 0x32
   81228:	f010 4500 	ands.w	r5, r0, #2147483648	; 0x80000000
   8122c:	bf48      	it	mi
   8122e:	4240      	negmi	r0, r0
   81230:	f04f 0100 	mov.w	r1, #0
   81234:	e73e      	b.n	810b4 <__adddf3+0x138>
   81236:	bf00      	nop

00081238 <__aeabi_f2d>:
   81238:	0042      	lsls	r2, r0, #1
   8123a:	ea4f 01e2 	mov.w	r1, r2, asr #3
   8123e:	ea4f 0131 	mov.w	r1, r1, rrx
   81242:	ea4f 7002 	mov.w	r0, r2, lsl #28
   81246:	bf1f      	itttt	ne
   81248:	f012 437f 	andsne.w	r3, r2, #4278190080	; 0xff000000
   8124c:	f093 4f7f 	teqne	r3, #4278190080	; 0xff000000
   81250:	f081 5160 	eorne.w	r1, r1, #939524096	; 0x38000000
   81254:	4770      	bxne	lr
   81256:	f092 0f00 	teq	r2, #0
   8125a:	bf14      	ite	ne
   8125c:	f093 4f7f 	teqne	r3, #4278190080	; 0xff000000
   81260:	4770      	bxeq	lr
   81262:	b530      	push	{r4, r5, lr}
   81264:	f44f 7460 	mov.w	r4, #896	; 0x380
   81268:	f001 4500 	and.w	r5, r1, #2147483648	; 0x80000000
   8126c:	f021 4100 	bic.w	r1, r1, #2147483648	; 0x80000000
   81270:	e720      	b.n	810b4 <__adddf3+0x138>
   81272:	bf00      	nop

00081274 <__aeabi_ul2d>:
   81274:	ea50 0201 	orrs.w	r2, r0, r1
   81278:	bf08      	it	eq
   8127a:	4770      	bxeq	lr
   8127c:	b530      	push	{r4, r5, lr}
   8127e:	f04f 0500 	mov.w	r5, #0
   81282:	e00a      	b.n	8129a <__aeabi_l2d+0x16>

00081284 <__aeabi_l2d>:
   81284:	ea50 0201 	orrs.w	r2, r0, r1
   81288:	bf08      	it	eq
   8128a:	4770      	bxeq	lr
   8128c:	b530      	push	{r4, r5, lr}
   8128e:	f011 4500 	ands.w	r5, r1, #2147483648	; 0x80000000
   81292:	d502      	bpl.n	8129a <__aeabi_l2d+0x16>
   81294:	4240      	negs	r0, r0
   81296:	eb61 0141 	sbc.w	r1, r1, r1, lsl #1
   8129a:	f44f 6480 	mov.w	r4, #1024	; 0x400
   8129e:	f104 0432 	add.w	r4, r4, #50	; 0x32
   812a2:	ea5f 5c91 	movs.w	ip, r1, lsr #22
   812a6:	f43f aedc 	beq.w	81062 <__adddf3+0xe6>
   812aa:	f04f 0203 	mov.w	r2, #3
   812ae:	ea5f 0cdc 	movs.w	ip, ip, lsr #3
   812b2:	bf18      	it	ne
   812b4:	3203      	addne	r2, #3
   812b6:	ea5f 0cdc 	movs.w	ip, ip, lsr #3
   812ba:	bf18      	it	ne
   812bc:	3203      	addne	r2, #3
   812be:	eb02 02dc 	add.w	r2, r2, ip, lsr #3
   812c2:	f1c2 0320 	rsb	r3, r2, #32
   812c6:	fa00 fc03 	lsl.w	ip, r0, r3
   812ca:	fa20 f002 	lsr.w	r0, r0, r2
   812ce:	fa01 fe03 	lsl.w	lr, r1, r3
   812d2:	ea40 000e 	orr.w	r0, r0, lr
   812d6:	fa21 f102 	lsr.w	r1, r1, r2
   812da:	4414      	add	r4, r2
   812dc:	e6c1      	b.n	81062 <__adddf3+0xe6>
   812de:	bf00      	nop

000812e0 <__aeabi_dmul>:
   812e0:	b570      	push	{r4, r5, r6, lr}
   812e2:	f04f 0cff 	mov.w	ip, #255	; 0xff
   812e6:	f44c 6ce0 	orr.w	ip, ip, #1792	; 0x700
   812ea:	ea1c 5411 	ands.w	r4, ip, r1, lsr #20
   812ee:	bf1d      	ittte	ne
   812f0:	ea1c 5513 	andsne.w	r5, ip, r3, lsr #20
   812f4:	ea94 0f0c 	teqne	r4, ip
   812f8:	ea95 0f0c 	teqne	r5, ip
   812fc:	f000 f8de 	bleq	814bc <__aeabi_dmul+0x1dc>
   81300:	442c      	add	r4, r5
   81302:	ea81 0603 	eor.w	r6, r1, r3
   81306:	ea21 514c 	bic.w	r1, r1, ip, lsl #21
   8130a:	ea23 534c 	bic.w	r3, r3, ip, lsl #21
   8130e:	ea50 3501 	orrs.w	r5, r0, r1, lsl #12
   81312:	bf18      	it	ne
   81314:	ea52 3503 	orrsne.w	r5, r2, r3, lsl #12
   81318:	f441 1180 	orr.w	r1, r1, #1048576	; 0x100000
   8131c:	f443 1380 	orr.w	r3, r3, #1048576	; 0x100000
   81320:	d038      	beq.n	81394 <__aeabi_dmul+0xb4>
   81322:	fba0 ce02 	umull	ip, lr, r0, r2
   81326:	f04f 0500 	mov.w	r5, #0
   8132a:	fbe1 e502 	umlal	lr, r5, r1, r2
   8132e:	f006 4200 	and.w	r2, r6, #2147483648	; 0x80000000
   81332:	fbe0 e503 	umlal	lr, r5, r0, r3
   81336:	f04f 0600 	mov.w	r6, #0
   8133a:	fbe1 5603 	umlal	r5, r6, r1, r3
   8133e:	f09c 0f00 	teq	ip, #0
   81342:	bf18      	it	ne
   81344:	f04e 0e01 	orrne.w	lr, lr, #1
   81348:	f1a4 04ff 	sub.w	r4, r4, #255	; 0xff
   8134c:	f5b6 7f00 	cmp.w	r6, #512	; 0x200
   81350:	f564 7440 	sbc.w	r4, r4, #768	; 0x300
   81354:	d204      	bcs.n	81360 <__aeabi_dmul+0x80>
   81356:	ea5f 0e4e 	movs.w	lr, lr, lsl #1
   8135a:	416d      	adcs	r5, r5
   8135c:	eb46 0606 	adc.w	r6, r6, r6
   81360:	ea42 21c6 	orr.w	r1, r2, r6, lsl #11
   81364:	ea41 5155 	orr.w	r1, r1, r5, lsr #21
   81368:	ea4f 20c5 	mov.w	r0, r5, lsl #11
   8136c:	ea40 505e 	orr.w	r0, r0, lr, lsr #21
   81370:	ea4f 2ece 	mov.w	lr, lr, lsl #11
   81374:	f1b4 0cfd 	subs.w	ip, r4, #253	; 0xfd
   81378:	bf88      	it	hi
   8137a:	f5bc 6fe0 	cmphi.w	ip, #1792	; 0x700
   8137e:	d81e      	bhi.n	813be <__aeabi_dmul+0xde>
   81380:	f1be 4f00 	cmp.w	lr, #2147483648	; 0x80000000
   81384:	bf08      	it	eq
   81386:	ea5f 0e50 	movseq.w	lr, r0, lsr #1
   8138a:	f150 0000 	adcs.w	r0, r0, #0
   8138e:	eb41 5104 	adc.w	r1, r1, r4, lsl #20
   81392:	bd70      	pop	{r4, r5, r6, pc}
   81394:	f006 4600 	and.w	r6, r6, #2147483648	; 0x80000000
   81398:	ea46 0101 	orr.w	r1, r6, r1
   8139c:	ea40 0002 	orr.w	r0, r0, r2
   813a0:	ea81 0103 	eor.w	r1, r1, r3
   813a4:	ebb4 045c 	subs.w	r4, r4, ip, lsr #1
   813a8:	bfc2      	ittt	gt
   813aa:	ebd4 050c 	rsbsgt	r5, r4, ip
   813ae:	ea41 5104 	orrgt.w	r1, r1, r4, lsl #20
   813b2:	bd70      	popgt	{r4, r5, r6, pc}
   813b4:	f441 1180 	orr.w	r1, r1, #1048576	; 0x100000
   813b8:	f04f 0e00 	mov.w	lr, #0
   813bc:	3c01      	subs	r4, #1
   813be:	f300 80ab 	bgt.w	81518 <__aeabi_dmul+0x238>
   813c2:	f114 0f36 	cmn.w	r4, #54	; 0x36
   813c6:	bfde      	ittt	le
   813c8:	2000      	movle	r0, #0
   813ca:	f001 4100 	andle.w	r1, r1, #2147483648	; 0x80000000
   813ce:	bd70      	pople	{r4, r5, r6, pc}
   813d0:	f1c4 0400 	rsb	r4, r4, #0
   813d4:	3c20      	subs	r4, #32
   813d6:	da35      	bge.n	81444 <__aeabi_dmul+0x164>
   813d8:	340c      	adds	r4, #12
   813da:	dc1b      	bgt.n	81414 <__aeabi_dmul+0x134>
   813dc:	f104 0414 	add.w	r4, r4, #20
   813e0:	f1c4 0520 	rsb	r5, r4, #32
   813e4:	fa00 f305 	lsl.w	r3, r0, r5
   813e8:	fa20 f004 	lsr.w	r0, r0, r4
   813ec:	fa01 f205 	lsl.w	r2, r1, r5
   813f0:	ea40 0002 	orr.w	r0, r0, r2
   813f4:	f001 4200 	and.w	r2, r1, #2147483648	; 0x80000000
   813f8:	f021 4100 	bic.w	r1, r1, #2147483648	; 0x80000000
   813fc:	eb10 70d3 	adds.w	r0, r0, r3, lsr #31
   81400:	fa21 f604 	lsr.w	r6, r1, r4
   81404:	eb42 0106 	adc.w	r1, r2, r6
   81408:	ea5e 0e43 	orrs.w	lr, lr, r3, lsl #1
   8140c:	bf08      	it	eq
   8140e:	ea20 70d3 	biceq.w	r0, r0, r3, lsr #31
   81412:	bd70      	pop	{r4, r5, r6, pc}
   81414:	f1c4 040c 	rsb	r4, r4, #12
   81418:	f1c4 0520 	rsb	r5, r4, #32
   8141c:	fa00 f304 	lsl.w	r3, r0, r4
   81420:	fa20 f005 	lsr.w	r0, r0, r5
   81424:	fa01 f204 	lsl.w	r2, r1, r4
   81428:	ea40 0002 	orr.w	r0, r0, r2
   8142c:	f001 4100 	and.w	r1, r1, #2147483648	; 0x80000000
   81430:	eb10 70d3 	adds.w	r0, r0, r3, lsr #31
   81434:	f141 0100 	adc.w	r1, r1, #0
   81438:	ea5e 0e43 	orrs.w	lr, lr, r3, lsl #1
   8143c:	bf08      	it	eq
   8143e:	ea20 70d3 	biceq.w	r0, r0, r3, lsr #31
   81442:	bd70      	pop	{r4, r5, r6, pc}
   81444:	f1c4 0520 	rsb	r5, r4, #32
   81448:	fa00 f205 	lsl.w	r2, r0, r5
   8144c:	ea4e 0e02 	orr.w	lr, lr, r2
   81450:	fa20 f304 	lsr.w	r3, r0, r4
   81454:	fa01 f205 	lsl.w	r2, r1, r5
   81458:	ea43 0302 	orr.w	r3, r3, r2
   8145c:	fa21 f004 	lsr.w	r0, r1, r4
   81460:	f001 4100 	and.w	r1, r1, #2147483648	; 0x80000000
   81464:	fa21 f204 	lsr.w	r2, r1, r4
   81468:	ea20 0002 	bic.w	r0, r0, r2
   8146c:	eb00 70d3 	add.w	r0, r0, r3, lsr #31
   81470:	ea5e 0e43 	orrs.w	lr, lr, r3, lsl #1
   81474:	bf08      	it	eq
   81476:	ea20 70d3 	biceq.w	r0, r0, r3, lsr #31
   8147a:	bd70      	pop	{r4, r5, r6, pc}
   8147c:	f094 0f00 	teq	r4, #0
   81480:	d10f      	bne.n	814a2 <__aeabi_dmul+0x1c2>
   81482:	f001 4600 	and.w	r6, r1, #2147483648	; 0x80000000
   81486:	0040      	lsls	r0, r0, #1
   81488:	eb41 0101 	adc.w	r1, r1, r1
   8148c:	f411 1f80 	tst.w	r1, #1048576	; 0x100000
   81490:	bf08      	it	eq
   81492:	3c01      	subeq	r4, #1
   81494:	d0f7      	beq.n	81486 <__aeabi_dmul+0x1a6>
   81496:	ea41 0106 	orr.w	r1, r1, r6
   8149a:	f095 0f00 	teq	r5, #0
   8149e:	bf18      	it	ne
   814a0:	4770      	bxne	lr
   814a2:	f003 4600 	and.w	r6, r3, #2147483648	; 0x80000000
   814a6:	0052      	lsls	r2, r2, #1
   814a8:	eb43 0303 	adc.w	r3, r3, r3
   814ac:	f413 1f80 	tst.w	r3, #1048576	; 0x100000
   814b0:	bf08      	it	eq
   814b2:	3d01      	subeq	r5, #1
   814b4:	d0f7      	beq.n	814a6 <__aeabi_dmul+0x1c6>
   814b6:	ea43 0306 	orr.w	r3, r3, r6
   814ba:	4770      	bx	lr
   814bc:	ea94 0f0c 	teq	r4, ip
   814c0:	ea0c 5513 	and.w	r5, ip, r3, lsr #20
   814c4:	bf18      	it	ne
   814c6:	ea95 0f0c 	teqne	r5, ip
   814ca:	d00c      	beq.n	814e6 <__aeabi_dmul+0x206>
   814cc:	ea50 0641 	orrs.w	r6, r0, r1, lsl #1
   814d0:	bf18      	it	ne
   814d2:	ea52 0643 	orrsne.w	r6, r2, r3, lsl #1
   814d6:	d1d1      	bne.n	8147c <__aeabi_dmul+0x19c>
   814d8:	ea81 0103 	eor.w	r1, r1, r3
   814dc:	f001 4100 	and.w	r1, r1, #2147483648	; 0x80000000
   814e0:	f04f 0000 	mov.w	r0, #0
   814e4:	bd70      	pop	{r4, r5, r6, pc}
   814e6:	ea50 0641 	orrs.w	r6, r0, r1, lsl #1
   814ea:	bf06      	itte	eq
   814ec:	4610      	moveq	r0, r2
   814ee:	4619      	moveq	r1, r3
   814f0:	ea52 0643 	orrsne.w	r6, r2, r3, lsl #1
   814f4:	d019      	beq.n	8152a <__aeabi_dmul+0x24a>
   814f6:	ea94 0f0c 	teq	r4, ip
   814fa:	d102      	bne.n	81502 <__aeabi_dmul+0x222>
   814fc:	ea50 3601 	orrs.w	r6, r0, r1, lsl #12
   81500:	d113      	bne.n	8152a <__aeabi_dmul+0x24a>
   81502:	ea95 0f0c 	teq	r5, ip
   81506:	d105      	bne.n	81514 <__aeabi_dmul+0x234>
   81508:	ea52 3603 	orrs.w	r6, r2, r3, lsl #12
   8150c:	bf1c      	itt	ne
   8150e:	4610      	movne	r0, r2
   81510:	4619      	movne	r1, r3
   81512:	d10a      	bne.n	8152a <__aeabi_dmul+0x24a>
   81514:	ea81 0103 	eor.w	r1, r1, r3
   81518:	f001 4100 	and.w	r1, r1, #2147483648	; 0x80000000
   8151c:	f041 41fe 	orr.w	r1, r1, #2130706432	; 0x7f000000
   81520:	f441 0170 	orr.w	r1, r1, #15728640	; 0xf00000
   81524:	f04f 0000 	mov.w	r0, #0
   81528:	bd70      	pop	{r4, r5, r6, pc}
   8152a:	f041 41fe 	orr.w	r1, r1, #2130706432	; 0x7f000000
   8152e:	f441 0178 	orr.w	r1, r1, #16252928	; 0xf80000
   81532:	bd70      	pop	{r4, r5, r6, pc}

00081534 <__aeabi_ddiv>:
   81534:	b570      	push	{r4, r5, r6, lr}
   81536:	f04f 0cff 	mov.w	ip, #255	; 0xff
   8153a:	f44c 6ce0 	orr.w	ip, ip, #1792	; 0x700
   8153e:	ea1c 5411 	ands.w	r4, ip, r1, lsr #20
   81542:	bf1d      	ittte	ne
   81544:	ea1c 5513 	andsne.w	r5, ip, r3, lsr #20
   81548:	ea94 0f0c 	teqne	r4, ip
   8154c:	ea95 0f0c 	teqne	r5, ip
   81550:	f000 f8a7 	bleq	816a2 <__aeabi_ddiv+0x16e>
   81554:	eba4 0405 	sub.w	r4, r4, r5
   81558:	ea81 0e03 	eor.w	lr, r1, r3
   8155c:	ea52 3503 	orrs.w	r5, r2, r3, lsl #12
   81560:	ea4f 3101 	mov.w	r1, r1, lsl #12
   81564:	f000 8088 	beq.w	81678 <__aeabi_ddiv+0x144>
   81568:	ea4f 3303 	mov.w	r3, r3, lsl #12
   8156c:	f04f 5580 	mov.w	r5, #268435456	; 0x10000000
   81570:	ea45 1313 	orr.w	r3, r5, r3, lsr #4
   81574:	ea43 6312 	orr.w	r3, r3, r2, lsr #24
   81578:	ea4f 2202 	mov.w	r2, r2, lsl #8
   8157c:	ea45 1511 	orr.w	r5, r5, r1, lsr #4
   81580:	ea45 6510 	orr.w	r5, r5, r0, lsr #24
   81584:	ea4f 2600 	mov.w	r6, r0, lsl #8
   81588:	f00e 4100 	and.w	r1, lr, #2147483648	; 0x80000000
   8158c:	429d      	cmp	r5, r3
   8158e:	bf08      	it	eq
   81590:	4296      	cmpeq	r6, r2
   81592:	f144 04fd 	adc.w	r4, r4, #253	; 0xfd
   81596:	f504 7440 	add.w	r4, r4, #768	; 0x300
   8159a:	d202      	bcs.n	815a2 <__aeabi_ddiv+0x6e>
   8159c:	085b      	lsrs	r3, r3, #1
   8159e:	ea4f 0232 	mov.w	r2, r2, rrx
   815a2:	1ab6      	subs	r6, r6, r2
   815a4:	eb65 0503 	sbc.w	r5, r5, r3
   815a8:	085b      	lsrs	r3, r3, #1
   815aa:	ea4f 0232 	mov.w	r2, r2, rrx
   815ae:	f44f 1080 	mov.w	r0, #1048576	; 0x100000
   815b2:	f44f 2c00 	mov.w	ip, #524288	; 0x80000
   815b6:	ebb6 0e02 	subs.w	lr, r6, r2
   815ba:	eb75 0e03 	sbcs.w	lr, r5, r3
   815be:	bf22      	ittt	cs
   815c0:	1ab6      	subcs	r6, r6, r2
   815c2:	4675      	movcs	r5, lr
   815c4:	ea40 000c 	orrcs.w	r0, r0, ip
   815c8:	085b      	lsrs	r3, r3, #1
   815ca:	ea4f 0232 	mov.w	r2, r2, rrx
   815ce:	ebb6 0e02 	subs.w	lr, r6, r2
   815d2:	eb75 0e03 	sbcs.w	lr, r5, r3
   815d6:	bf22      	ittt	cs
   815d8:	1ab6      	subcs	r6, r6, r2
   815da:	4675      	movcs	r5, lr
   815dc:	ea40 005c 	orrcs.w	r0, r0, ip, lsr #1
   815e0:	085b      	lsrs	r3, r3, #1
   815e2:	ea4f 0232 	mov.w	r2, r2, rrx
   815e6:	ebb6 0e02 	subs.w	lr, r6, r2
   815ea:	eb75 0e03 	sbcs.w	lr, r5, r3
   815ee:	bf22      	ittt	cs
   815f0:	1ab6      	subcs	r6, r6, r2
   815f2:	4675      	movcs	r5, lr
   815f4:	ea40 009c 	orrcs.w	r0, r0, ip, lsr #2
   815f8:	085b      	lsrs	r3, r3, #1
   815fa:	ea4f 0232 	mov.w	r2, r2, rrx
   815fe:	ebb6 0e02 	subs.w	lr, r6, r2
   81602:	eb75 0e03 	sbcs.w	lr, r5, r3
   81606:	bf22      	ittt	cs
   81608:	1ab6      	subcs	r6, r6, r2
   8160a:	4675      	movcs	r5, lr
   8160c:	ea40 00dc 	orrcs.w	r0, r0, ip, lsr #3
   81610:	ea55 0e06 	orrs.w	lr, r5, r6
   81614:	d018      	beq.n	81648 <__aeabi_ddiv+0x114>
   81616:	ea4f 1505 	mov.w	r5, r5, lsl #4
   8161a:	ea45 7516 	orr.w	r5, r5, r6, lsr #28
   8161e:	ea4f 1606 	mov.w	r6, r6, lsl #4
   81622:	ea4f 03c3 	mov.w	r3, r3, lsl #3
   81626:	ea43 7352 	orr.w	r3, r3, r2, lsr #29
   8162a:	ea4f 02c2 	mov.w	r2, r2, lsl #3
   8162e:	ea5f 1c1c 	movs.w	ip, ip, lsr #4
   81632:	d1c0      	bne.n	815b6 <__aeabi_ddiv+0x82>
   81634:	f411 1f80 	tst.w	r1, #1048576	; 0x100000
   81638:	d10b      	bne.n	81652 <__aeabi_ddiv+0x11e>
   8163a:	ea41 0100 	orr.w	r1, r1, r0
   8163e:	f04f 0000 	mov.w	r0, #0
   81642:	f04f 4c00 	mov.w	ip, #2147483648	; 0x80000000
   81646:	e7b6      	b.n	815b6 <__aeabi_ddiv+0x82>
   81648:	f411 1f80 	tst.w	r1, #1048576	; 0x100000
   8164c:	bf04      	itt	eq
   8164e:	4301      	orreq	r1, r0
   81650:	2000      	moveq	r0, #0
   81652:	f1b4 0cfd 	subs.w	ip, r4, #253	; 0xfd
   81656:	bf88      	it	hi
   81658:	f5bc 6fe0 	cmphi.w	ip, #1792	; 0x700
   8165c:	f63f aeaf 	bhi.w	813be <__aeabi_dmul+0xde>
   81660:	ebb5 0c03 	subs.w	ip, r5, r3
   81664:	bf04      	itt	eq
   81666:	ebb6 0c02 	subseq.w	ip, r6, r2
   8166a:	ea5f 0c50 	movseq.w	ip, r0, lsr #1
   8166e:	f150 0000 	adcs.w	r0, r0, #0
   81672:	eb41 5104 	adc.w	r1, r1, r4, lsl #20
   81676:	bd70      	pop	{r4, r5, r6, pc}
   81678:	f00e 4e00 	and.w	lr, lr, #2147483648	; 0x80000000
   8167c:	ea4e 3111 	orr.w	r1, lr, r1, lsr #12
   81680:	eb14 045c 	adds.w	r4, r4, ip, lsr #1
   81684:	bfc2      	ittt	gt
   81686:	ebd4 050c 	rsbsgt	r5, r4, ip
   8168a:	ea41 5104 	orrgt.w	r1, r1, r4, lsl #20
   8168e:	bd70      	popgt	{r4, r5, r6, pc}
   81690:	f441 1180 	orr.w	r1, r1, #1048576	; 0x100000
   81694:	f04f 0e00 	mov.w	lr, #0
   81698:	3c01      	subs	r4, #1
   8169a:	e690      	b.n	813be <__aeabi_dmul+0xde>
   8169c:	ea45 0e06 	orr.w	lr, r5, r6
   816a0:	e68d      	b.n	813be <__aeabi_dmul+0xde>
   816a2:	ea0c 5513 	and.w	r5, ip, r3, lsr #20
   816a6:	ea94 0f0c 	teq	r4, ip
   816aa:	bf08      	it	eq
   816ac:	ea95 0f0c 	teqeq	r5, ip
   816b0:	f43f af3b 	beq.w	8152a <__aeabi_dmul+0x24a>
   816b4:	ea94 0f0c 	teq	r4, ip
   816b8:	d10a      	bne.n	816d0 <__aeabi_ddiv+0x19c>
   816ba:	ea50 3401 	orrs.w	r4, r0, r1, lsl #12
   816be:	f47f af34 	bne.w	8152a <__aeabi_dmul+0x24a>
   816c2:	ea95 0f0c 	teq	r5, ip
   816c6:	f47f af25 	bne.w	81514 <__aeabi_dmul+0x234>
   816ca:	4610      	mov	r0, r2
   816cc:	4619      	mov	r1, r3
   816ce:	e72c      	b.n	8152a <__aeabi_dmul+0x24a>
   816d0:	ea95 0f0c 	teq	r5, ip
   816d4:	d106      	bne.n	816e4 <__aeabi_ddiv+0x1b0>
   816d6:	ea52 3503 	orrs.w	r5, r2, r3, lsl #12
   816da:	f43f aefd 	beq.w	814d8 <__aeabi_dmul+0x1f8>
   816de:	4610      	mov	r0, r2
   816e0:	4619      	mov	r1, r3
   816e2:	e722      	b.n	8152a <__aeabi_dmul+0x24a>
   816e4:	ea50 0641 	orrs.w	r6, r0, r1, lsl #1
   816e8:	bf18      	it	ne
   816ea:	ea52 0643 	orrsne.w	r6, r2, r3, lsl #1
   816ee:	f47f aec5 	bne.w	8147c <__aeabi_dmul+0x19c>
   816f2:	ea50 0441 	orrs.w	r4, r0, r1, lsl #1
   816f6:	f47f af0d 	bne.w	81514 <__aeabi_dmul+0x234>
   816fa:	ea52 0543 	orrs.w	r5, r2, r3, lsl #1
   816fe:	f47f aeeb 	bne.w	814d8 <__aeabi_dmul+0x1f8>
   81702:	e712      	b.n	8152a <__aeabi_dmul+0x24a>

00081704 <__gedf2>:
   81704:	f04f 3cff 	mov.w	ip, #4294967295
   81708:	e006      	b.n	81718 <__cmpdf2+0x4>
   8170a:	bf00      	nop

0008170c <__ledf2>:
   8170c:	f04f 0c01 	mov.w	ip, #1
   81710:	e002      	b.n	81718 <__cmpdf2+0x4>
   81712:	bf00      	nop

00081714 <__cmpdf2>:
   81714:	f04f 0c01 	mov.w	ip, #1
   81718:	f84d cd04 	str.w	ip, [sp, #-4]!
   8171c:	ea4f 0c41 	mov.w	ip, r1, lsl #1
   81720:	ea7f 5c6c 	mvns.w	ip, ip, asr #21
   81724:	ea4f 0c43 	mov.w	ip, r3, lsl #1
   81728:	bf18      	it	ne
   8172a:	ea7f 5c6c 	mvnsne.w	ip, ip, asr #21
   8172e:	d01b      	beq.n	81768 <__cmpdf2+0x54>
   81730:	b001      	add	sp, #4
   81732:	ea50 0c41 	orrs.w	ip, r0, r1, lsl #1
   81736:	bf0c      	ite	eq
   81738:	ea52 0c43 	orrseq.w	ip, r2, r3, lsl #1
   8173c:	ea91 0f03 	teqne	r1, r3
   81740:	bf02      	ittt	eq
   81742:	ea90 0f02 	teqeq	r0, r2
   81746:	2000      	moveq	r0, #0
   81748:	4770      	bxeq	lr
   8174a:	f110 0f00 	cmn.w	r0, #0
   8174e:	ea91 0f03 	teq	r1, r3
   81752:	bf58      	it	pl
   81754:	4299      	cmppl	r1, r3
   81756:	bf08      	it	eq
   81758:	4290      	cmpeq	r0, r2
   8175a:	bf2c      	ite	cs
   8175c:	17d8      	asrcs	r0, r3, #31
   8175e:	ea6f 70e3 	mvncc.w	r0, r3, asr #31
   81762:	f040 0001 	orr.w	r0, r0, #1
   81766:	4770      	bx	lr
   81768:	ea4f 0c41 	mov.w	ip, r1, lsl #1
   8176c:	ea7f 5c6c 	mvns.w	ip, ip, asr #21
   81770:	d102      	bne.n	81778 <__cmpdf2+0x64>
   81772:	ea50 3c01 	orrs.w	ip, r0, r1, lsl #12
   81776:	d107      	bne.n	81788 <__cmpdf2+0x74>
   81778:	ea4f 0c43 	mov.w	ip, r3, lsl #1
   8177c:	ea7f 5c6c 	mvns.w	ip, ip, asr #21
   81780:	d1d6      	bne.n	81730 <__cmpdf2+0x1c>
   81782:	ea52 3c03 	orrs.w	ip, r2, r3, lsl #12
   81786:	d0d3      	beq.n	81730 <__cmpdf2+0x1c>
   81788:	f85d 0b04 	ldr.w	r0, [sp], #4
   8178c:	4770      	bx	lr
   8178e:	bf00      	nop

00081790 <__aeabi_cdrcmple>:
   81790:	4684      	mov	ip, r0
   81792:	4610      	mov	r0, r2
   81794:	4662      	mov	r2, ip
   81796:	468c      	mov	ip, r1
   81798:	4619      	mov	r1, r3
   8179a:	4663      	mov	r3, ip
   8179c:	e000      	b.n	817a0 <__aeabi_cdcmpeq>
   8179e:	bf00      	nop

000817a0 <__aeabi_cdcmpeq>:
   817a0:	b501      	push	{r0, lr}
   817a2:	f7ff ffb7 	bl	81714 <__cmpdf2>
   817a6:	2800      	cmp	r0, #0
   817a8:	bf48      	it	mi
   817aa:	f110 0f00 	cmnmi.w	r0, #0
   817ae:	bd01      	pop	{r0, pc}

000817b0 <__aeabi_dcmpeq>:
   817b0:	f84d ed08 	str.w	lr, [sp, #-8]!
   817b4:	f7ff fff4 	bl	817a0 <__aeabi_cdcmpeq>
   817b8:	bf0c      	ite	eq
   817ba:	2001      	moveq	r0, #1
   817bc:	2000      	movne	r0, #0
   817be:	f85d fb08 	ldr.w	pc, [sp], #8
   817c2:	bf00      	nop

000817c4 <__aeabi_dcmplt>:
   817c4:	f84d ed08 	str.w	lr, [sp, #-8]!
   817c8:	f7ff ffea 	bl	817a0 <__aeabi_cdcmpeq>
   817cc:	bf34      	ite	cc
   817ce:	2001      	movcc	r0, #1
   817d0:	2000      	movcs	r0, #0
   817d2:	f85d fb08 	ldr.w	pc, [sp], #8
   817d6:	bf00      	nop

000817d8 <__aeabi_dcmple>:
   817d8:	f84d ed08 	str.w	lr, [sp, #-8]!
   817dc:	f7ff ffe0 	bl	817a0 <__aeabi_cdcmpeq>
   817e0:	bf94      	ite	ls
   817e2:	2001      	movls	r0, #1
   817e4:	2000      	movhi	r0, #0
   817e6:	f85d fb08 	ldr.w	pc, [sp], #8
   817ea:	bf00      	nop

000817ec <__aeabi_dcmpge>:
   817ec:	f84d ed08 	str.w	lr, [sp, #-8]!
   817f0:	f7ff ffce 	bl	81790 <__aeabi_cdrcmple>
   817f4:	bf94      	ite	ls
   817f6:	2001      	movls	r0, #1
   817f8:	2000      	movhi	r0, #0
   817fa:	f85d fb08 	ldr.w	pc, [sp], #8
   817fe:	bf00      	nop

00081800 <__aeabi_dcmpgt>:
   81800:	f84d ed08 	str.w	lr, [sp, #-8]!
   81804:	f7ff ffc4 	bl	81790 <__aeabi_cdrcmple>
   81808:	bf34      	ite	cc
   8180a:	2001      	movcc	r0, #1
   8180c:	2000      	movcs	r0, #0
   8180e:	f85d fb08 	ldr.w	pc, [sp], #8
   81812:	bf00      	nop

00081814 <__aeabi_d2iz>:
   81814:	ea4f 0241 	mov.w	r2, r1, lsl #1
   81818:	f512 1200 	adds.w	r2, r2, #2097152	; 0x200000
   8181c:	d215      	bcs.n	8184a <__aeabi_d2iz+0x36>
   8181e:	d511      	bpl.n	81844 <__aeabi_d2iz+0x30>
   81820:	f46f 7378 	mvn.w	r3, #992	; 0x3e0
   81824:	ebb3 5262 	subs.w	r2, r3, r2, asr #21
   81828:	d912      	bls.n	81850 <__aeabi_d2iz+0x3c>
   8182a:	ea4f 23c1 	mov.w	r3, r1, lsl #11
   8182e:	f043 4300 	orr.w	r3, r3, #2147483648	; 0x80000000
   81832:	ea43 5350 	orr.w	r3, r3, r0, lsr #21
   81836:	f011 4f00 	tst.w	r1, #2147483648	; 0x80000000
   8183a:	fa23 f002 	lsr.w	r0, r3, r2
   8183e:	bf18      	it	ne
   81840:	4240      	negne	r0, r0
   81842:	4770      	bx	lr
   81844:	f04f 0000 	mov.w	r0, #0
   81848:	4770      	bx	lr
   8184a:	ea50 3001 	orrs.w	r0, r0, r1, lsl #12
   8184e:	d105      	bne.n	8185c <__aeabi_d2iz+0x48>
   81850:	f011 4000 	ands.w	r0, r1, #2147483648	; 0x80000000
   81854:	bf08      	it	eq
   81856:	f06f 4000 	mvneq.w	r0, #2147483648	; 0x80000000
   8185a:	4770      	bx	lr
   8185c:	f04f 0000 	mov.w	r0, #0
   81860:	4770      	bx	lr
   81862:	bf00      	nop

00081864 <__aeabi_d2f>:
   81864:	ea4f 0241 	mov.w	r2, r1, lsl #1
   81868:	f1b2 43e0 	subs.w	r3, r2, #1879048192	; 0x70000000
   8186c:	bf24      	itt	cs
   8186e:	f5b3 1c00 	subscs.w	ip, r3, #2097152	; 0x200000
   81872:	f1dc 5cfe 	rsbscs	ip, ip, #532676608	; 0x1fc00000
   81876:	d90d      	bls.n	81894 <__aeabi_d2f+0x30>
   81878:	f001 4c00 	and.w	ip, r1, #2147483648	; 0x80000000
   8187c:	ea4f 02c0 	mov.w	r2, r0, lsl #3
   81880:	ea4c 7050 	orr.w	r0, ip, r0, lsr #29
   81884:	f1b2 4f00 	cmp.w	r2, #2147483648	; 0x80000000
   81888:	eb40 0083 	adc.w	r0, r0, r3, lsl #2
   8188c:	bf08      	it	eq
   8188e:	f020 0001 	biceq.w	r0, r0, #1
   81892:	4770      	bx	lr
   81894:	f011 4f80 	tst.w	r1, #1073741824	; 0x40000000
   81898:	d121      	bne.n	818de <__aeabi_d2f+0x7a>
   8189a:	f113 7238 	adds.w	r2, r3, #48234496	; 0x2e00000
   8189e:	bfbc      	itt	lt
   818a0:	f001 4000 	andlt.w	r0, r1, #2147483648	; 0x80000000
   818a4:	4770      	bxlt	lr
   818a6:	f441 1180 	orr.w	r1, r1, #1048576	; 0x100000
   818aa:	ea4f 5252 	mov.w	r2, r2, lsr #21
   818ae:	f1c2 0218 	rsb	r2, r2, #24
   818b2:	f1c2 0c20 	rsb	ip, r2, #32
   818b6:	fa10 f30c 	lsls.w	r3, r0, ip
   818ba:	fa20 f002 	lsr.w	r0, r0, r2
   818be:	bf18      	it	ne
   818c0:	f040 0001 	orrne.w	r0, r0, #1
   818c4:	ea4f 23c1 	mov.w	r3, r1, lsl #11
   818c8:	ea4f 23d3 	mov.w	r3, r3, lsr #11
   818cc:	fa03 fc0c 	lsl.w	ip, r3, ip
   818d0:	ea40 000c 	orr.w	r0, r0, ip
   818d4:	fa23 f302 	lsr.w	r3, r3, r2
   818d8:	ea4f 0343 	mov.w	r3, r3, lsl #1
   818dc:	e7cc      	b.n	81878 <__aeabi_d2f+0x14>
   818de:	ea7f 5362 	mvns.w	r3, r2, asr #21
   818e2:	d107      	bne.n	818f4 <__aeabi_d2f+0x90>
   818e4:	ea50 3301 	orrs.w	r3, r0, r1, lsl #12
   818e8:	bf1e      	ittt	ne
   818ea:	f04f 40fe 	movne.w	r0, #2130706432	; 0x7f000000
   818ee:	f440 0040 	orrne.w	r0, r0, #12582912	; 0xc00000
   818f2:	4770      	bxne	lr
   818f4:	f001 4000 	and.w	r0, r1, #2147483648	; 0x80000000
   818f8:	f040 40fe 	orr.w	r0, r0, #2130706432	; 0x7f000000
   818fc:	f440 0000 	orr.w	r0, r0, #8388608	; 0x800000
   81900:	4770      	bx	lr
   81902:	bf00      	nop

00081904 <__aeabi_frsub>:
   81904:	f080 4000 	eor.w	r0, r0, #2147483648	; 0x80000000
   81908:	e002      	b.n	81910 <__addsf3>
   8190a:	bf00      	nop

0008190c <__aeabi_fsub>:
   8190c:	f081 4100 	eor.w	r1, r1, #2147483648	; 0x80000000

00081910 <__addsf3>:
   81910:	0042      	lsls	r2, r0, #1
   81912:	bf1f      	itttt	ne
   81914:	ea5f 0341 	movsne.w	r3, r1, lsl #1
   81918:	ea92 0f03 	teqne	r2, r3
   8191c:	ea7f 6c22 	mvnsne.w	ip, r2, asr #24
   81920:	ea7f 6c23 	mvnsne.w	ip, r3, asr #24
   81924:	d06a      	beq.n	819fc <__addsf3+0xec>
   81926:	ea4f 6212 	mov.w	r2, r2, lsr #24
   8192a:	ebd2 6313 	rsbs	r3, r2, r3, lsr #24
   8192e:	bfc1      	itttt	gt
   81930:	18d2      	addgt	r2, r2, r3
   81932:	4041      	eorgt	r1, r0
   81934:	4048      	eorgt	r0, r1
   81936:	4041      	eorgt	r1, r0
   81938:	bfb8      	it	lt
   8193a:	425b      	neglt	r3, r3
   8193c:	2b19      	cmp	r3, #25
   8193e:	bf88      	it	hi
   81940:	4770      	bxhi	lr
   81942:	f010 4f00 	tst.w	r0, #2147483648	; 0x80000000
   81946:	f440 0000 	orr.w	r0, r0, #8388608	; 0x800000
   8194a:	f020 407f 	bic.w	r0, r0, #4278190080	; 0xff000000
   8194e:	bf18      	it	ne
   81950:	4240      	negne	r0, r0
   81952:	f011 4f00 	tst.w	r1, #2147483648	; 0x80000000
   81956:	f441 0100 	orr.w	r1, r1, #8388608	; 0x800000
   8195a:	f021 417f 	bic.w	r1, r1, #4278190080	; 0xff000000
   8195e:	bf18      	it	ne
   81960:	4249      	negne	r1, r1
   81962:	ea92 0f03 	teq	r2, r3
   81966:	d03f      	beq.n	819e8 <__addsf3+0xd8>
   81968:	f1a2 0201 	sub.w	r2, r2, #1
   8196c:	fa41 fc03 	asr.w	ip, r1, r3
   81970:	eb10 000c 	adds.w	r0, r0, ip
   81974:	f1c3 0320 	rsb	r3, r3, #32
   81978:	fa01 f103 	lsl.w	r1, r1, r3
   8197c:	f000 4300 	and.w	r3, r0, #2147483648	; 0x80000000
   81980:	d502      	bpl.n	81988 <__addsf3+0x78>
   81982:	4249      	negs	r1, r1
   81984:	eb60 0040 	sbc.w	r0, r0, r0, lsl #1
   81988:	f5b0 0f00 	cmp.w	r0, #8388608	; 0x800000
   8198c:	d313      	bcc.n	819b6 <__addsf3+0xa6>
   8198e:	f1b0 7f80 	cmp.w	r0, #16777216	; 0x1000000
   81992:	d306      	bcc.n	819a2 <__addsf3+0x92>
   81994:	0840      	lsrs	r0, r0, #1
   81996:	ea4f 0131 	mov.w	r1, r1, rrx
   8199a:	f102 0201 	add.w	r2, r2, #1
   8199e:	2afe      	cmp	r2, #254	; 0xfe
   819a0:	d251      	bcs.n	81a46 <__addsf3+0x136>
   819a2:	f1b1 4f00 	cmp.w	r1, #2147483648	; 0x80000000
   819a6:	eb40 50c2 	adc.w	r0, r0, r2, lsl #23
   819aa:	bf08      	it	eq
   819ac:	f020 0001 	biceq.w	r0, r0, #1
   819b0:	ea40 0003 	orr.w	r0, r0, r3
   819b4:	4770      	bx	lr
   819b6:	0049      	lsls	r1, r1, #1
   819b8:	eb40 0000 	adc.w	r0, r0, r0
   819bc:	f410 0f00 	tst.w	r0, #8388608	; 0x800000
   819c0:	f1a2 0201 	sub.w	r2, r2, #1
   819c4:	d1ed      	bne.n	819a2 <__addsf3+0x92>
   819c6:	fab0 fc80 	clz	ip, r0
   819ca:	f1ac 0c08 	sub.w	ip, ip, #8
   819ce:	ebb2 020c 	subs.w	r2, r2, ip
   819d2:	fa00 f00c 	lsl.w	r0, r0, ip
   819d6:	bfaa      	itet	ge
   819d8:	eb00 50c2 	addge.w	r0, r0, r2, lsl #23
   819dc:	4252      	neglt	r2, r2
   819de:	4318      	orrge	r0, r3
   819e0:	bfbc      	itt	lt
   819e2:	40d0      	lsrlt	r0, r2
   819e4:	4318      	orrlt	r0, r3
   819e6:	4770      	bx	lr
   819e8:	f092 0f00 	teq	r2, #0
   819ec:	f481 0100 	eor.w	r1, r1, #8388608	; 0x800000
   819f0:	bf06      	itte	eq
   819f2:	f480 0000 	eoreq.w	r0, r0, #8388608	; 0x800000
   819f6:	3201      	addeq	r2, #1
   819f8:	3b01      	subne	r3, #1
   819fa:	e7b5      	b.n	81968 <__addsf3+0x58>
   819fc:	ea4f 0341 	mov.w	r3, r1, lsl #1
   81a00:	ea7f 6c22 	mvns.w	ip, r2, asr #24
   81a04:	bf18      	it	ne
   81a06:	ea7f 6c23 	mvnsne.w	ip, r3, asr #24
   81a0a:	d021      	beq.n	81a50 <__addsf3+0x140>
   81a0c:	ea92 0f03 	teq	r2, r3
   81a10:	d004      	beq.n	81a1c <__addsf3+0x10c>
   81a12:	f092 0f00 	teq	r2, #0
   81a16:	bf08      	it	eq
   81a18:	4608      	moveq	r0, r1
   81a1a:	4770      	bx	lr
   81a1c:	ea90 0f01 	teq	r0, r1
   81a20:	bf1c      	itt	ne
   81a22:	2000      	movne	r0, #0
   81a24:	4770      	bxne	lr
   81a26:	f012 4f7f 	tst.w	r2, #4278190080	; 0xff000000
   81a2a:	d104      	bne.n	81a36 <__addsf3+0x126>
   81a2c:	0040      	lsls	r0, r0, #1
   81a2e:	bf28      	it	cs
   81a30:	f040 4000 	orrcs.w	r0, r0, #2147483648	; 0x80000000
   81a34:	4770      	bx	lr
   81a36:	f112 7200 	adds.w	r2, r2, #33554432	; 0x2000000
   81a3a:	bf3c      	itt	cc
   81a3c:	f500 0000 	addcc.w	r0, r0, #8388608	; 0x800000
   81a40:	4770      	bxcc	lr
   81a42:	f000 4300 	and.w	r3, r0, #2147483648	; 0x80000000
   81a46:	f043 40fe 	orr.w	r0, r3, #2130706432	; 0x7f000000
   81a4a:	f440 0000 	orr.w	r0, r0, #8388608	; 0x800000
   81a4e:	4770      	bx	lr
   81a50:	ea7f 6222 	mvns.w	r2, r2, asr #24
   81a54:	bf16      	itet	ne
   81a56:	4608      	movne	r0, r1
   81a58:	ea7f 6323 	mvnseq.w	r3, r3, asr #24
   81a5c:	4601      	movne	r1, r0
   81a5e:	0242      	lsls	r2, r0, #9
   81a60:	bf06      	itte	eq
   81a62:	ea5f 2341 	movseq.w	r3, r1, lsl #9
   81a66:	ea90 0f01 	teqeq	r0, r1
   81a6a:	f440 0080 	orrne.w	r0, r0, #4194304	; 0x400000
   81a6e:	4770      	bx	lr

00081a70 <__aeabi_ui2f>:
   81a70:	f04f 0300 	mov.w	r3, #0
   81a74:	e004      	b.n	81a80 <__aeabi_i2f+0x8>
   81a76:	bf00      	nop

00081a78 <__aeabi_i2f>:
   81a78:	f010 4300 	ands.w	r3, r0, #2147483648	; 0x80000000
   81a7c:	bf48      	it	mi
   81a7e:	4240      	negmi	r0, r0
   81a80:	ea5f 0c00 	movs.w	ip, r0
   81a84:	bf08      	it	eq
   81a86:	4770      	bxeq	lr
   81a88:	f043 4396 	orr.w	r3, r3, #1258291200	; 0x4b000000
   81a8c:	4601      	mov	r1, r0
   81a8e:	f04f 0000 	mov.w	r0, #0
   81a92:	e01c      	b.n	81ace <__aeabi_l2f+0x2a>

00081a94 <__aeabi_ul2f>:
   81a94:	ea50 0201 	orrs.w	r2, r0, r1
   81a98:	bf08      	it	eq
   81a9a:	4770      	bxeq	lr
   81a9c:	f04f 0300 	mov.w	r3, #0
   81aa0:	e00a      	b.n	81ab8 <__aeabi_l2f+0x14>
   81aa2:	bf00      	nop

00081aa4 <__aeabi_l2f>:
   81aa4:	ea50 0201 	orrs.w	r2, r0, r1
   81aa8:	bf08      	it	eq
   81aaa:	4770      	bxeq	lr
   81aac:	f011 4300 	ands.w	r3, r1, #2147483648	; 0x80000000
   81ab0:	d502      	bpl.n	81ab8 <__aeabi_l2f+0x14>
   81ab2:	4240      	negs	r0, r0
   81ab4:	eb61 0141 	sbc.w	r1, r1, r1, lsl #1
   81ab8:	ea5f 0c01 	movs.w	ip, r1
   81abc:	bf02      	ittt	eq
   81abe:	4684      	moveq	ip, r0
   81ac0:	4601      	moveq	r1, r0
   81ac2:	2000      	moveq	r0, #0
   81ac4:	f043 43b6 	orr.w	r3, r3, #1526726656	; 0x5b000000
   81ac8:	bf08      	it	eq
   81aca:	f1a3 5380 	subeq.w	r3, r3, #268435456	; 0x10000000
   81ace:	f5a3 0300 	sub.w	r3, r3, #8388608	; 0x800000
   81ad2:	fabc f28c 	clz	r2, ip
   81ad6:	3a08      	subs	r2, #8
   81ad8:	eba3 53c2 	sub.w	r3, r3, r2, lsl #23
   81adc:	db10      	blt.n	81b00 <__aeabi_l2f+0x5c>
   81ade:	fa01 fc02 	lsl.w	ip, r1, r2
   81ae2:	4463      	add	r3, ip
   81ae4:	fa00 fc02 	lsl.w	ip, r0, r2
   81ae8:	f1c2 0220 	rsb	r2, r2, #32
   81aec:	f1bc 4f00 	cmp.w	ip, #2147483648	; 0x80000000
   81af0:	fa20 f202 	lsr.w	r2, r0, r2
   81af4:	eb43 0002 	adc.w	r0, r3, r2
   81af8:	bf08      	it	eq
   81afa:	f020 0001 	biceq.w	r0, r0, #1
   81afe:	4770      	bx	lr
   81b00:	f102 0220 	add.w	r2, r2, #32
   81b04:	fa01 fc02 	lsl.w	ip, r1, r2
   81b08:	f1c2 0220 	rsb	r2, r2, #32
   81b0c:	ea50 004c 	orrs.w	r0, r0, ip, lsl #1
   81b10:	fa21 f202 	lsr.w	r2, r1, r2
   81b14:	eb43 0002 	adc.w	r0, r3, r2
   81b18:	bf08      	it	eq
   81b1a:	ea20 70dc 	biceq.w	r0, r0, ip, lsr #31
   81b1e:	4770      	bx	lr

00081b20 <__aeabi_fmul>:
   81b20:	f04f 0cff 	mov.w	ip, #255	; 0xff
   81b24:	ea1c 52d0 	ands.w	r2, ip, r0, lsr #23
   81b28:	bf1e      	ittt	ne
   81b2a:	ea1c 53d1 	andsne.w	r3, ip, r1, lsr #23
   81b2e:	ea92 0f0c 	teqne	r2, ip
   81b32:	ea93 0f0c 	teqne	r3, ip
   81b36:	d06f      	beq.n	81c18 <__aeabi_fmul+0xf8>
   81b38:	441a      	add	r2, r3
   81b3a:	ea80 0c01 	eor.w	ip, r0, r1
   81b3e:	0240      	lsls	r0, r0, #9
   81b40:	bf18      	it	ne
   81b42:	ea5f 2141 	movsne.w	r1, r1, lsl #9
   81b46:	d01e      	beq.n	81b86 <__aeabi_fmul+0x66>
   81b48:	f04f 6300 	mov.w	r3, #134217728	; 0x8000000
   81b4c:	ea43 1050 	orr.w	r0, r3, r0, lsr #5
   81b50:	ea43 1151 	orr.w	r1, r3, r1, lsr #5
   81b54:	fba0 3101 	umull	r3, r1, r0, r1
   81b58:	f00c 4000 	and.w	r0, ip, #2147483648	; 0x80000000
   81b5c:	f5b1 0f00 	cmp.w	r1, #8388608	; 0x800000
   81b60:	bf3e      	ittt	cc
   81b62:	0049      	lslcc	r1, r1, #1
   81b64:	ea41 71d3 	orrcc.w	r1, r1, r3, lsr #31
   81b68:	005b      	lslcc	r3, r3, #1
   81b6a:	ea40 0001 	orr.w	r0, r0, r1
   81b6e:	f162 027f 	sbc.w	r2, r2, #127	; 0x7f
   81b72:	2afd      	cmp	r2, #253	; 0xfd
   81b74:	d81d      	bhi.n	81bb2 <__aeabi_fmul+0x92>
   81b76:	f1b3 4f00 	cmp.w	r3, #2147483648	; 0x80000000
   81b7a:	eb40 50c2 	adc.w	r0, r0, r2, lsl #23
   81b7e:	bf08      	it	eq
   81b80:	f020 0001 	biceq.w	r0, r0, #1
   81b84:	4770      	bx	lr
   81b86:	f090 0f00 	teq	r0, #0
   81b8a:	f00c 4c00 	and.w	ip, ip, #2147483648	; 0x80000000
   81b8e:	bf08      	it	eq
   81b90:	0249      	lsleq	r1, r1, #9
   81b92:	ea4c 2050 	orr.w	r0, ip, r0, lsr #9
   81b96:	ea40 2051 	orr.w	r0, r0, r1, lsr #9
   81b9a:	3a7f      	subs	r2, #127	; 0x7f
   81b9c:	bfc2      	ittt	gt
   81b9e:	f1d2 03ff 	rsbsgt	r3, r2, #255	; 0xff
   81ba2:	ea40 50c2 	orrgt.w	r0, r0, r2, lsl #23
   81ba6:	4770      	bxgt	lr
   81ba8:	f440 0000 	orr.w	r0, r0, #8388608	; 0x800000
   81bac:	f04f 0300 	mov.w	r3, #0
   81bb0:	3a01      	subs	r2, #1
   81bb2:	dc5d      	bgt.n	81c70 <__aeabi_fmul+0x150>
   81bb4:	f112 0f19 	cmn.w	r2, #25
   81bb8:	bfdc      	itt	le
   81bba:	f000 4000 	andle.w	r0, r0, #2147483648	; 0x80000000
   81bbe:	4770      	bxle	lr
   81bc0:	f1c2 0200 	rsb	r2, r2, #0
   81bc4:	0041      	lsls	r1, r0, #1
   81bc6:	fa21 f102 	lsr.w	r1, r1, r2
   81bca:	f1c2 0220 	rsb	r2, r2, #32
   81bce:	fa00 fc02 	lsl.w	ip, r0, r2
   81bd2:	ea5f 0031 	movs.w	r0, r1, rrx
   81bd6:	f140 0000 	adc.w	r0, r0, #0
   81bda:	ea53 034c 	orrs.w	r3, r3, ip, lsl #1
   81bde:	bf08      	it	eq
   81be0:	ea20 70dc 	biceq.w	r0, r0, ip, lsr #31
   81be4:	4770      	bx	lr
   81be6:	f092 0f00 	teq	r2, #0
   81bea:	f000 4c00 	and.w	ip, r0, #2147483648	; 0x80000000
   81bee:	bf02      	ittt	eq
   81bf0:	0040      	lsleq	r0, r0, #1
   81bf2:	f410 0f00 	tsteq.w	r0, #8388608	; 0x800000
   81bf6:	3a01      	subeq	r2, #1
   81bf8:	d0f9      	beq.n	81bee <__aeabi_fmul+0xce>
   81bfa:	ea40 000c 	orr.w	r0, r0, ip
   81bfe:	f093 0f00 	teq	r3, #0
   81c02:	f001 4c00 	and.w	ip, r1, #2147483648	; 0x80000000
   81c06:	bf02      	ittt	eq
   81c08:	0049      	lsleq	r1, r1, #1
   81c0a:	f411 0f00 	tsteq.w	r1, #8388608	; 0x800000
   81c0e:	3b01      	subeq	r3, #1
   81c10:	d0f9      	beq.n	81c06 <__aeabi_fmul+0xe6>
   81c12:	ea41 010c 	orr.w	r1, r1, ip
   81c16:	e78f      	b.n	81b38 <__aeabi_fmul+0x18>
   81c18:	ea0c 53d1 	and.w	r3, ip, r1, lsr #23
   81c1c:	ea92 0f0c 	teq	r2, ip
   81c20:	bf18      	it	ne
   81c22:	ea93 0f0c 	teqne	r3, ip
   81c26:	d00a      	beq.n	81c3e <__aeabi_fmul+0x11e>
   81c28:	f030 4c00 	bics.w	ip, r0, #2147483648	; 0x80000000
   81c2c:	bf18      	it	ne
   81c2e:	f031 4c00 	bicsne.w	ip, r1, #2147483648	; 0x80000000
   81c32:	d1d8      	bne.n	81be6 <__aeabi_fmul+0xc6>
   81c34:	ea80 0001 	eor.w	r0, r0, r1
   81c38:	f000 4000 	and.w	r0, r0, #2147483648	; 0x80000000
   81c3c:	4770      	bx	lr
   81c3e:	f090 0f00 	teq	r0, #0
   81c42:	bf17      	itett	ne
   81c44:	f090 4f00 	teqne	r0, #2147483648	; 0x80000000
   81c48:	4608      	moveq	r0, r1
   81c4a:	f091 0f00 	teqne	r1, #0
   81c4e:	f091 4f00 	teqne	r1, #2147483648	; 0x80000000
   81c52:	d014      	beq.n	81c7e <__aeabi_fmul+0x15e>
   81c54:	ea92 0f0c 	teq	r2, ip
   81c58:	d101      	bne.n	81c5e <__aeabi_fmul+0x13e>
   81c5a:	0242      	lsls	r2, r0, #9
   81c5c:	d10f      	bne.n	81c7e <__aeabi_fmul+0x15e>
   81c5e:	ea93 0f0c 	teq	r3, ip
   81c62:	d103      	bne.n	81c6c <__aeabi_fmul+0x14c>
   81c64:	024b      	lsls	r3, r1, #9
   81c66:	bf18      	it	ne
   81c68:	4608      	movne	r0, r1
   81c6a:	d108      	bne.n	81c7e <__aeabi_fmul+0x15e>
   81c6c:	ea80 0001 	eor.w	r0, r0, r1
   81c70:	f000 4000 	and.w	r0, r0, #2147483648	; 0x80000000
   81c74:	f040 40fe 	orr.w	r0, r0, #2130706432	; 0x7f000000
   81c78:	f440 0000 	orr.w	r0, r0, #8388608	; 0x800000
   81c7c:	4770      	bx	lr
   81c7e:	f040 40fe 	orr.w	r0, r0, #2130706432	; 0x7f000000
   81c82:	f440 0040 	orr.w	r0, r0, #12582912	; 0xc00000
   81c86:	4770      	bx	lr

00081c88 <__aeabi_fdiv>:
   81c88:	f04f 0cff 	mov.w	ip, #255	; 0xff
   81c8c:	ea1c 52d0 	ands.w	r2, ip, r0, lsr #23
   81c90:	bf1e      	ittt	ne
   81c92:	ea1c 53d1 	andsne.w	r3, ip, r1, lsr #23
   81c96:	ea92 0f0c 	teqne	r2, ip
   81c9a:	ea93 0f0c 	teqne	r3, ip
   81c9e:	d069      	beq.n	81d74 <__aeabi_fdiv+0xec>
   81ca0:	eba2 0203 	sub.w	r2, r2, r3
   81ca4:	ea80 0c01 	eor.w	ip, r0, r1
   81ca8:	0249      	lsls	r1, r1, #9
   81caa:	ea4f 2040 	mov.w	r0, r0, lsl #9
   81cae:	d037      	beq.n	81d20 <__aeabi_fdiv+0x98>
   81cb0:	f04f 5380 	mov.w	r3, #268435456	; 0x10000000
   81cb4:	ea43 1111 	orr.w	r1, r3, r1, lsr #4
   81cb8:	ea43 1310 	orr.w	r3, r3, r0, lsr #4
   81cbc:	f00c 4000 	and.w	r0, ip, #2147483648	; 0x80000000
   81cc0:	428b      	cmp	r3, r1
   81cc2:	bf38      	it	cc
   81cc4:	005b      	lslcc	r3, r3, #1
   81cc6:	f142 027d 	adc.w	r2, r2, #125	; 0x7d
   81cca:	f44f 0c00 	mov.w	ip, #8388608	; 0x800000
   81cce:	428b      	cmp	r3, r1
   81cd0:	bf24      	itt	cs
   81cd2:	1a5b      	subcs	r3, r3, r1
   81cd4:	ea40 000c 	orrcs.w	r0, r0, ip
   81cd8:	ebb3 0f51 	cmp.w	r3, r1, lsr #1
   81cdc:	bf24      	itt	cs
   81cde:	eba3 0351 	subcs.w	r3, r3, r1, lsr #1
   81ce2:	ea40 005c 	orrcs.w	r0, r0, ip, lsr #1
   81ce6:	ebb3 0f91 	cmp.w	r3, r1, lsr #2
   81cea:	bf24      	itt	cs
   81cec:	eba3 0391 	subcs.w	r3, r3, r1, lsr #2
   81cf0:	ea40 009c 	orrcs.w	r0, r0, ip, lsr #2
   81cf4:	ebb3 0fd1 	cmp.w	r3, r1, lsr #3
   81cf8:	bf24      	itt	cs
   81cfa:	eba3 03d1 	subcs.w	r3, r3, r1, lsr #3
   81cfe:	ea40 00dc 	orrcs.w	r0, r0, ip, lsr #3
   81d02:	011b      	lsls	r3, r3, #4
   81d04:	bf18      	it	ne
   81d06:	ea5f 1c1c 	movsne.w	ip, ip, lsr #4
   81d0a:	d1e0      	bne.n	81cce <__aeabi_fdiv+0x46>
   81d0c:	2afd      	cmp	r2, #253	; 0xfd
   81d0e:	f63f af50 	bhi.w	81bb2 <__aeabi_fmul+0x92>
   81d12:	428b      	cmp	r3, r1
   81d14:	eb40 50c2 	adc.w	r0, r0, r2, lsl #23
   81d18:	bf08      	it	eq
   81d1a:	f020 0001 	biceq.w	r0, r0, #1
   81d1e:	4770      	bx	lr
   81d20:	f00c 4c00 	and.w	ip, ip, #2147483648	; 0x80000000
   81d24:	ea4c 2050 	orr.w	r0, ip, r0, lsr #9
   81d28:	327f      	adds	r2, #127	; 0x7f
   81d2a:	bfc2      	ittt	gt
   81d2c:	f1d2 03ff 	rsbsgt	r3, r2, #255	; 0xff
   81d30:	ea40 50c2 	orrgt.w	r0, r0, r2, lsl #23
   81d34:	4770      	bxgt	lr
   81d36:	f440 0000 	orr.w	r0, r0, #8388608	; 0x800000
   81d3a:	f04f 0300 	mov.w	r3, #0
   81d3e:	3a01      	subs	r2, #1
   81d40:	e737      	b.n	81bb2 <__aeabi_fmul+0x92>
   81d42:	f092 0f00 	teq	r2, #0
   81d46:	f000 4c00 	and.w	ip, r0, #2147483648	; 0x80000000
   81d4a:	bf02      	ittt	eq
   81d4c:	0040      	lsleq	r0, r0, #1
   81d4e:	f410 0f00 	tsteq.w	r0, #8388608	; 0x800000
   81d52:	3a01      	subeq	r2, #1
   81d54:	d0f9      	beq.n	81d4a <__aeabi_fdiv+0xc2>
   81d56:	ea40 000c 	orr.w	r0, r0, ip
   81d5a:	f093 0f00 	teq	r3, #0
   81d5e:	f001 4c00 	and.w	ip, r1, #2147483648	; 0x80000000
   81d62:	bf02      	ittt	eq
   81d64:	0049      	lsleq	r1, r1, #1
   81d66:	f411 0f00 	tsteq.w	r1, #8388608	; 0x800000
   81d6a:	3b01      	subeq	r3, #1
   81d6c:	d0f9      	beq.n	81d62 <__aeabi_fdiv+0xda>
   81d6e:	ea41 010c 	orr.w	r1, r1, ip
   81d72:	e795      	b.n	81ca0 <__aeabi_fdiv+0x18>
   81d74:	ea0c 53d1 	and.w	r3, ip, r1, lsr #23
   81d78:	ea92 0f0c 	teq	r2, ip
   81d7c:	d108      	bne.n	81d90 <__aeabi_fdiv+0x108>
   81d7e:	0242      	lsls	r2, r0, #9
   81d80:	f47f af7d 	bne.w	81c7e <__aeabi_fmul+0x15e>
   81d84:	ea93 0f0c 	teq	r3, ip
   81d88:	f47f af70 	bne.w	81c6c <__aeabi_fmul+0x14c>
   81d8c:	4608      	mov	r0, r1
   81d8e:	e776      	b.n	81c7e <__aeabi_fmul+0x15e>
   81d90:	ea93 0f0c 	teq	r3, ip
   81d94:	d104      	bne.n	81da0 <__aeabi_fdiv+0x118>
   81d96:	024b      	lsls	r3, r1, #9
   81d98:	f43f af4c 	beq.w	81c34 <__aeabi_fmul+0x114>
   81d9c:	4608      	mov	r0, r1
   81d9e:	e76e      	b.n	81c7e <__aeabi_fmul+0x15e>
   81da0:	f030 4c00 	bics.w	ip, r0, #2147483648	; 0x80000000
   81da4:	bf18      	it	ne
   81da6:	f031 4c00 	bicsne.w	ip, r1, #2147483648	; 0x80000000
   81daa:	d1ca      	bne.n	81d42 <__aeabi_fdiv+0xba>
   81dac:	f030 4200 	bics.w	r2, r0, #2147483648	; 0x80000000
   81db0:	f47f af5c 	bne.w	81c6c <__aeabi_fmul+0x14c>
   81db4:	f031 4300 	bics.w	r3, r1, #2147483648	; 0x80000000
   81db8:	f47f af3c 	bne.w	81c34 <__aeabi_fmul+0x114>
   81dbc:	e75f      	b.n	81c7e <__aeabi_fmul+0x15e>
   81dbe:	bf00      	nop

00081dc0 <__gesf2>:
   81dc0:	f04f 3cff 	mov.w	ip, #4294967295
   81dc4:	e006      	b.n	81dd4 <__cmpsf2+0x4>
   81dc6:	bf00      	nop

00081dc8 <__lesf2>:
   81dc8:	f04f 0c01 	mov.w	ip, #1
   81dcc:	e002      	b.n	81dd4 <__cmpsf2+0x4>
   81dce:	bf00      	nop

00081dd0 <__cmpsf2>:
   81dd0:	f04f 0c01 	mov.w	ip, #1
   81dd4:	f84d cd04 	str.w	ip, [sp, #-4]!
   81dd8:	ea4f 0240 	mov.w	r2, r0, lsl #1
   81ddc:	ea4f 0341 	mov.w	r3, r1, lsl #1
   81de0:	ea7f 6c22 	mvns.w	ip, r2, asr #24
   81de4:	bf18      	it	ne
   81de6:	ea7f 6c23 	mvnsne.w	ip, r3, asr #24
   81dea:	d011      	beq.n	81e10 <__cmpsf2+0x40>
   81dec:	b001      	add	sp, #4
   81dee:	ea52 0c53 	orrs.w	ip, r2, r3, lsr #1
   81df2:	bf18      	it	ne
   81df4:	ea90 0f01 	teqne	r0, r1
   81df8:	bf58      	it	pl
   81dfa:	ebb2 0003 	subspl.w	r0, r2, r3
   81dfe:	bf88      	it	hi
   81e00:	17c8      	asrhi	r0, r1, #31
   81e02:	bf38      	it	cc
   81e04:	ea6f 70e1 	mvncc.w	r0, r1, asr #31
   81e08:	bf18      	it	ne
   81e0a:	f040 0001 	orrne.w	r0, r0, #1
   81e0e:	4770      	bx	lr
   81e10:	ea7f 6c22 	mvns.w	ip, r2, asr #24
   81e14:	d102      	bne.n	81e1c <__cmpsf2+0x4c>
   81e16:	ea5f 2c40 	movs.w	ip, r0, lsl #9
   81e1a:	d105      	bne.n	81e28 <__cmpsf2+0x58>
   81e1c:	ea7f 6c23 	mvns.w	ip, r3, asr #24
   81e20:	d1e4      	bne.n	81dec <__cmpsf2+0x1c>
   81e22:	ea5f 2c41 	movs.w	ip, r1, lsl #9
   81e26:	d0e1      	beq.n	81dec <__cmpsf2+0x1c>
   81e28:	f85d 0b04 	ldr.w	r0, [sp], #4
   81e2c:	4770      	bx	lr
   81e2e:	bf00      	nop

00081e30 <__aeabi_cfrcmple>:
   81e30:	4684      	mov	ip, r0
   81e32:	4608      	mov	r0, r1
   81e34:	4661      	mov	r1, ip
   81e36:	e7ff      	b.n	81e38 <__aeabi_cfcmpeq>

00081e38 <__aeabi_cfcmpeq>:
   81e38:	b50f      	push	{r0, r1, r2, r3, lr}
   81e3a:	f7ff ffc9 	bl	81dd0 <__cmpsf2>
   81e3e:	2800      	cmp	r0, #0
   81e40:	bf48      	it	mi
   81e42:	f110 0f00 	cmnmi.w	r0, #0
   81e46:	bd0f      	pop	{r0, r1, r2, r3, pc}

00081e48 <__aeabi_fcmpeq>:
   81e48:	f84d ed08 	str.w	lr, [sp, #-8]!
   81e4c:	f7ff fff4 	bl	81e38 <__aeabi_cfcmpeq>
   81e50:	bf0c      	ite	eq
   81e52:	2001      	moveq	r0, #1
   81e54:	2000      	movne	r0, #0
   81e56:	f85d fb08 	ldr.w	pc, [sp], #8
   81e5a:	bf00      	nop

00081e5c <__aeabi_fcmplt>:
   81e5c:	f84d ed08 	str.w	lr, [sp, #-8]!
   81e60:	f7ff ffea 	bl	81e38 <__aeabi_cfcmpeq>
   81e64:	bf34      	ite	cc
   81e66:	2001      	movcc	r0, #1
   81e68:	2000      	movcs	r0, #0
   81e6a:	f85d fb08 	ldr.w	pc, [sp], #8
   81e6e:	bf00      	nop

00081e70 <__aeabi_fcmple>:
   81e70:	f84d ed08 	str.w	lr, [sp, #-8]!
   81e74:	f7ff ffe0 	bl	81e38 <__aeabi_cfcmpeq>
   81e78:	bf94      	ite	ls
   81e7a:	2001      	movls	r0, #1
   81e7c:	2000      	movhi	r0, #0
   81e7e:	f85d fb08 	ldr.w	pc, [sp], #8
   81e82:	bf00      	nop

00081e84 <__aeabi_fcmpge>:
   81e84:	f84d ed08 	str.w	lr, [sp, #-8]!
   81e88:	f7ff ffd2 	bl	81e30 <__aeabi_cfrcmple>
   81e8c:	bf94      	ite	ls
   81e8e:	2001      	movls	r0, #1
   81e90:	2000      	movhi	r0, #0
   81e92:	f85d fb08 	ldr.w	pc, [sp], #8
   81e96:	bf00      	nop

00081e98 <__aeabi_fcmpgt>:
   81e98:	f84d ed08 	str.w	lr, [sp, #-8]!
   81e9c:	f7ff ffc8 	bl	81e30 <__aeabi_cfrcmple>
   81ea0:	bf34      	ite	cc
   81ea2:	2001      	movcc	r0, #1
   81ea4:	2000      	movcs	r0, #0
   81ea6:	f85d fb08 	ldr.w	pc, [sp], #8
   81eaa:	bf00      	nop

00081eac <__aeabi_f2uiz>:
   81eac:	0042      	lsls	r2, r0, #1
   81eae:	d20e      	bcs.n	81ece <__aeabi_f2uiz+0x22>
   81eb0:	f1b2 4ffe 	cmp.w	r2, #2130706432	; 0x7f000000
   81eb4:	d30b      	bcc.n	81ece <__aeabi_f2uiz+0x22>
   81eb6:	f04f 039e 	mov.w	r3, #158	; 0x9e
   81eba:	ebb3 6212 	subs.w	r2, r3, r2, lsr #24
   81ebe:	d409      	bmi.n	81ed4 <__aeabi_f2uiz+0x28>
   81ec0:	ea4f 2300 	mov.w	r3, r0, lsl #8
   81ec4:	f043 4300 	orr.w	r3, r3, #2147483648	; 0x80000000
   81ec8:	fa23 f002 	lsr.w	r0, r3, r2
   81ecc:	4770      	bx	lr
   81ece:	f04f 0000 	mov.w	r0, #0
   81ed2:	4770      	bx	lr
   81ed4:	f112 0f61 	cmn.w	r2, #97	; 0x61
   81ed8:	d101      	bne.n	81ede <__aeabi_f2uiz+0x32>
   81eda:	0242      	lsls	r2, r0, #9
   81edc:	d102      	bne.n	81ee4 <__aeabi_f2uiz+0x38>
   81ede:	f04f 30ff 	mov.w	r0, #4294967295
   81ee2:	4770      	bx	lr
   81ee4:	f04f 0000 	mov.w	r0, #0
   81ee8:	4770      	bx	lr
   81eea:	bf00      	nop

00081eec <__aeabi_f2ulz>:
   81eec:	b5d0      	push	{r4, r6, r7, lr}
   81eee:	f7ff f9a3 	bl	81238 <__aeabi_f2d>
   81ef2:	2200      	movs	r2, #0
   81ef4:	4b0e      	ldr	r3, [pc, #56]	; (81f30 <__aeabi_f2ulz+0x44>)
   81ef6:	4606      	mov	r6, r0
   81ef8:	460f      	mov	r7, r1
   81efa:	f7ff f9f1 	bl	812e0 <__aeabi_dmul>
   81efe:	f000 f81b 	bl	81f38 <__aeabi_d2uiz>
   81f02:	4604      	mov	r4, r0
   81f04:	f7ff f976 	bl	811f4 <__aeabi_ui2d>
   81f08:	2200      	movs	r2, #0
   81f0a:	4b0a      	ldr	r3, [pc, #40]	; (81f34 <__aeabi_f2ulz+0x48>)
   81f0c:	f7ff f9e8 	bl	812e0 <__aeabi_dmul>
   81f10:	4602      	mov	r2, r0
   81f12:	460b      	mov	r3, r1
   81f14:	4630      	mov	r0, r6
   81f16:	4639      	mov	r1, r7
   81f18:	f7ff f82e 	bl	80f78 <__aeabi_dsub>
   81f1c:	f000 f80c 	bl	81f38 <__aeabi_d2uiz>
   81f20:	4623      	mov	r3, r4
   81f22:	2200      	movs	r2, #0
   81f24:	ea42 0200 	orr.w	r2, r2, r0
   81f28:	4610      	mov	r0, r2
   81f2a:	4619      	mov	r1, r3
   81f2c:	bdd0      	pop	{r4, r6, r7, pc}
   81f2e:	bf00      	nop
   81f30:	3df00000 	.word	0x3df00000
   81f34:	41f00000 	.word	0x41f00000

00081f38 <__aeabi_d2uiz>:
   81f38:	004a      	lsls	r2, r1, #1
   81f3a:	d211      	bcs.n	81f60 <__aeabi_d2uiz+0x28>
   81f3c:	f512 1200 	adds.w	r2, r2, #2097152	; 0x200000
   81f40:	d211      	bcs.n	81f66 <__aeabi_d2uiz+0x2e>
   81f42:	d50d      	bpl.n	81f60 <__aeabi_d2uiz+0x28>
   81f44:	f46f 7378 	mvn.w	r3, #992	; 0x3e0
   81f48:	ebb3 5262 	subs.w	r2, r3, r2, asr #21
   81f4c:	d40e      	bmi.n	81f6c <__aeabi_d2uiz+0x34>
   81f4e:	ea4f 23c1 	mov.w	r3, r1, lsl #11
   81f52:	f043 4300 	orr.w	r3, r3, #2147483648	; 0x80000000
   81f56:	ea43 5350 	orr.w	r3, r3, r0, lsr #21
   81f5a:	fa23 f002 	lsr.w	r0, r3, r2
   81f5e:	4770      	bx	lr
   81f60:	f04f 0000 	mov.w	r0, #0
   81f64:	4770      	bx	lr
   81f66:	ea50 3001 	orrs.w	r0, r0, r1, lsl #12
   81f6a:	d102      	bne.n	81f72 <__aeabi_d2uiz+0x3a>
   81f6c:	f04f 30ff 	mov.w	r0, #4294967295
   81f70:	4770      	bx	lr
   81f72:	f04f 0000 	mov.w	r0, #0
   81f76:	4770      	bx	lr

00081f78 <__libc_init_array>:
   81f78:	b570      	push	{r4, r5, r6, lr}
   81f7a:	4e0f      	ldr	r6, [pc, #60]	; (81fb8 <__libc_init_array+0x40>)
   81f7c:	4d0f      	ldr	r5, [pc, #60]	; (81fbc <__libc_init_array+0x44>)
   81f7e:	1b76      	subs	r6, r6, r5
   81f80:	10b6      	asrs	r6, r6, #2
   81f82:	bf18      	it	ne
   81f84:	2400      	movne	r4, #0
   81f86:	d005      	beq.n	81f94 <__libc_init_array+0x1c>
   81f88:	3401      	adds	r4, #1
   81f8a:	f855 3b04 	ldr.w	r3, [r5], #4
   81f8e:	4798      	blx	r3
   81f90:	42a6      	cmp	r6, r4
   81f92:	d1f9      	bne.n	81f88 <__libc_init_array+0x10>
   81f94:	4e0a      	ldr	r6, [pc, #40]	; (81fc0 <__libc_init_array+0x48>)
   81f96:	4d0b      	ldr	r5, [pc, #44]	; (81fc4 <__libc_init_array+0x4c>)
   81f98:	f001 fd7e 	bl	83a98 <_init>
   81f9c:	1b76      	subs	r6, r6, r5
   81f9e:	10b6      	asrs	r6, r6, #2
   81fa0:	bf18      	it	ne
   81fa2:	2400      	movne	r4, #0
   81fa4:	d006      	beq.n	81fb4 <__libc_init_array+0x3c>
   81fa6:	3401      	adds	r4, #1
   81fa8:	f855 3b04 	ldr.w	r3, [r5], #4
   81fac:	4798      	blx	r3
   81fae:	42a6      	cmp	r6, r4
   81fb0:	d1f9      	bne.n	81fa6 <__libc_init_array+0x2e>
   81fb2:	bd70      	pop	{r4, r5, r6, pc}
   81fb4:	bd70      	pop	{r4, r5, r6, pc}
   81fb6:	bf00      	nop
   81fb8:	00083aa4 	.word	0x00083aa4
   81fbc:	00083aa4 	.word	0x00083aa4
   81fc0:	00083ab0 	.word	0x00083ab0
   81fc4:	00083aa4 	.word	0x00083aa4

00081fc8 <memset>:
   81fc8:	b470      	push	{r4, r5, r6}
   81fca:	0786      	lsls	r6, r0, #30
   81fcc:	d046      	beq.n	8205c <memset+0x94>
   81fce:	1e54      	subs	r4, r2, #1
   81fd0:	2a00      	cmp	r2, #0
   81fd2:	d041      	beq.n	82058 <memset+0x90>
   81fd4:	b2ca      	uxtb	r2, r1
   81fd6:	4603      	mov	r3, r0
   81fd8:	e002      	b.n	81fe0 <memset+0x18>
   81fda:	f114 34ff 	adds.w	r4, r4, #4294967295
   81fde:	d33b      	bcc.n	82058 <memset+0x90>
   81fe0:	f803 2b01 	strb.w	r2, [r3], #1
   81fe4:	079d      	lsls	r5, r3, #30
   81fe6:	d1f8      	bne.n	81fda <memset+0x12>
   81fe8:	2c03      	cmp	r4, #3
   81fea:	d92e      	bls.n	8204a <memset+0x82>
   81fec:	b2cd      	uxtb	r5, r1
   81fee:	ea45 2505 	orr.w	r5, r5, r5, lsl #8
   81ff2:	2c0f      	cmp	r4, #15
   81ff4:	ea45 4505 	orr.w	r5, r5, r5, lsl #16
   81ff8:	d919      	bls.n	8202e <memset+0x66>
   81ffa:	4626      	mov	r6, r4
   81ffc:	f103 0210 	add.w	r2, r3, #16
   82000:	3e10      	subs	r6, #16
   82002:	2e0f      	cmp	r6, #15
   82004:	f842 5c10 	str.w	r5, [r2, #-16]
   82008:	f842 5c0c 	str.w	r5, [r2, #-12]
   8200c:	f842 5c08 	str.w	r5, [r2, #-8]
   82010:	f842 5c04 	str.w	r5, [r2, #-4]
   82014:	f102 0210 	add.w	r2, r2, #16
   82018:	d8f2      	bhi.n	82000 <memset+0x38>
   8201a:	f1a4 0210 	sub.w	r2, r4, #16
   8201e:	f022 020f 	bic.w	r2, r2, #15
   82022:	f004 040f 	and.w	r4, r4, #15
   82026:	3210      	adds	r2, #16
   82028:	2c03      	cmp	r4, #3
   8202a:	4413      	add	r3, r2
   8202c:	d90d      	bls.n	8204a <memset+0x82>
   8202e:	461e      	mov	r6, r3
   82030:	4622      	mov	r2, r4
   82032:	3a04      	subs	r2, #4
   82034:	2a03      	cmp	r2, #3
   82036:	f846 5b04 	str.w	r5, [r6], #4
   8203a:	d8fa      	bhi.n	82032 <memset+0x6a>
   8203c:	1f22      	subs	r2, r4, #4
   8203e:	f022 0203 	bic.w	r2, r2, #3
   82042:	3204      	adds	r2, #4
   82044:	4413      	add	r3, r2
   82046:	f004 0403 	and.w	r4, r4, #3
   8204a:	b12c      	cbz	r4, 82058 <memset+0x90>
   8204c:	b2c9      	uxtb	r1, r1
   8204e:	441c      	add	r4, r3
   82050:	f803 1b01 	strb.w	r1, [r3], #1
   82054:	429c      	cmp	r4, r3
   82056:	d1fb      	bne.n	82050 <memset+0x88>
   82058:	bc70      	pop	{r4, r5, r6}
   8205a:	4770      	bx	lr
   8205c:	4614      	mov	r4, r2
   8205e:	4603      	mov	r3, r0
   82060:	e7c2      	b.n	81fe8 <memset+0x20>
   82062:	bf00      	nop

00082064 <_puts_r>:
   82064:	b5f0      	push	{r4, r5, r6, r7, lr}
   82066:	4605      	mov	r5, r0
   82068:	b089      	sub	sp, #36	; 0x24
   8206a:	4608      	mov	r0, r1
   8206c:	460c      	mov	r4, r1
   8206e:	2701      	movs	r7, #1
   82070:	f000 f84e 	bl	82110 <strlen>
   82074:	2602      	movs	r6, #2
   82076:	19c3      	adds	r3, r0, r7
   82078:	4920      	ldr	r1, [pc, #128]	; (820fc <_puts_r+0x98>)
   8207a:	9303      	str	r3, [sp, #12]
   8207c:	6bab      	ldr	r3, [r5, #56]	; 0x38
   8207e:	aa04      	add	r2, sp, #16
   82080:	9404      	str	r4, [sp, #16]
   82082:	9005      	str	r0, [sp, #20]
   82084:	68ac      	ldr	r4, [r5, #8]
   82086:	9707      	str	r7, [sp, #28]
   82088:	9602      	str	r6, [sp, #8]
   8208a:	9106      	str	r1, [sp, #24]
   8208c:	9201      	str	r2, [sp, #4]
   8208e:	b353      	cbz	r3, 820e6 <_puts_r+0x82>
   82090:	6e63      	ldr	r3, [r4, #100]	; 0x64
   82092:	f013 0f01 	tst.w	r3, #1
   82096:	f9b4 300c 	ldrsh.w	r3, [r4, #12]
   8209a:	b29a      	uxth	r2, r3
   8209c:	d101      	bne.n	820a2 <_puts_r+0x3e>
   8209e:	0590      	lsls	r0, r2, #22
   820a0:	d525      	bpl.n	820ee <_puts_r+0x8a>
   820a2:	0491      	lsls	r1, r2, #18
   820a4:	d406      	bmi.n	820b4 <_puts_r+0x50>
   820a6:	6e62      	ldr	r2, [r4, #100]	; 0x64
   820a8:	f443 5300 	orr.w	r3, r3, #8192	; 0x2000
   820ac:	f422 5200 	bic.w	r2, r2, #8192	; 0x2000
   820b0:	81a3      	strh	r3, [r4, #12]
   820b2:	6662      	str	r2, [r4, #100]	; 0x64
   820b4:	4628      	mov	r0, r5
   820b6:	aa01      	add	r2, sp, #4
   820b8:	4621      	mov	r1, r4
   820ba:	f000 fb4b 	bl	82754 <__sfvwrite_r>
   820be:	6e63      	ldr	r3, [r4, #100]	; 0x64
   820c0:	2800      	cmp	r0, #0
   820c2:	bf0c      	ite	eq
   820c4:	250a      	moveq	r5, #10
   820c6:	f04f 35ff 	movne.w	r5, #4294967295
   820ca:	07da      	lsls	r2, r3, #31
   820cc:	d402      	bmi.n	820d4 <_puts_r+0x70>
   820ce:	89a3      	ldrh	r3, [r4, #12]
   820d0:	059b      	lsls	r3, r3, #22
   820d2:	d502      	bpl.n	820da <_puts_r+0x76>
   820d4:	4628      	mov	r0, r5
   820d6:	b009      	add	sp, #36	; 0x24
   820d8:	bdf0      	pop	{r4, r5, r6, r7, pc}
   820da:	6da0      	ldr	r0, [r4, #88]	; 0x58
   820dc:	f000 fce2 	bl	82aa4 <__retarget_lock_release_recursive>
   820e0:	4628      	mov	r0, r5
   820e2:	b009      	add	sp, #36	; 0x24
   820e4:	bdf0      	pop	{r4, r5, r6, r7, pc}
   820e6:	4628      	mov	r0, r5
   820e8:	f000 f9a8 	bl	8243c <__sinit>
   820ec:	e7d0      	b.n	82090 <_puts_r+0x2c>
   820ee:	6da0      	ldr	r0, [r4, #88]	; 0x58
   820f0:	f000 fcd6 	bl	82aa0 <__retarget_lock_acquire_recursive>
   820f4:	f9b4 300c 	ldrsh.w	r3, [r4, #12]
   820f8:	b29a      	uxth	r2, r3
   820fa:	e7d2      	b.n	820a2 <_puts_r+0x3e>
   820fc:	00083a94 	.word	0x00083a94

00082100 <puts>:
   82100:	4b02      	ldr	r3, [pc, #8]	; (8210c <puts+0xc>)
   82102:	4601      	mov	r1, r0
   82104:	6818      	ldr	r0, [r3, #0]
   82106:	f7ff bfad 	b.w	82064 <_puts_r>
   8210a:	bf00      	nop
   8210c:	20000004 	.word	0x20000004

00082110 <strlen>:
   82110:	f020 0103 	bic.w	r1, r0, #3
   82114:	f010 0003 	ands.w	r0, r0, #3
   82118:	f1c0 0000 	rsb	r0, r0, #0
   8211c:	f851 3b04 	ldr.w	r3, [r1], #4
   82120:	f100 0c04 	add.w	ip, r0, #4
   82124:	ea4f 0ccc 	mov.w	ip, ip, lsl #3
   82128:	f06f 0200 	mvn.w	r2, #0
   8212c:	bf1c      	itt	ne
   8212e:	fa22 f20c 	lsrne.w	r2, r2, ip
   82132:	4313      	orrne	r3, r2
   82134:	f04f 0c01 	mov.w	ip, #1
   82138:	ea4c 2c0c 	orr.w	ip, ip, ip, lsl #8
   8213c:	ea4c 4c0c 	orr.w	ip, ip, ip, lsl #16
   82140:	eba3 020c 	sub.w	r2, r3, ip
   82144:	ea22 0203 	bic.w	r2, r2, r3
   82148:	ea12 12cc 	ands.w	r2, r2, ip, lsl #7
   8214c:	bf04      	itt	eq
   8214e:	f851 3b04 	ldreq.w	r3, [r1], #4
   82152:	3004      	addeq	r0, #4
   82154:	d0f4      	beq.n	82140 <strlen+0x30>
   82156:	f1c2 0100 	rsb	r1, r2, #0
   8215a:	ea02 0201 	and.w	r2, r2, r1
   8215e:	fab2 f282 	clz	r2, r2
   82162:	f1c2 021f 	rsb	r2, r2, #31
   82166:	eb00 00d2 	add.w	r0, r0, r2, lsr #3
   8216a:	4770      	bx	lr

0008216c <__swsetup_r>:
   8216c:	b538      	push	{r3, r4, r5, lr}
   8216e:	4b30      	ldr	r3, [pc, #192]	; (82230 <__swsetup_r+0xc4>)
   82170:	4605      	mov	r5, r0
   82172:	6818      	ldr	r0, [r3, #0]
   82174:	460c      	mov	r4, r1
   82176:	b110      	cbz	r0, 8217e <__swsetup_r+0x12>
   82178:	6b83      	ldr	r3, [r0, #56]	; 0x38
   8217a:	2b00      	cmp	r3, #0
   8217c:	d038      	beq.n	821f0 <__swsetup_r+0x84>
   8217e:	f9b4 200c 	ldrsh.w	r2, [r4, #12]
   82182:	b293      	uxth	r3, r2
   82184:	0718      	lsls	r0, r3, #28
   82186:	d50c      	bpl.n	821a2 <__swsetup_r+0x36>
   82188:	6920      	ldr	r0, [r4, #16]
   8218a:	b1a8      	cbz	r0, 821b8 <__swsetup_r+0x4c>
   8218c:	f013 0201 	ands.w	r2, r3, #1
   82190:	d01e      	beq.n	821d0 <__swsetup_r+0x64>
   82192:	2200      	movs	r2, #0
   82194:	6963      	ldr	r3, [r4, #20]
   82196:	60a2      	str	r2, [r4, #8]
   82198:	425b      	negs	r3, r3
   8219a:	61a3      	str	r3, [r4, #24]
   8219c:	b1f0      	cbz	r0, 821dc <__swsetup_r+0x70>
   8219e:	2000      	movs	r0, #0
   821a0:	bd38      	pop	{r3, r4, r5, pc}
   821a2:	06d9      	lsls	r1, r3, #27
   821a4:	d53b      	bpl.n	8221e <__swsetup_r+0xb2>
   821a6:	0758      	lsls	r0, r3, #29
   821a8:	d425      	bmi.n	821f6 <__swsetup_r+0x8a>
   821aa:	6920      	ldr	r0, [r4, #16]
   821ac:	f042 0308 	orr.w	r3, r2, #8
   821b0:	81a3      	strh	r3, [r4, #12]
   821b2:	b29b      	uxth	r3, r3
   821b4:	2800      	cmp	r0, #0
   821b6:	d1e9      	bne.n	8218c <__swsetup_r+0x20>
   821b8:	f403 7220 	and.w	r2, r3, #640	; 0x280
   821bc:	f5b2 7f00 	cmp.w	r2, #512	; 0x200
   821c0:	d0e4      	beq.n	8218c <__swsetup_r+0x20>
   821c2:	4628      	mov	r0, r5
   821c4:	4621      	mov	r1, r4
   821c6:	f000 fc9d 	bl	82b04 <__smakebuf_r>
   821ca:	89a3      	ldrh	r3, [r4, #12]
   821cc:	6920      	ldr	r0, [r4, #16]
   821ce:	e7dd      	b.n	8218c <__swsetup_r+0x20>
   821d0:	0799      	lsls	r1, r3, #30
   821d2:	bf58      	it	pl
   821d4:	6962      	ldrpl	r2, [r4, #20]
   821d6:	60a2      	str	r2, [r4, #8]
   821d8:	2800      	cmp	r0, #0
   821da:	d1e0      	bne.n	8219e <__swsetup_r+0x32>
   821dc:	f9b4 300c 	ldrsh.w	r3, [r4, #12]
   821e0:	061a      	lsls	r2, r3, #24
   821e2:	d5dd      	bpl.n	821a0 <__swsetup_r+0x34>
   821e4:	f043 0340 	orr.w	r3, r3, #64	; 0x40
   821e8:	81a3      	strh	r3, [r4, #12]
   821ea:	f04f 30ff 	mov.w	r0, #4294967295
   821ee:	bd38      	pop	{r3, r4, r5, pc}
   821f0:	f000 f924 	bl	8243c <__sinit>
   821f4:	e7c3      	b.n	8217e <__swsetup_r+0x12>
   821f6:	6b21      	ldr	r1, [r4, #48]	; 0x30
   821f8:	b151      	cbz	r1, 82210 <__swsetup_r+0xa4>
   821fa:	f104 0340 	add.w	r3, r4, #64	; 0x40
   821fe:	4299      	cmp	r1, r3
   82200:	d004      	beq.n	8220c <__swsetup_r+0xa0>
   82202:	4628      	mov	r0, r5
   82204:	f000 f9c0 	bl	82588 <_free_r>
   82208:	f9b4 200c 	ldrsh.w	r2, [r4, #12]
   8220c:	2300      	movs	r3, #0
   8220e:	6323      	str	r3, [r4, #48]	; 0x30
   82210:	2300      	movs	r3, #0
   82212:	6920      	ldr	r0, [r4, #16]
   82214:	f022 0224 	bic.w	r2, r2, #36	; 0x24
   82218:	e884 0009 	stmia.w	r4, {r0, r3}
   8221c:	e7c6      	b.n	821ac <__swsetup_r+0x40>
   8221e:	2309      	movs	r3, #9
   82220:	f042 0240 	orr.w	r2, r2, #64	; 0x40
   82224:	602b      	str	r3, [r5, #0]
   82226:	f04f 30ff 	mov.w	r0, #4294967295
   8222a:	81a2      	strh	r2, [r4, #12]
   8222c:	bd38      	pop	{r3, r4, r5, pc}
   8222e:	bf00      	nop
   82230:	20000004 	.word	0x20000004

00082234 <register_fini>:
   82234:	4b02      	ldr	r3, [pc, #8]	; (82240 <register_fini+0xc>)
   82236:	b113      	cbz	r3, 8223e <register_fini+0xa>
   82238:	4802      	ldr	r0, [pc, #8]	; (82244 <register_fini+0x10>)
   8223a:	f000 b805 	b.w	82248 <atexit>
   8223e:	4770      	bx	lr
   82240:	00000000 	.word	0x00000000
   82244:	000824b5 	.word	0x000824b5

00082248 <atexit>:
   82248:	2300      	movs	r3, #0
   8224a:	4601      	mov	r1, r0
   8224c:	461a      	mov	r2, r3
   8224e:	4618      	mov	r0, r3
   82250:	f001 ba92 	b.w	83778 <__register_exitproc>

00082254 <__sflush_r>:
   82254:	f9b1 300c 	ldrsh.w	r3, [r1, #12]
   82258:	e92d 41f0 	stmdb	sp!, {r4, r5, r6, r7, r8, lr}
   8225c:	b29a      	uxth	r2, r3
   8225e:	460d      	mov	r5, r1
   82260:	0711      	lsls	r1, r2, #28
   82262:	4680      	mov	r8, r0
   82264:	d43a      	bmi.n	822dc <__sflush_r+0x88>
   82266:	686a      	ldr	r2, [r5, #4]
   82268:	f443 6300 	orr.w	r3, r3, #2048	; 0x800
   8226c:	2a00      	cmp	r2, #0
   8226e:	81ab      	strh	r3, [r5, #12]
   82270:	dd70      	ble.n	82354 <__sflush_r+0x100>
   82272:	6aac      	ldr	r4, [r5, #40]	; 0x28
   82274:	2c00      	cmp	r4, #0
   82276:	d04a      	beq.n	8230e <__sflush_r+0xba>
   82278:	2200      	movs	r2, #0
   8227a:	b29b      	uxth	r3, r3
   8227c:	f8d8 6000 	ldr.w	r6, [r8]
   82280:	f8c8 2000 	str.w	r2, [r8]
   82284:	f413 5280 	ands.w	r2, r3, #4096	; 0x1000
   82288:	d068      	beq.n	8235c <__sflush_r+0x108>
   8228a:	6d2a      	ldr	r2, [r5, #80]	; 0x50
   8228c:	075f      	lsls	r7, r3, #29
   8228e:	d505      	bpl.n	8229c <__sflush_r+0x48>
   82290:	6869      	ldr	r1, [r5, #4]
   82292:	6b2b      	ldr	r3, [r5, #48]	; 0x30
   82294:	1a52      	subs	r2, r2, r1
   82296:	b10b      	cbz	r3, 8229c <__sflush_r+0x48>
   82298:	6beb      	ldr	r3, [r5, #60]	; 0x3c
   8229a:	1ad2      	subs	r2, r2, r3
   8229c:	2300      	movs	r3, #0
   8229e:	69e9      	ldr	r1, [r5, #28]
   822a0:	4640      	mov	r0, r8
   822a2:	47a0      	blx	r4
   822a4:	1c44      	adds	r4, r0, #1
   822a6:	d03d      	beq.n	82324 <__sflush_r+0xd0>
   822a8:	2100      	movs	r1, #0
   822aa:	f9b5 300c 	ldrsh.w	r3, [r5, #12]
   822ae:	692a      	ldr	r2, [r5, #16]
   822b0:	f423 6300 	bic.w	r3, r3, #2048	; 0x800
   822b4:	81ab      	strh	r3, [r5, #12]
   822b6:	04db      	lsls	r3, r3, #19
   822b8:	6069      	str	r1, [r5, #4]
   822ba:	602a      	str	r2, [r5, #0]
   822bc:	d448      	bmi.n	82350 <__sflush_r+0xfc>
   822be:	6b29      	ldr	r1, [r5, #48]	; 0x30
   822c0:	f8c8 6000 	str.w	r6, [r8]
   822c4:	b319      	cbz	r1, 8230e <__sflush_r+0xba>
   822c6:	f105 0340 	add.w	r3, r5, #64	; 0x40
   822ca:	4299      	cmp	r1, r3
   822cc:	d002      	beq.n	822d4 <__sflush_r+0x80>
   822ce:	4640      	mov	r0, r8
   822d0:	f000 f95a 	bl	82588 <_free_r>
   822d4:	2000      	movs	r0, #0
   822d6:	6328      	str	r0, [r5, #48]	; 0x30
   822d8:	e8bd 81f0 	ldmia.w	sp!, {r4, r5, r6, r7, r8, pc}
   822dc:	692e      	ldr	r6, [r5, #16]
   822de:	b1b6      	cbz	r6, 8230e <__sflush_r+0xba>
   822e0:	0791      	lsls	r1, r2, #30
   822e2:	bf18      	it	ne
   822e4:	2300      	movne	r3, #0
   822e6:	682c      	ldr	r4, [r5, #0]
   822e8:	bf08      	it	eq
   822ea:	696b      	ldreq	r3, [r5, #20]
   822ec:	602e      	str	r6, [r5, #0]
   822ee:	1ba4      	subs	r4, r4, r6
   822f0:	60ab      	str	r3, [r5, #8]
   822f2:	e00a      	b.n	8230a <__sflush_r+0xb6>
   822f4:	4623      	mov	r3, r4
   822f6:	4632      	mov	r2, r6
   822f8:	6a6f      	ldr	r7, [r5, #36]	; 0x24
   822fa:	69e9      	ldr	r1, [r5, #28]
   822fc:	4640      	mov	r0, r8
   822fe:	47b8      	blx	r7
   82300:	2800      	cmp	r0, #0
   82302:	eba4 0400 	sub.w	r4, r4, r0
   82306:	4406      	add	r6, r0
   82308:	dd04      	ble.n	82314 <__sflush_r+0xc0>
   8230a:	2c00      	cmp	r4, #0
   8230c:	dcf2      	bgt.n	822f4 <__sflush_r+0xa0>
   8230e:	2000      	movs	r0, #0
   82310:	e8bd 81f0 	ldmia.w	sp!, {r4, r5, r6, r7, r8, pc}
   82314:	89ab      	ldrh	r3, [r5, #12]
   82316:	f04f 30ff 	mov.w	r0, #4294967295
   8231a:	f043 0340 	orr.w	r3, r3, #64	; 0x40
   8231e:	81ab      	strh	r3, [r5, #12]
   82320:	e8bd 81f0 	ldmia.w	sp!, {r4, r5, r6, r7, r8, pc}
   82324:	f8d8 4000 	ldr.w	r4, [r8]
   82328:	2c1d      	cmp	r4, #29
   8232a:	d8f3      	bhi.n	82314 <__sflush_r+0xc0>
   8232c:	4b16      	ldr	r3, [pc, #88]	; (82388 <__sflush_r+0x134>)
   8232e:	40e3      	lsrs	r3, r4
   82330:	43db      	mvns	r3, r3
   82332:	f013 0301 	ands.w	r3, r3, #1
   82336:	d1ed      	bne.n	82314 <__sflush_r+0xc0>
   82338:	f9b5 200c 	ldrsh.w	r2, [r5, #12]
   8233c:	6929      	ldr	r1, [r5, #16]
   8233e:	f422 6200 	bic.w	r2, r2, #2048	; 0x800
   82342:	81aa      	strh	r2, [r5, #12]
   82344:	04d2      	lsls	r2, r2, #19
   82346:	606b      	str	r3, [r5, #4]
   82348:	6029      	str	r1, [r5, #0]
   8234a:	d5b8      	bpl.n	822be <__sflush_r+0x6a>
   8234c:	2c00      	cmp	r4, #0
   8234e:	d1b6      	bne.n	822be <__sflush_r+0x6a>
   82350:	6528      	str	r0, [r5, #80]	; 0x50
   82352:	e7b4      	b.n	822be <__sflush_r+0x6a>
   82354:	6bea      	ldr	r2, [r5, #60]	; 0x3c
   82356:	2a00      	cmp	r2, #0
   82358:	dc8b      	bgt.n	82272 <__sflush_r+0x1e>
   8235a:	e7d8      	b.n	8230e <__sflush_r+0xba>
   8235c:	2301      	movs	r3, #1
   8235e:	69e9      	ldr	r1, [r5, #28]
   82360:	4640      	mov	r0, r8
   82362:	47a0      	blx	r4
   82364:	1c43      	adds	r3, r0, #1
   82366:	4602      	mov	r2, r0
   82368:	d002      	beq.n	82370 <__sflush_r+0x11c>
   8236a:	89ab      	ldrh	r3, [r5, #12]
   8236c:	6aac      	ldr	r4, [r5, #40]	; 0x28
   8236e:	e78d      	b.n	8228c <__sflush_r+0x38>
   82370:	f8d8 3000 	ldr.w	r3, [r8]
   82374:	2b00      	cmp	r3, #0
   82376:	d0f8      	beq.n	8236a <__sflush_r+0x116>
   82378:	2b1d      	cmp	r3, #29
   8237a:	d001      	beq.n	82380 <__sflush_r+0x12c>
   8237c:	2b16      	cmp	r3, #22
   8237e:	d1c9      	bne.n	82314 <__sflush_r+0xc0>
   82380:	f8c8 6000 	str.w	r6, [r8]
   82384:	e7c3      	b.n	8230e <__sflush_r+0xba>
   82386:	bf00      	nop
   82388:	20400001 	.word	0x20400001

0008238c <_fflush_r>:
   8238c:	b538      	push	{r3, r4, r5, lr}
   8238e:	460d      	mov	r5, r1
   82390:	4604      	mov	r4, r0
   82392:	b108      	cbz	r0, 82398 <_fflush_r+0xc>
   82394:	6b83      	ldr	r3, [r0, #56]	; 0x38
   82396:	b1bb      	cbz	r3, 823c8 <_fflush_r+0x3c>
   82398:	f9b5 000c 	ldrsh.w	r0, [r5, #12]
   8239c:	b188      	cbz	r0, 823c2 <_fflush_r+0x36>
   8239e:	6e6b      	ldr	r3, [r5, #100]	; 0x64
   823a0:	07db      	lsls	r3, r3, #31
   823a2:	d401      	bmi.n	823a8 <_fflush_r+0x1c>
   823a4:	0581      	lsls	r1, r0, #22
   823a6:	d517      	bpl.n	823d8 <_fflush_r+0x4c>
   823a8:	4620      	mov	r0, r4
   823aa:	4629      	mov	r1, r5
   823ac:	f7ff ff52 	bl	82254 <__sflush_r>
   823b0:	6e6b      	ldr	r3, [r5, #100]	; 0x64
   823b2:	4604      	mov	r4, r0
   823b4:	07da      	lsls	r2, r3, #31
   823b6:	d402      	bmi.n	823be <_fflush_r+0x32>
   823b8:	89ab      	ldrh	r3, [r5, #12]
   823ba:	059b      	lsls	r3, r3, #22
   823bc:	d507      	bpl.n	823ce <_fflush_r+0x42>
   823be:	4620      	mov	r0, r4
   823c0:	bd38      	pop	{r3, r4, r5, pc}
   823c2:	4604      	mov	r4, r0
   823c4:	4620      	mov	r0, r4
   823c6:	bd38      	pop	{r3, r4, r5, pc}
   823c8:	f000 f838 	bl	8243c <__sinit>
   823cc:	e7e4      	b.n	82398 <_fflush_r+0xc>
   823ce:	6da8      	ldr	r0, [r5, #88]	; 0x58
   823d0:	f000 fb68 	bl	82aa4 <__retarget_lock_release_recursive>
   823d4:	4620      	mov	r0, r4
   823d6:	bd38      	pop	{r3, r4, r5, pc}
   823d8:	6da8      	ldr	r0, [r5, #88]	; 0x58
   823da:	f000 fb61 	bl	82aa0 <__retarget_lock_acquire_recursive>
   823de:	e7e3      	b.n	823a8 <_fflush_r+0x1c>

000823e0 <_cleanup_r>:
   823e0:	4901      	ldr	r1, [pc, #4]	; (823e8 <_cleanup_r+0x8>)
   823e2:	f000 bb31 	b.w	82a48 <_fwalk_reent>
   823e6:	bf00      	nop
   823e8:	00083861 	.word	0x00083861

000823ec <std.isra.0>:
   823ec:	2300      	movs	r3, #0
   823ee:	b510      	push	{r4, lr}
   823f0:	4604      	mov	r4, r0
   823f2:	8181      	strh	r1, [r0, #12]
   823f4:	81c2      	strh	r2, [r0, #14]
   823f6:	6003      	str	r3, [r0, #0]
   823f8:	6043      	str	r3, [r0, #4]
   823fa:	6083      	str	r3, [r0, #8]
   823fc:	6643      	str	r3, [r0, #100]	; 0x64
   823fe:	6103      	str	r3, [r0, #16]
   82400:	6143      	str	r3, [r0, #20]
   82402:	6183      	str	r3, [r0, #24]
   82404:	4619      	mov	r1, r3
   82406:	2208      	movs	r2, #8
   82408:	305c      	adds	r0, #92	; 0x5c
   8240a:	f7ff fddd 	bl	81fc8 <memset>
   8240e:	4807      	ldr	r0, [pc, #28]	; (8242c <std.isra.0+0x40>)
   82410:	4907      	ldr	r1, [pc, #28]	; (82430 <std.isra.0+0x44>)
   82412:	4a08      	ldr	r2, [pc, #32]	; (82434 <std.isra.0+0x48>)
   82414:	4b08      	ldr	r3, [pc, #32]	; (82438 <std.isra.0+0x4c>)
   82416:	6220      	str	r0, [r4, #32]
   82418:	61e4      	str	r4, [r4, #28]
   8241a:	6261      	str	r1, [r4, #36]	; 0x24
   8241c:	62a2      	str	r2, [r4, #40]	; 0x28
   8241e:	62e3      	str	r3, [r4, #44]	; 0x2c
   82420:	f104 0058 	add.w	r0, r4, #88	; 0x58
   82424:	e8bd 4010 	ldmia.w	sp!, {r4, lr}
   82428:	f000 bb36 	b.w	82a98 <__retarget_lock_init_recursive>
   8242c:	000836c5 	.word	0x000836c5
   82430:	000836e9 	.word	0x000836e9
   82434:	00083725 	.word	0x00083725
   82438:	00083745 	.word	0x00083745

0008243c <__sinit>:
   8243c:	b510      	push	{r4, lr}
   8243e:	4604      	mov	r4, r0
   82440:	4814      	ldr	r0, [pc, #80]	; (82494 <__sinit+0x58>)
   82442:	f000 fb2d 	bl	82aa0 <__retarget_lock_acquire_recursive>
   82446:	6ba2      	ldr	r2, [r4, #56]	; 0x38
   82448:	b9fa      	cbnz	r2, 8248a <__sinit+0x4e>
   8244a:	2003      	movs	r0, #3
   8244c:	4912      	ldr	r1, [pc, #72]	; (82498 <__sinit+0x5c>)
   8244e:	f504 733b 	add.w	r3, r4, #748	; 0x2ec
   82452:	f8c4 32e8 	str.w	r3, [r4, #744]	; 0x2e8
   82456:	f8c4 22e0 	str.w	r2, [r4, #736]	; 0x2e0
   8245a:	f8c4 02e4 	str.w	r0, [r4, #740]	; 0x2e4
   8245e:	63e1      	str	r1, [r4, #60]	; 0x3c
   82460:	6860      	ldr	r0, [r4, #4]
   82462:	2104      	movs	r1, #4
   82464:	f7ff ffc2 	bl	823ec <std.isra.0>
   82468:	68a0      	ldr	r0, [r4, #8]
   8246a:	2201      	movs	r2, #1
   8246c:	2109      	movs	r1, #9
   8246e:	f7ff ffbd 	bl	823ec <std.isra.0>
   82472:	68e0      	ldr	r0, [r4, #12]
   82474:	2202      	movs	r2, #2
   82476:	2112      	movs	r1, #18
   82478:	f7ff ffb8 	bl	823ec <std.isra.0>
   8247c:	2301      	movs	r3, #1
   8247e:	4805      	ldr	r0, [pc, #20]	; (82494 <__sinit+0x58>)
   82480:	63a3      	str	r3, [r4, #56]	; 0x38
   82482:	e8bd 4010 	ldmia.w	sp!, {r4, lr}
   82486:	f000 bb0d 	b.w	82aa4 <__retarget_lock_release_recursive>
   8248a:	4802      	ldr	r0, [pc, #8]	; (82494 <__sinit+0x58>)
   8248c:	e8bd 4010 	ldmia.w	sp!, {r4, lr}
   82490:	f000 bb08 	b.w	82aa4 <__retarget_lock_release_recursive>
   82494:	20000cfc 	.word	0x20000cfc
   82498:	000823e1 	.word	0x000823e1

0008249c <__sfp_lock_acquire>:
   8249c:	4801      	ldr	r0, [pc, #4]	; (824a4 <__sfp_lock_acquire+0x8>)
   8249e:	f000 baff 	b.w	82aa0 <__retarget_lock_acquire_recursive>
   824a2:	bf00      	nop
   824a4:	20000d10 	.word	0x20000d10

000824a8 <__sfp_lock_release>:
   824a8:	4801      	ldr	r0, [pc, #4]	; (824b0 <__sfp_lock_release+0x8>)
   824aa:	f000 bafb 	b.w	82aa4 <__retarget_lock_release_recursive>
   824ae:	bf00      	nop
   824b0:	20000d10 	.word	0x20000d10

000824b4 <__libc_fini_array>:
   824b4:	b538      	push	{r3, r4, r5, lr}
   824b6:	4c0a      	ldr	r4, [pc, #40]	; (824e0 <__libc_fini_array+0x2c>)
   824b8:	4d0a      	ldr	r5, [pc, #40]	; (824e4 <__libc_fini_array+0x30>)
   824ba:	1b64      	subs	r4, r4, r5
   824bc:	10a4      	asrs	r4, r4, #2
   824be:	d00a      	beq.n	824d6 <__libc_fini_array+0x22>
   824c0:	f104 4380 	add.w	r3, r4, #1073741824	; 0x40000000
   824c4:	3b01      	subs	r3, #1
   824c6:	eb05 0583 	add.w	r5, r5, r3, lsl #2
   824ca:	3c01      	subs	r4, #1
   824cc:	f855 3904 	ldr.w	r3, [r5], #-4
   824d0:	4798      	blx	r3
   824d2:	2c00      	cmp	r4, #0
   824d4:	d1f9      	bne.n	824ca <__libc_fini_array+0x16>
   824d6:	e8bd 4038 	ldmia.w	sp!, {r3, r4, r5, lr}
   824da:	f001 bae9 	b.w	83ab0 <_fini>
   824de:	bf00      	nop
   824e0:	00083ac0 	.word	0x00083ac0
   824e4:	00083abc 	.word	0x00083abc

000824e8 <_malloc_trim_r>:
   824e8:	b5f8      	push	{r3, r4, r5, r6, r7, lr}
   824ea:	460c      	mov	r4, r1
   824ec:	4f23      	ldr	r7, [pc, #140]	; (8257c <_malloc_trim_r+0x94>)
   824ee:	4606      	mov	r6, r0
   824f0:	f000 ff14 	bl	8331c <__malloc_lock>
   824f4:	68bb      	ldr	r3, [r7, #8]
   824f6:	f5c4 617e 	rsb	r1, r4, #4064	; 0xfe0
   824fa:	685d      	ldr	r5, [r3, #4]
   824fc:	310f      	adds	r1, #15
   824fe:	f025 0503 	bic.w	r5, r5, #3
   82502:	4429      	add	r1, r5
   82504:	f421 617f 	bic.w	r1, r1, #4080	; 0xff0
   82508:	f021 010f 	bic.w	r1, r1, #15
   8250c:	f5a1 5480 	sub.w	r4, r1, #4096	; 0x1000
   82510:	f5b4 5f80 	cmp.w	r4, #4096	; 0x1000
   82514:	db07      	blt.n	82526 <_malloc_trim_r+0x3e>
   82516:	2100      	movs	r1, #0
   82518:	4630      	mov	r0, r6
   8251a:	f001 f8c1 	bl	836a0 <_sbrk_r>
   8251e:	68bb      	ldr	r3, [r7, #8]
   82520:	442b      	add	r3, r5
   82522:	4298      	cmp	r0, r3
   82524:	d004      	beq.n	82530 <_malloc_trim_r+0x48>
   82526:	4630      	mov	r0, r6
   82528:	f000 fefe 	bl	83328 <__malloc_unlock>
   8252c:	2000      	movs	r0, #0
   8252e:	bdf8      	pop	{r3, r4, r5, r6, r7, pc}
   82530:	4261      	negs	r1, r4
   82532:	4630      	mov	r0, r6
   82534:	f001 f8b4 	bl	836a0 <_sbrk_r>
   82538:	3001      	adds	r0, #1
   8253a:	d00d      	beq.n	82558 <_malloc_trim_r+0x70>
   8253c:	4b10      	ldr	r3, [pc, #64]	; (82580 <_malloc_trim_r+0x98>)
   8253e:	68ba      	ldr	r2, [r7, #8]
   82540:	6819      	ldr	r1, [r3, #0]
   82542:	1b2d      	subs	r5, r5, r4
   82544:	f045 0501 	orr.w	r5, r5, #1
   82548:	4630      	mov	r0, r6
   8254a:	1b09      	subs	r1, r1, r4
   8254c:	6055      	str	r5, [r2, #4]
   8254e:	6019      	str	r1, [r3, #0]
   82550:	f000 feea 	bl	83328 <__malloc_unlock>
   82554:	2001      	movs	r0, #1
   82556:	bdf8      	pop	{r3, r4, r5, r6, r7, pc}
   82558:	2100      	movs	r1, #0
   8255a:	4630      	mov	r0, r6
   8255c:	f001 f8a0 	bl	836a0 <_sbrk_r>
   82560:	68ba      	ldr	r2, [r7, #8]
   82562:	1a83      	subs	r3, r0, r2
   82564:	2b0f      	cmp	r3, #15
   82566:	ddde      	ble.n	82526 <_malloc_trim_r+0x3e>
   82568:	4c06      	ldr	r4, [pc, #24]	; (82584 <_malloc_trim_r+0x9c>)
   8256a:	4905      	ldr	r1, [pc, #20]	; (82580 <_malloc_trim_r+0x98>)
   8256c:	6824      	ldr	r4, [r4, #0]
   8256e:	f043 0301 	orr.w	r3, r3, #1
   82572:	1b00      	subs	r0, r0, r4
   82574:	6053      	str	r3, [r2, #4]
   82576:	6008      	str	r0, [r1, #0]
   82578:	e7d5      	b.n	82526 <_malloc_trim_r+0x3e>
   8257a:	bf00      	nop
   8257c:	20000434 	.word	0x20000434
   82580:	20000c8c 	.word	0x20000c8c
   82584:	2000083c 	.word	0x2000083c

00082588 <_free_r>:
   82588:	2900      	cmp	r1, #0
   8258a:	d044      	beq.n	82616 <_free_r+0x8e>
   8258c:	e92d 41f0 	stmdb	sp!, {r4, r5, r6, r7, r8, lr}
   82590:	460d      	mov	r5, r1
   82592:	4680      	mov	r8, r0
   82594:	f000 fec2 	bl	8331c <__malloc_lock>
   82598:	f855 7c04 	ldr.w	r7, [r5, #-4]
   8259c:	4969      	ldr	r1, [pc, #420]	; (82744 <_free_r+0x1bc>)
   8259e:	f1a5 0408 	sub.w	r4, r5, #8
   825a2:	f027 0301 	bic.w	r3, r7, #1
   825a6:	18e2      	adds	r2, r4, r3
   825a8:	688e      	ldr	r6, [r1, #8]
   825aa:	6850      	ldr	r0, [r2, #4]
   825ac:	42b2      	cmp	r2, r6
   825ae:	f020 0003 	bic.w	r0, r0, #3
   825b2:	d05e      	beq.n	82672 <_free_r+0xea>
   825b4:	07fe      	lsls	r6, r7, #31
   825b6:	6050      	str	r0, [r2, #4]
   825b8:	d40b      	bmi.n	825d2 <_free_r+0x4a>
   825ba:	f855 7c08 	ldr.w	r7, [r5, #-8]
   825be:	f101 0e08 	add.w	lr, r1, #8
   825c2:	1be4      	subs	r4, r4, r7
   825c4:	68a5      	ldr	r5, [r4, #8]
   825c6:	443b      	add	r3, r7
   825c8:	4575      	cmp	r5, lr
   825ca:	d06d      	beq.n	826a8 <_free_r+0x120>
   825cc:	68e7      	ldr	r7, [r4, #12]
   825ce:	60ef      	str	r7, [r5, #12]
   825d0:	60bd      	str	r5, [r7, #8]
   825d2:	1815      	adds	r5, r2, r0
   825d4:	686d      	ldr	r5, [r5, #4]
   825d6:	07ed      	lsls	r5, r5, #31
   825d8:	d53e      	bpl.n	82658 <_free_r+0xd0>
   825da:	f043 0201 	orr.w	r2, r3, #1
   825de:	6062      	str	r2, [r4, #4]
   825e0:	50e3      	str	r3, [r4, r3]
   825e2:	f5b3 7f00 	cmp.w	r3, #512	; 0x200
   825e6:	d217      	bcs.n	82618 <_free_r+0x90>
   825e8:	2201      	movs	r2, #1
   825ea:	08db      	lsrs	r3, r3, #3
   825ec:	1098      	asrs	r0, r3, #2
   825ee:	684d      	ldr	r5, [r1, #4]
   825f0:	4413      	add	r3, r2
   825f2:	f851 7033 	ldr.w	r7, [r1, r3, lsl #3]
   825f6:	4082      	lsls	r2, r0
   825f8:	eb01 00c3 	add.w	r0, r1, r3, lsl #3
   825fc:	432a      	orrs	r2, r5
   825fe:	3808      	subs	r0, #8
   82600:	60e0      	str	r0, [r4, #12]
   82602:	60a7      	str	r7, [r4, #8]
   82604:	604a      	str	r2, [r1, #4]
   82606:	f841 4033 	str.w	r4, [r1, r3, lsl #3]
   8260a:	60fc      	str	r4, [r7, #12]
   8260c:	4640      	mov	r0, r8
   8260e:	e8bd 41f0 	ldmia.w	sp!, {r4, r5, r6, r7, r8, lr}
   82612:	f000 be89 	b.w	83328 <__malloc_unlock>
   82616:	4770      	bx	lr
   82618:	0a5a      	lsrs	r2, r3, #9
   8261a:	2a04      	cmp	r2, #4
   8261c:	d852      	bhi.n	826c4 <_free_r+0x13c>
   8261e:	099a      	lsrs	r2, r3, #6
   82620:	f102 0739 	add.w	r7, r2, #57	; 0x39
   82624:	00ff      	lsls	r7, r7, #3
   82626:	f102 0538 	add.w	r5, r2, #56	; 0x38
   8262a:	19c8      	adds	r0, r1, r7
   8262c:	59ca      	ldr	r2, [r1, r7]
   8262e:	3808      	subs	r0, #8
   82630:	4290      	cmp	r0, r2
   82632:	d04f      	beq.n	826d4 <_free_r+0x14c>
   82634:	6851      	ldr	r1, [r2, #4]
   82636:	f021 0103 	bic.w	r1, r1, #3
   8263a:	428b      	cmp	r3, r1
   8263c:	d232      	bcs.n	826a4 <_free_r+0x11c>
   8263e:	6892      	ldr	r2, [r2, #8]
   82640:	4290      	cmp	r0, r2
   82642:	d1f7      	bne.n	82634 <_free_r+0xac>
   82644:	68c3      	ldr	r3, [r0, #12]
   82646:	60a0      	str	r0, [r4, #8]
   82648:	60e3      	str	r3, [r4, #12]
   8264a:	609c      	str	r4, [r3, #8]
   8264c:	60c4      	str	r4, [r0, #12]
   8264e:	4640      	mov	r0, r8
   82650:	e8bd 41f0 	ldmia.w	sp!, {r4, r5, r6, r7, r8, lr}
   82654:	f000 be68 	b.w	83328 <__malloc_unlock>
   82658:	6895      	ldr	r5, [r2, #8]
   8265a:	4f3b      	ldr	r7, [pc, #236]	; (82748 <_free_r+0x1c0>)
   8265c:	4403      	add	r3, r0
   8265e:	42bd      	cmp	r5, r7
   82660:	d040      	beq.n	826e4 <_free_r+0x15c>
   82662:	68d0      	ldr	r0, [r2, #12]
   82664:	f043 0201 	orr.w	r2, r3, #1
   82668:	60e8      	str	r0, [r5, #12]
   8266a:	6085      	str	r5, [r0, #8]
   8266c:	6062      	str	r2, [r4, #4]
   8266e:	50e3      	str	r3, [r4, r3]
   82670:	e7b7      	b.n	825e2 <_free_r+0x5a>
   82672:	07ff      	lsls	r7, r7, #31
   82674:	4403      	add	r3, r0
   82676:	d407      	bmi.n	82688 <_free_r+0x100>
   82678:	f855 5c08 	ldr.w	r5, [r5, #-8]
   8267c:	1b64      	subs	r4, r4, r5
   8267e:	68e2      	ldr	r2, [r4, #12]
   82680:	68a0      	ldr	r0, [r4, #8]
   82682:	442b      	add	r3, r5
   82684:	60c2      	str	r2, [r0, #12]
   82686:	6090      	str	r0, [r2, #8]
   82688:	4a30      	ldr	r2, [pc, #192]	; (8274c <_free_r+0x1c4>)
   8268a:	f043 0001 	orr.w	r0, r3, #1
   8268e:	6812      	ldr	r2, [r2, #0]
   82690:	6060      	str	r0, [r4, #4]
   82692:	4293      	cmp	r3, r2
   82694:	608c      	str	r4, [r1, #8]
   82696:	d3b9      	bcc.n	8260c <_free_r+0x84>
   82698:	4b2d      	ldr	r3, [pc, #180]	; (82750 <_free_r+0x1c8>)
   8269a:	4640      	mov	r0, r8
   8269c:	6819      	ldr	r1, [r3, #0]
   8269e:	f7ff ff23 	bl	824e8 <_malloc_trim_r>
   826a2:	e7b3      	b.n	8260c <_free_r+0x84>
   826a4:	4610      	mov	r0, r2
   826a6:	e7cd      	b.n	82644 <_free_r+0xbc>
   826a8:	1811      	adds	r1, r2, r0
   826aa:	6849      	ldr	r1, [r1, #4]
   826ac:	07c9      	lsls	r1, r1, #31
   826ae:	d444      	bmi.n	8273a <_free_r+0x1b2>
   826b0:	6891      	ldr	r1, [r2, #8]
   826b2:	4403      	add	r3, r0
   826b4:	68d2      	ldr	r2, [r2, #12]
   826b6:	f043 0001 	orr.w	r0, r3, #1
   826ba:	60ca      	str	r2, [r1, #12]
   826bc:	6091      	str	r1, [r2, #8]
   826be:	6060      	str	r0, [r4, #4]
   826c0:	50e3      	str	r3, [r4, r3]
   826c2:	e7a3      	b.n	8260c <_free_r+0x84>
   826c4:	2a14      	cmp	r2, #20
   826c6:	d816      	bhi.n	826f6 <_free_r+0x16e>
   826c8:	f102 075c 	add.w	r7, r2, #92	; 0x5c
   826cc:	00ff      	lsls	r7, r7, #3
   826ce:	f102 055b 	add.w	r5, r2, #91	; 0x5b
   826d2:	e7aa      	b.n	8262a <_free_r+0xa2>
   826d4:	2301      	movs	r3, #1
   826d6:	10aa      	asrs	r2, r5, #2
   826d8:	684d      	ldr	r5, [r1, #4]
   826da:	4093      	lsls	r3, r2
   826dc:	432b      	orrs	r3, r5
   826de:	604b      	str	r3, [r1, #4]
   826e0:	4603      	mov	r3, r0
   826e2:	e7b0      	b.n	82646 <_free_r+0xbe>
   826e4:	f043 0201 	orr.w	r2, r3, #1
   826e8:	614c      	str	r4, [r1, #20]
   826ea:	610c      	str	r4, [r1, #16]
   826ec:	60e5      	str	r5, [r4, #12]
   826ee:	60a5      	str	r5, [r4, #8]
   826f0:	6062      	str	r2, [r4, #4]
   826f2:	50e3      	str	r3, [r4, r3]
   826f4:	e78a      	b.n	8260c <_free_r+0x84>
   826f6:	2a54      	cmp	r2, #84	; 0x54
   826f8:	d806      	bhi.n	82708 <_free_r+0x180>
   826fa:	0b1a      	lsrs	r2, r3, #12
   826fc:	f102 076f 	add.w	r7, r2, #111	; 0x6f
   82700:	00ff      	lsls	r7, r7, #3
   82702:	f102 056e 	add.w	r5, r2, #110	; 0x6e
   82706:	e790      	b.n	8262a <_free_r+0xa2>
   82708:	f5b2 7faa 	cmp.w	r2, #340	; 0x154
   8270c:	d806      	bhi.n	8271c <_free_r+0x194>
   8270e:	0bda      	lsrs	r2, r3, #15
   82710:	f102 0778 	add.w	r7, r2, #120	; 0x78
   82714:	00ff      	lsls	r7, r7, #3
   82716:	f102 0577 	add.w	r5, r2, #119	; 0x77
   8271a:	e786      	b.n	8262a <_free_r+0xa2>
   8271c:	f240 5054 	movw	r0, #1364	; 0x554
   82720:	4282      	cmp	r2, r0
   82722:	d806      	bhi.n	82732 <_free_r+0x1aa>
   82724:	0c9a      	lsrs	r2, r3, #18
   82726:	f102 077d 	add.w	r7, r2, #125	; 0x7d
   8272a:	00ff      	lsls	r7, r7, #3
   8272c:	f102 057c 	add.w	r5, r2, #124	; 0x7c
   82730:	e77b      	b.n	8262a <_free_r+0xa2>
   82732:	f44f 777e 	mov.w	r7, #1016	; 0x3f8
   82736:	257e      	movs	r5, #126	; 0x7e
   82738:	e777      	b.n	8262a <_free_r+0xa2>
   8273a:	f043 0101 	orr.w	r1, r3, #1
   8273e:	6061      	str	r1, [r4, #4]
   82740:	6013      	str	r3, [r2, #0]
   82742:	e763      	b.n	8260c <_free_r+0x84>
   82744:	20000434 	.word	0x20000434
   82748:	2000043c 	.word	0x2000043c
   8274c:	20000840 	.word	0x20000840
   82750:	20000cbc 	.word	0x20000cbc

00082754 <__sfvwrite_r>:
   82754:	6893      	ldr	r3, [r2, #8]
   82756:	2b00      	cmp	r3, #0
   82758:	d071      	beq.n	8283e <__sfvwrite_r+0xea>
   8275a:	e92d 4ff0 	stmdb	sp!, {r4, r5, r6, r7, r8, r9, sl, fp, lr}
   8275e:	898b      	ldrh	r3, [r1, #12]
   82760:	b083      	sub	sp, #12
   82762:	460c      	mov	r4, r1
   82764:	0719      	lsls	r1, r3, #28
   82766:	9000      	str	r0, [sp, #0]
   82768:	4616      	mov	r6, r2
   8276a:	d525      	bpl.n	827b8 <__sfvwrite_r+0x64>
   8276c:	6922      	ldr	r2, [r4, #16]
   8276e:	b31a      	cbz	r2, 827b8 <__sfvwrite_r+0x64>
   82770:	f013 0002 	ands.w	r0, r3, #2
   82774:	6835      	ldr	r5, [r6, #0]
   82776:	d02b      	beq.n	827d0 <__sfvwrite_r+0x7c>
   82778:	f04f 0900 	mov.w	r9, #0
   8277c:	46b0      	mov	r8, r6
   8277e:	464f      	mov	r7, r9
   82780:	f8df a2c0 	ldr.w	sl, [pc, #704]	; 82a44 <__sfvwrite_r+0x2f0>
   82784:	2f00      	cmp	r7, #0
   82786:	d055      	beq.n	82834 <__sfvwrite_r+0xe0>
   82788:	4557      	cmp	r7, sl
   8278a:	463b      	mov	r3, r7
   8278c:	464a      	mov	r2, r9
   8278e:	bf28      	it	cs
   82790:	4653      	movcs	r3, sl
   82792:	69e1      	ldr	r1, [r4, #28]
   82794:	9800      	ldr	r0, [sp, #0]
   82796:	6a66      	ldr	r6, [r4, #36]	; 0x24
   82798:	47b0      	blx	r6
   8279a:	2800      	cmp	r0, #0
   8279c:	dd56      	ble.n	8284c <__sfvwrite_r+0xf8>
   8279e:	f8d8 3008 	ldr.w	r3, [r8, #8]
   827a2:	4481      	add	r9, r0
   827a4:	1a1b      	subs	r3, r3, r0
   827a6:	1a3f      	subs	r7, r7, r0
   827a8:	f8c8 3008 	str.w	r3, [r8, #8]
   827ac:	2b00      	cmp	r3, #0
   827ae:	d1e9      	bne.n	82784 <__sfvwrite_r+0x30>
   827b0:	2000      	movs	r0, #0
   827b2:	b003      	add	sp, #12
   827b4:	e8bd 8ff0 	ldmia.w	sp!, {r4, r5, r6, r7, r8, r9, sl, fp, pc}
   827b8:	4621      	mov	r1, r4
   827ba:	9800      	ldr	r0, [sp, #0]
   827bc:	f7ff fcd6 	bl	8216c <__swsetup_r>
   827c0:	2800      	cmp	r0, #0
   827c2:	f040 8135 	bne.w	82a30 <__sfvwrite_r+0x2dc>
   827c6:	89a3      	ldrh	r3, [r4, #12]
   827c8:	6835      	ldr	r5, [r6, #0]
   827ca:	f013 0002 	ands.w	r0, r3, #2
   827ce:	d1d3      	bne.n	82778 <__sfvwrite_r+0x24>
   827d0:	f013 0901 	ands.w	r9, r3, #1
   827d4:	d144      	bne.n	82860 <__sfvwrite_r+0x10c>
   827d6:	464f      	mov	r7, r9
   827d8:	9601      	str	r6, [sp, #4]
   827da:	b337      	cbz	r7, 8282a <__sfvwrite_r+0xd6>
   827dc:	059a      	lsls	r2, r3, #22
   827de:	f8d4 8008 	ldr.w	r8, [r4, #8]
   827e2:	f140 8085 	bpl.w	828f0 <__sfvwrite_r+0x19c>
   827e6:	4547      	cmp	r7, r8
   827e8:	46c3      	mov	fp, r8
   827ea:	f0c0 80ad 	bcc.w	82948 <__sfvwrite_r+0x1f4>
   827ee:	f413 6f90 	tst.w	r3, #1152	; 0x480
   827f2:	f040 80ae 	bne.w	82952 <__sfvwrite_r+0x1fe>
   827f6:	46ba      	mov	sl, r7
   827f8:	6820      	ldr	r0, [r4, #0]
   827fa:	465a      	mov	r2, fp
   827fc:	4649      	mov	r1, r9
   827fe:	f000 fd29 	bl	83254 <memmove>
   82802:	68a2      	ldr	r2, [r4, #8]
   82804:	6823      	ldr	r3, [r4, #0]
   82806:	eba2 0208 	sub.w	r2, r2, r8
   8280a:	445b      	add	r3, fp
   8280c:	60a2      	str	r2, [r4, #8]
   8280e:	6023      	str	r3, [r4, #0]
   82810:	9a01      	ldr	r2, [sp, #4]
   82812:	44d1      	add	r9, sl
   82814:	6893      	ldr	r3, [r2, #8]
   82816:	eba7 070a 	sub.w	r7, r7, sl
   8281a:	eba3 030a 	sub.w	r3, r3, sl
   8281e:	6093      	str	r3, [r2, #8]
   82820:	2b00      	cmp	r3, #0
   82822:	d0c5      	beq.n	827b0 <__sfvwrite_r+0x5c>
   82824:	89a3      	ldrh	r3, [r4, #12]
   82826:	2f00      	cmp	r7, #0
   82828:	d1d8      	bne.n	827dc <__sfvwrite_r+0x88>
   8282a:	f8d5 9000 	ldr.w	r9, [r5]
   8282e:	686f      	ldr	r7, [r5, #4]
   82830:	3508      	adds	r5, #8
   82832:	e7d2      	b.n	827da <__sfvwrite_r+0x86>
   82834:	f8d5 9000 	ldr.w	r9, [r5]
   82838:	686f      	ldr	r7, [r5, #4]
   8283a:	3508      	adds	r5, #8
   8283c:	e7a2      	b.n	82784 <__sfvwrite_r+0x30>
   8283e:	2000      	movs	r0, #0
   82840:	4770      	bx	lr
   82842:	4621      	mov	r1, r4
   82844:	9800      	ldr	r0, [sp, #0]
   82846:	f7ff fda1 	bl	8238c <_fflush_r>
   8284a:	b378      	cbz	r0, 828ac <__sfvwrite_r+0x158>
   8284c:	f9b4 300c 	ldrsh.w	r3, [r4, #12]
   82850:	f04f 30ff 	mov.w	r0, #4294967295
   82854:	f043 0340 	orr.w	r3, r3, #64	; 0x40
   82858:	81a3      	strh	r3, [r4, #12]
   8285a:	b003      	add	sp, #12
   8285c:	e8bd 8ff0 	ldmia.w	sp!, {r4, r5, r6, r7, r8, r9, sl, fp, pc}
   82860:	4681      	mov	r9, r0
   82862:	4633      	mov	r3, r6
   82864:	464e      	mov	r6, r9
   82866:	46a8      	mov	r8, r5
   82868:	469a      	mov	sl, r3
   8286a:	464d      	mov	r5, r9
   8286c:	b356      	cbz	r6, 828c4 <__sfvwrite_r+0x170>
   8286e:	2800      	cmp	r0, #0
   82870:	d032      	beq.n	828d8 <__sfvwrite_r+0x184>
   82872:	45b1      	cmp	r9, r6
   82874:	46cb      	mov	fp, r9
   82876:	bf28      	it	cs
   82878:	46b3      	movcs	fp, r6
   8287a:	6820      	ldr	r0, [r4, #0]
   8287c:	6923      	ldr	r3, [r4, #16]
   8287e:	465f      	mov	r7, fp
   82880:	4298      	cmp	r0, r3
   82882:	6962      	ldr	r2, [r4, #20]
   82884:	d904      	bls.n	82890 <__sfvwrite_r+0x13c>
   82886:	68a3      	ldr	r3, [r4, #8]
   82888:	4413      	add	r3, r2
   8288a:	459b      	cmp	fp, r3
   8288c:	f300 80a8 	bgt.w	829e0 <__sfvwrite_r+0x28c>
   82890:	4593      	cmp	fp, r2
   82892:	db4d      	blt.n	82930 <__sfvwrite_r+0x1dc>
   82894:	4613      	mov	r3, r2
   82896:	6a67      	ldr	r7, [r4, #36]	; 0x24
   82898:	462a      	mov	r2, r5
   8289a:	69e1      	ldr	r1, [r4, #28]
   8289c:	9800      	ldr	r0, [sp, #0]
   8289e:	47b8      	blx	r7
   828a0:	1e07      	subs	r7, r0, #0
   828a2:	ddd3      	ble.n	8284c <__sfvwrite_r+0xf8>
   828a4:	ebb9 0907 	subs.w	r9, r9, r7
   828a8:	d0cb      	beq.n	82842 <__sfvwrite_r+0xee>
   828aa:	2001      	movs	r0, #1
   828ac:	f8da 3008 	ldr.w	r3, [sl, #8]
   828b0:	443d      	add	r5, r7
   828b2:	1bdb      	subs	r3, r3, r7
   828b4:	1bf6      	subs	r6, r6, r7
   828b6:	f8ca 3008 	str.w	r3, [sl, #8]
   828ba:	2b00      	cmp	r3, #0
   828bc:	f43f af78 	beq.w	827b0 <__sfvwrite_r+0x5c>
   828c0:	2e00      	cmp	r6, #0
   828c2:	d1d4      	bne.n	8286e <__sfvwrite_r+0x11a>
   828c4:	f108 0308 	add.w	r3, r8, #8
   828c8:	f853 6c04 	ldr.w	r6, [r3, #-4]
   828cc:	4698      	mov	r8, r3
   828ce:	f853 5c08 	ldr.w	r5, [r3, #-8]
   828d2:	3308      	adds	r3, #8
   828d4:	2e00      	cmp	r6, #0
   828d6:	d0f7      	beq.n	828c8 <__sfvwrite_r+0x174>
   828d8:	4632      	mov	r2, r6
   828da:	210a      	movs	r1, #10
   828dc:	4628      	mov	r0, r5
   828de:	f000 fbfd 	bl	830dc <memchr>
   828e2:	2800      	cmp	r0, #0
   828e4:	f000 80a1 	beq.w	82a2a <__sfvwrite_r+0x2d6>
   828e8:	3001      	adds	r0, #1
   828ea:	eba0 0905 	sub.w	r9, r0, r5
   828ee:	e7c0      	b.n	82872 <__sfvwrite_r+0x11e>
   828f0:	6820      	ldr	r0, [r4, #0]
   828f2:	6923      	ldr	r3, [r4, #16]
   828f4:	4298      	cmp	r0, r3
   828f6:	d802      	bhi.n	828fe <__sfvwrite_r+0x1aa>
   828f8:	6963      	ldr	r3, [r4, #20]
   828fa:	429f      	cmp	r7, r3
   828fc:	d25d      	bcs.n	829ba <__sfvwrite_r+0x266>
   828fe:	45b8      	cmp	r8, r7
   82900:	bf28      	it	cs
   82902:	46b8      	movcs	r8, r7
   82904:	4649      	mov	r1, r9
   82906:	4642      	mov	r2, r8
   82908:	f000 fca4 	bl	83254 <memmove>
   8290c:	68a3      	ldr	r3, [r4, #8]
   8290e:	6822      	ldr	r2, [r4, #0]
   82910:	eba3 0308 	sub.w	r3, r3, r8
   82914:	4442      	add	r2, r8
   82916:	60a3      	str	r3, [r4, #8]
   82918:	6022      	str	r2, [r4, #0]
   8291a:	b10b      	cbz	r3, 82920 <__sfvwrite_r+0x1cc>
   8291c:	46c2      	mov	sl, r8
   8291e:	e777      	b.n	82810 <__sfvwrite_r+0xbc>
   82920:	4621      	mov	r1, r4
   82922:	9800      	ldr	r0, [sp, #0]
   82924:	f7ff fd32 	bl	8238c <_fflush_r>
   82928:	2800      	cmp	r0, #0
   8292a:	d18f      	bne.n	8284c <__sfvwrite_r+0xf8>
   8292c:	46c2      	mov	sl, r8
   8292e:	e76f      	b.n	82810 <__sfvwrite_r+0xbc>
   82930:	465a      	mov	r2, fp
   82932:	4629      	mov	r1, r5
   82934:	f000 fc8e 	bl	83254 <memmove>
   82938:	68a2      	ldr	r2, [r4, #8]
   8293a:	6823      	ldr	r3, [r4, #0]
   8293c:	eba2 020b 	sub.w	r2, r2, fp
   82940:	445b      	add	r3, fp
   82942:	60a2      	str	r2, [r4, #8]
   82944:	6023      	str	r3, [r4, #0]
   82946:	e7ad      	b.n	828a4 <__sfvwrite_r+0x150>
   82948:	46b8      	mov	r8, r7
   8294a:	46ba      	mov	sl, r7
   8294c:	46bb      	mov	fp, r7
   8294e:	6820      	ldr	r0, [r4, #0]
   82950:	e753      	b.n	827fa <__sfvwrite_r+0xa6>
   82952:	6962      	ldr	r2, [r4, #20]
   82954:	6820      	ldr	r0, [r4, #0]
   82956:	6921      	ldr	r1, [r4, #16]
   82958:	eb02 0842 	add.w	r8, r2, r2, lsl #1
   8295c:	eba0 0a01 	sub.w	sl, r0, r1
   82960:	eb08 78d8 	add.w	r8, r8, r8, lsr #31
   82964:	f10a 0001 	add.w	r0, sl, #1
   82968:	ea4f 0868 	mov.w	r8, r8, asr #1
   8296c:	4438      	add	r0, r7
   8296e:	4540      	cmp	r0, r8
   82970:	4642      	mov	r2, r8
   82972:	bf84      	itt	hi
   82974:	4680      	movhi	r8, r0
   82976:	4642      	movhi	r2, r8
   82978:	055b      	lsls	r3, r3, #21
   8297a:	d544      	bpl.n	82a06 <__sfvwrite_r+0x2b2>
   8297c:	4611      	mov	r1, r2
   8297e:	9800      	ldr	r0, [sp, #0]
   82980:	f000 f90a 	bl	82b98 <_malloc_r>
   82984:	4683      	mov	fp, r0
   82986:	2800      	cmp	r0, #0
   82988:	d055      	beq.n	82a36 <__sfvwrite_r+0x2e2>
   8298a:	4652      	mov	r2, sl
   8298c:	6921      	ldr	r1, [r4, #16]
   8298e:	f000 fbeb 	bl	83168 <memcpy>
   82992:	89a3      	ldrh	r3, [r4, #12]
   82994:	f423 6390 	bic.w	r3, r3, #1152	; 0x480
   82998:	f043 0380 	orr.w	r3, r3, #128	; 0x80
   8299c:	81a3      	strh	r3, [r4, #12]
   8299e:	eb0b 000a 	add.w	r0, fp, sl
   829a2:	eba8 030a 	sub.w	r3, r8, sl
   829a6:	f8c4 b010 	str.w	fp, [r4, #16]
   829aa:	f8c4 8014 	str.w	r8, [r4, #20]
   829ae:	6020      	str	r0, [r4, #0]
   829b0:	60a3      	str	r3, [r4, #8]
   829b2:	46b8      	mov	r8, r7
   829b4:	46ba      	mov	sl, r7
   829b6:	46bb      	mov	fp, r7
   829b8:	e71f      	b.n	827fa <__sfvwrite_r+0xa6>
   829ba:	f06f 4200 	mvn.w	r2, #2147483648	; 0x80000000
   829be:	42ba      	cmp	r2, r7
   829c0:	bf28      	it	cs
   829c2:	463a      	movcs	r2, r7
   829c4:	fb92 f2f3 	sdiv	r2, r2, r3
   829c8:	69e1      	ldr	r1, [r4, #28]
   829ca:	fb03 f302 	mul.w	r3, r3, r2
   829ce:	9800      	ldr	r0, [sp, #0]
   829d0:	464a      	mov	r2, r9
   829d2:	6a66      	ldr	r6, [r4, #36]	; 0x24
   829d4:	47b0      	blx	r6
   829d6:	f1b0 0a00 	subs.w	sl, r0, #0
   829da:	f73f af19 	bgt.w	82810 <__sfvwrite_r+0xbc>
   829de:	e735      	b.n	8284c <__sfvwrite_r+0xf8>
   829e0:	461a      	mov	r2, r3
   829e2:	4629      	mov	r1, r5
   829e4:	9301      	str	r3, [sp, #4]
   829e6:	f000 fc35 	bl	83254 <memmove>
   829ea:	6822      	ldr	r2, [r4, #0]
   829ec:	9b01      	ldr	r3, [sp, #4]
   829ee:	4621      	mov	r1, r4
   829f0:	441a      	add	r2, r3
   829f2:	6022      	str	r2, [r4, #0]
   829f4:	9800      	ldr	r0, [sp, #0]
   829f6:	f7ff fcc9 	bl	8238c <_fflush_r>
   829fa:	9b01      	ldr	r3, [sp, #4]
   829fc:	2800      	cmp	r0, #0
   829fe:	f47f af25 	bne.w	8284c <__sfvwrite_r+0xf8>
   82a02:	461f      	mov	r7, r3
   82a04:	e74e      	b.n	828a4 <__sfvwrite_r+0x150>
   82a06:	9800      	ldr	r0, [sp, #0]
   82a08:	f000 fc94 	bl	83334 <_realloc_r>
   82a0c:	4683      	mov	fp, r0
   82a0e:	2800      	cmp	r0, #0
   82a10:	d1c5      	bne.n	8299e <__sfvwrite_r+0x24a>
   82a12:	9d00      	ldr	r5, [sp, #0]
   82a14:	6921      	ldr	r1, [r4, #16]
   82a16:	4628      	mov	r0, r5
   82a18:	f7ff fdb6 	bl	82588 <_free_r>
   82a1c:	220c      	movs	r2, #12
   82a1e:	f9b4 300c 	ldrsh.w	r3, [r4, #12]
   82a22:	602a      	str	r2, [r5, #0]
   82a24:	f023 0380 	bic.w	r3, r3, #128	; 0x80
   82a28:	e712      	b.n	82850 <__sfvwrite_r+0xfc>
   82a2a:	f106 0901 	add.w	r9, r6, #1
   82a2e:	e720      	b.n	82872 <__sfvwrite_r+0x11e>
   82a30:	f04f 30ff 	mov.w	r0, #4294967295
   82a34:	e6bd      	b.n	827b2 <__sfvwrite_r+0x5e>
   82a36:	220c      	movs	r2, #12
   82a38:	9900      	ldr	r1, [sp, #0]
   82a3a:	f9b4 300c 	ldrsh.w	r3, [r4, #12]
   82a3e:	600a      	str	r2, [r1, #0]
   82a40:	e706      	b.n	82850 <__sfvwrite_r+0xfc>
   82a42:	bf00      	nop
   82a44:	7ffffc00 	.word	0x7ffffc00

00082a48 <_fwalk_reent>:
   82a48:	e92d 43f8 	stmdb	sp!, {r3, r4, r5, r6, r7, r8, r9, lr}
   82a4c:	f510 7638 	adds.w	r6, r0, #736	; 0x2e0
   82a50:	d01e      	beq.n	82a90 <_fwalk_reent+0x48>
   82a52:	4688      	mov	r8, r1
   82a54:	4607      	mov	r7, r0
   82a56:	f04f 0900 	mov.w	r9, #0
   82a5a:	6875      	ldr	r5, [r6, #4]
   82a5c:	68b4      	ldr	r4, [r6, #8]
   82a5e:	3d01      	subs	r5, #1
   82a60:	d410      	bmi.n	82a84 <_fwalk_reent+0x3c>
   82a62:	89a3      	ldrh	r3, [r4, #12]
   82a64:	3d01      	subs	r5, #1
   82a66:	2b01      	cmp	r3, #1
   82a68:	d908      	bls.n	82a7c <_fwalk_reent+0x34>
   82a6a:	f9b4 300e 	ldrsh.w	r3, [r4, #14]
   82a6e:	3301      	adds	r3, #1
   82a70:	d004      	beq.n	82a7c <_fwalk_reent+0x34>
   82a72:	4621      	mov	r1, r4
   82a74:	4638      	mov	r0, r7
   82a76:	47c0      	blx	r8
   82a78:	ea49 0900 	orr.w	r9, r9, r0
   82a7c:	1c6b      	adds	r3, r5, #1
   82a7e:	f104 0468 	add.w	r4, r4, #104	; 0x68
   82a82:	d1ee      	bne.n	82a62 <_fwalk_reent+0x1a>
   82a84:	6836      	ldr	r6, [r6, #0]
   82a86:	2e00      	cmp	r6, #0
   82a88:	d1e7      	bne.n	82a5a <_fwalk_reent+0x12>
   82a8a:	4648      	mov	r0, r9
   82a8c:	e8bd 83f8 	ldmia.w	sp!, {r3, r4, r5, r6, r7, r8, r9, pc}
   82a90:	46b1      	mov	r9, r6
   82a92:	4648      	mov	r0, r9
   82a94:	e8bd 83f8 	ldmia.w	sp!, {r3, r4, r5, r6, r7, r8, r9, pc}

00082a98 <__retarget_lock_init_recursive>:
   82a98:	4770      	bx	lr
   82a9a:	bf00      	nop

00082a9c <__retarget_lock_close_recursive>:
   82a9c:	4770      	bx	lr
   82a9e:	bf00      	nop

00082aa0 <__retarget_lock_acquire_recursive>:
   82aa0:	4770      	bx	lr
   82aa2:	bf00      	nop

00082aa4 <__retarget_lock_release_recursive>:
   82aa4:	4770      	bx	lr
   82aa6:	bf00      	nop

00082aa8 <__swhatbuf_r>:
   82aa8:	b570      	push	{r4, r5, r6, lr}
   82aaa:	460c      	mov	r4, r1
   82aac:	f9b1 100e 	ldrsh.w	r1, [r1, #14]
   82ab0:	b090      	sub	sp, #64	; 0x40
   82ab2:	2900      	cmp	r1, #0
   82ab4:	4615      	mov	r5, r2
   82ab6:	461e      	mov	r6, r3
   82ab8:	db14      	blt.n	82ae4 <__swhatbuf_r+0x3c>
   82aba:	aa01      	add	r2, sp, #4
   82abc:	f000 ff32 	bl	83924 <_fstat_r>
   82ac0:	2800      	cmp	r0, #0
   82ac2:	db0f      	blt.n	82ae4 <__swhatbuf_r+0x3c>
   82ac4:	9a02      	ldr	r2, [sp, #8]
   82ac6:	f44f 6380 	mov.w	r3, #1024	; 0x400
   82aca:	f402 4270 	and.w	r2, r2, #61440	; 0xf000
   82ace:	f5a2 5200 	sub.w	r2, r2, #8192	; 0x2000
   82ad2:	fab2 f282 	clz	r2, r2
   82ad6:	f44f 6000 	mov.w	r0, #2048	; 0x800
   82ada:	0952      	lsrs	r2, r2, #5
   82adc:	6032      	str	r2, [r6, #0]
   82ade:	602b      	str	r3, [r5, #0]
   82ae0:	b010      	add	sp, #64	; 0x40
   82ae2:	bd70      	pop	{r4, r5, r6, pc}
   82ae4:	2300      	movs	r3, #0
   82ae6:	89a2      	ldrh	r2, [r4, #12]
   82ae8:	6033      	str	r3, [r6, #0]
   82aea:	f012 0080 	ands.w	r0, r2, #128	; 0x80
   82aee:	d004      	beq.n	82afa <__swhatbuf_r+0x52>
   82af0:	2240      	movs	r2, #64	; 0x40
   82af2:	4618      	mov	r0, r3
   82af4:	602a      	str	r2, [r5, #0]
   82af6:	b010      	add	sp, #64	; 0x40
   82af8:	bd70      	pop	{r4, r5, r6, pc}
   82afa:	f44f 6380 	mov.w	r3, #1024	; 0x400
   82afe:	602b      	str	r3, [r5, #0]
   82b00:	b010      	add	sp, #64	; 0x40
   82b02:	bd70      	pop	{r4, r5, r6, pc}

00082b04 <__smakebuf_r>:
   82b04:	898a      	ldrh	r2, [r1, #12]
   82b06:	460b      	mov	r3, r1
   82b08:	0792      	lsls	r2, r2, #30
   82b0a:	d506      	bpl.n	82b1a <__smakebuf_r+0x16>
   82b0c:	2101      	movs	r1, #1
   82b0e:	f103 0243 	add.w	r2, r3, #67	; 0x43
   82b12:	6159      	str	r1, [r3, #20]
   82b14:	601a      	str	r2, [r3, #0]
   82b16:	611a      	str	r2, [r3, #16]
   82b18:	4770      	bx	lr
   82b1a:	b5f0      	push	{r4, r5, r6, r7, lr}
   82b1c:	b083      	sub	sp, #12
   82b1e:	ab01      	add	r3, sp, #4
   82b20:	466a      	mov	r2, sp
   82b22:	460c      	mov	r4, r1
   82b24:	4606      	mov	r6, r0
   82b26:	f7ff ffbf 	bl	82aa8 <__swhatbuf_r>
   82b2a:	9900      	ldr	r1, [sp, #0]
   82b2c:	4605      	mov	r5, r0
   82b2e:	4630      	mov	r0, r6
   82b30:	f000 f832 	bl	82b98 <_malloc_r>
   82b34:	f9b4 300c 	ldrsh.w	r3, [r4, #12]
   82b38:	b1d8      	cbz	r0, 82b72 <__smakebuf_r+0x6e>
   82b3a:	e89d 0006 	ldmia.w	sp, {r1, r2}
   82b3e:	4f15      	ldr	r7, [pc, #84]	; (82b94 <__smakebuf_r+0x90>)
   82b40:	f043 0380 	orr.w	r3, r3, #128	; 0x80
   82b44:	63f7      	str	r7, [r6, #60]	; 0x3c
   82b46:	81a3      	strh	r3, [r4, #12]
   82b48:	6020      	str	r0, [r4, #0]
   82b4a:	6120      	str	r0, [r4, #16]
   82b4c:	6161      	str	r1, [r4, #20]
   82b4e:	b91a      	cbnz	r2, 82b58 <__smakebuf_r+0x54>
   82b50:	432b      	orrs	r3, r5
   82b52:	81a3      	strh	r3, [r4, #12]
   82b54:	b003      	add	sp, #12
   82b56:	bdf0      	pop	{r4, r5, r6, r7, pc}
   82b58:	4630      	mov	r0, r6
   82b5a:	f9b4 100e 	ldrsh.w	r1, [r4, #14]
   82b5e:	f000 fef5 	bl	8394c <_isatty_r>
   82b62:	b1a0      	cbz	r0, 82b8e <__smakebuf_r+0x8a>
   82b64:	89a3      	ldrh	r3, [r4, #12]
   82b66:	f023 0303 	bic.w	r3, r3, #3
   82b6a:	f043 0301 	orr.w	r3, r3, #1
   82b6e:	b21b      	sxth	r3, r3
   82b70:	e7ee      	b.n	82b50 <__smakebuf_r+0x4c>
   82b72:	059a      	lsls	r2, r3, #22
   82b74:	d4ee      	bmi.n	82b54 <__smakebuf_r+0x50>
   82b76:	2101      	movs	r1, #1
   82b78:	f023 0303 	bic.w	r3, r3, #3
   82b7c:	f104 0243 	add.w	r2, r4, #67	; 0x43
   82b80:	f043 0302 	orr.w	r3, r3, #2
   82b84:	81a3      	strh	r3, [r4, #12]
   82b86:	6161      	str	r1, [r4, #20]
   82b88:	6022      	str	r2, [r4, #0]
   82b8a:	6122      	str	r2, [r4, #16]
   82b8c:	e7e2      	b.n	82b54 <__smakebuf_r+0x50>
   82b8e:	f9b4 300c 	ldrsh.w	r3, [r4, #12]
   82b92:	e7dd      	b.n	82b50 <__smakebuf_r+0x4c>
   82b94:	000823e1 	.word	0x000823e1

00082b98 <_malloc_r>:
   82b98:	e92d 4ff0 	stmdb	sp!, {r4, r5, r6, r7, r8, r9, sl, fp, lr}
   82b9c:	f101 060b 	add.w	r6, r1, #11
   82ba0:	2e16      	cmp	r6, #22
   82ba2:	b083      	sub	sp, #12
   82ba4:	4605      	mov	r5, r0
   82ba6:	f240 809e 	bls.w	82ce6 <_malloc_r+0x14e>
   82baa:	f036 0607 	bics.w	r6, r6, #7
   82bae:	f100 80bd 	bmi.w	82d2c <_malloc_r+0x194>
   82bb2:	42b1      	cmp	r1, r6
   82bb4:	f200 80ba 	bhi.w	82d2c <_malloc_r+0x194>
   82bb8:	f000 fbb0 	bl	8331c <__malloc_lock>
   82bbc:	f5b6 7ffc 	cmp.w	r6, #504	; 0x1f8
   82bc0:	f0c0 8285 	bcc.w	830ce <_malloc_r+0x536>
   82bc4:	0a73      	lsrs	r3, r6, #9
   82bc6:	f000 80b8 	beq.w	82d3a <_malloc_r+0x1a2>
   82bca:	2b04      	cmp	r3, #4
   82bcc:	f200 816c 	bhi.w	82ea8 <_malloc_r+0x310>
   82bd0:	09b3      	lsrs	r3, r6, #6
   82bd2:	f103 0039 	add.w	r0, r3, #57	; 0x39
   82bd6:	f103 0e38 	add.w	lr, r3, #56	; 0x38
   82bda:	00c1      	lsls	r1, r0, #3
   82bdc:	4fb8      	ldr	r7, [pc, #736]	; (82ec0 <_malloc_r+0x328>)
   82bde:	4439      	add	r1, r7
   82be0:	684c      	ldr	r4, [r1, #4]
   82be2:	3908      	subs	r1, #8
   82be4:	42a1      	cmp	r1, r4
   82be6:	d106      	bne.n	82bf6 <_malloc_r+0x5e>
   82be8:	e00c      	b.n	82c04 <_malloc_r+0x6c>
   82bea:	2a00      	cmp	r2, #0
   82bec:	f280 80ab 	bge.w	82d46 <_malloc_r+0x1ae>
   82bf0:	68e4      	ldr	r4, [r4, #12]
   82bf2:	42a1      	cmp	r1, r4
   82bf4:	d006      	beq.n	82c04 <_malloc_r+0x6c>
   82bf6:	6863      	ldr	r3, [r4, #4]
   82bf8:	f023 0303 	bic.w	r3, r3, #3
   82bfc:	1b9a      	subs	r2, r3, r6
   82bfe:	2a0f      	cmp	r2, #15
   82c00:	ddf3      	ble.n	82bea <_malloc_r+0x52>
   82c02:	4670      	mov	r0, lr
   82c04:	693c      	ldr	r4, [r7, #16]
   82c06:	f8df e2cc 	ldr.w	lr, [pc, #716]	; 82ed4 <_malloc_r+0x33c>
   82c0a:	4574      	cmp	r4, lr
   82c0c:	f000 819e 	beq.w	82f4c <_malloc_r+0x3b4>
   82c10:	6863      	ldr	r3, [r4, #4]
   82c12:	f023 0303 	bic.w	r3, r3, #3
   82c16:	1b9a      	subs	r2, r3, r6
   82c18:	2a0f      	cmp	r2, #15
   82c1a:	f300 8183 	bgt.w	82f24 <_malloc_r+0x38c>
   82c1e:	2a00      	cmp	r2, #0
   82c20:	f8c7 e014 	str.w	lr, [r7, #20]
   82c24:	f8c7 e010 	str.w	lr, [r7, #16]
   82c28:	f280 8091 	bge.w	82d4e <_malloc_r+0x1b6>
   82c2c:	f5b3 7f00 	cmp.w	r3, #512	; 0x200
   82c30:	f080 8154 	bcs.w	82edc <_malloc_r+0x344>
   82c34:	2201      	movs	r2, #1
   82c36:	08db      	lsrs	r3, r3, #3
   82c38:	6879      	ldr	r1, [r7, #4]
   82c3a:	ea4f 0ca3 	mov.w	ip, r3, asr #2
   82c3e:	4413      	add	r3, r2
   82c40:	f857 8033 	ldr.w	r8, [r7, r3, lsl #3]
   82c44:	fa02 f20c 	lsl.w	r2, r2, ip
   82c48:	eb07 0cc3 	add.w	ip, r7, r3, lsl #3
   82c4c:	430a      	orrs	r2, r1
   82c4e:	f1ac 0108 	sub.w	r1, ip, #8
   82c52:	60e1      	str	r1, [r4, #12]
   82c54:	f8c4 8008 	str.w	r8, [r4, #8]
   82c58:	607a      	str	r2, [r7, #4]
   82c5a:	f847 4033 	str.w	r4, [r7, r3, lsl #3]
   82c5e:	f8c8 400c 	str.w	r4, [r8, #12]
   82c62:	2401      	movs	r4, #1
   82c64:	1083      	asrs	r3, r0, #2
   82c66:	409c      	lsls	r4, r3
   82c68:	4294      	cmp	r4, r2
   82c6a:	d87d      	bhi.n	82d68 <_malloc_r+0x1d0>
   82c6c:	4214      	tst	r4, r2
   82c6e:	d106      	bne.n	82c7e <_malloc_r+0xe6>
   82c70:	f020 0003 	bic.w	r0, r0, #3
   82c74:	0064      	lsls	r4, r4, #1
   82c76:	4214      	tst	r4, r2
   82c78:	f100 0004 	add.w	r0, r0, #4
   82c7c:	d0fa      	beq.n	82c74 <_malloc_r+0xdc>
   82c7e:	eb07 09c0 	add.w	r9, r7, r0, lsl #3
   82c82:	46cc      	mov	ip, r9
   82c84:	4680      	mov	r8, r0
   82c86:	f8dc 300c 	ldr.w	r3, [ip, #12]
   82c8a:	459c      	cmp	ip, r3
   82c8c:	d107      	bne.n	82c9e <_malloc_r+0x106>
   82c8e:	e15f      	b.n	82f50 <_malloc_r+0x3b8>
   82c90:	2a00      	cmp	r2, #0
   82c92:	f280 816d 	bge.w	82f70 <_malloc_r+0x3d8>
   82c96:	68db      	ldr	r3, [r3, #12]
   82c98:	459c      	cmp	ip, r3
   82c9a:	f000 8159 	beq.w	82f50 <_malloc_r+0x3b8>
   82c9e:	6859      	ldr	r1, [r3, #4]
   82ca0:	f021 0103 	bic.w	r1, r1, #3
   82ca4:	1b8a      	subs	r2, r1, r6
   82ca6:	2a0f      	cmp	r2, #15
   82ca8:	ddf2      	ble.n	82c90 <_malloc_r+0xf8>
   82caa:	68dc      	ldr	r4, [r3, #12]
   82cac:	f8d3 c008 	ldr.w	ip, [r3, #8]
   82cb0:	f046 0801 	orr.w	r8, r6, #1
   82cb4:	4628      	mov	r0, r5
   82cb6:	441e      	add	r6, r3
   82cb8:	f042 0501 	orr.w	r5, r2, #1
   82cbc:	f8c3 8004 	str.w	r8, [r3, #4]
   82cc0:	f8cc 400c 	str.w	r4, [ip, #12]
   82cc4:	f8c4 c008 	str.w	ip, [r4, #8]
   82cc8:	617e      	str	r6, [r7, #20]
   82cca:	613e      	str	r6, [r7, #16]
   82ccc:	f8c6 e00c 	str.w	lr, [r6, #12]
   82cd0:	f8c6 e008 	str.w	lr, [r6, #8]
   82cd4:	6075      	str	r5, [r6, #4]
   82cd6:	505a      	str	r2, [r3, r1]
   82cd8:	9300      	str	r3, [sp, #0]
   82cda:	f000 fb25 	bl	83328 <__malloc_unlock>
   82cde:	9b00      	ldr	r3, [sp, #0]
   82ce0:	f103 0408 	add.w	r4, r3, #8
   82ce4:	e01e      	b.n	82d24 <_malloc_r+0x18c>
   82ce6:	2910      	cmp	r1, #16
   82ce8:	d820      	bhi.n	82d2c <_malloc_r+0x194>
   82cea:	f000 fb17 	bl	8331c <__malloc_lock>
   82cee:	2610      	movs	r6, #16
   82cf0:	2318      	movs	r3, #24
   82cf2:	2002      	movs	r0, #2
   82cf4:	4f72      	ldr	r7, [pc, #456]	; (82ec0 <_malloc_r+0x328>)
   82cf6:	443b      	add	r3, r7
   82cf8:	685c      	ldr	r4, [r3, #4]
   82cfa:	f1a3 0208 	sub.w	r2, r3, #8
   82cfe:	4294      	cmp	r4, r2
   82d00:	f000 812f 	beq.w	82f62 <_malloc_r+0x3ca>
   82d04:	6863      	ldr	r3, [r4, #4]
   82d06:	68e1      	ldr	r1, [r4, #12]
   82d08:	f023 0303 	bic.w	r3, r3, #3
   82d0c:	4423      	add	r3, r4
   82d0e:	685a      	ldr	r2, [r3, #4]
   82d10:	68a6      	ldr	r6, [r4, #8]
   82d12:	f042 0201 	orr.w	r2, r2, #1
   82d16:	60f1      	str	r1, [r6, #12]
   82d18:	4628      	mov	r0, r5
   82d1a:	608e      	str	r6, [r1, #8]
   82d1c:	605a      	str	r2, [r3, #4]
   82d1e:	f000 fb03 	bl	83328 <__malloc_unlock>
   82d22:	3408      	adds	r4, #8
   82d24:	4620      	mov	r0, r4
   82d26:	b003      	add	sp, #12
   82d28:	e8bd 8ff0 	ldmia.w	sp!, {r4, r5, r6, r7, r8, r9, sl, fp, pc}
   82d2c:	2400      	movs	r4, #0
   82d2e:	230c      	movs	r3, #12
   82d30:	4620      	mov	r0, r4
   82d32:	602b      	str	r3, [r5, #0]
   82d34:	b003      	add	sp, #12
   82d36:	e8bd 8ff0 	ldmia.w	sp!, {r4, r5, r6, r7, r8, r9, sl, fp, pc}
   82d3a:	2040      	movs	r0, #64	; 0x40
   82d3c:	f44f 7100 	mov.w	r1, #512	; 0x200
   82d40:	f04f 0e3f 	mov.w	lr, #63	; 0x3f
   82d44:	e74a      	b.n	82bdc <_malloc_r+0x44>
   82d46:	4423      	add	r3, r4
   82d48:	685a      	ldr	r2, [r3, #4]
   82d4a:	68e1      	ldr	r1, [r4, #12]
   82d4c:	e7e0      	b.n	82d10 <_malloc_r+0x178>
   82d4e:	4423      	add	r3, r4
   82d50:	685a      	ldr	r2, [r3, #4]
   82d52:	4628      	mov	r0, r5
   82d54:	f042 0201 	orr.w	r2, r2, #1
   82d58:	605a      	str	r2, [r3, #4]
   82d5a:	3408      	adds	r4, #8
   82d5c:	f000 fae4 	bl	83328 <__malloc_unlock>
   82d60:	4620      	mov	r0, r4
   82d62:	b003      	add	sp, #12
   82d64:	e8bd 8ff0 	ldmia.w	sp!, {r4, r5, r6, r7, r8, r9, sl, fp, pc}
   82d68:	68bc      	ldr	r4, [r7, #8]
   82d6a:	6863      	ldr	r3, [r4, #4]
   82d6c:	f023 0803 	bic.w	r8, r3, #3
   82d70:	45b0      	cmp	r8, r6
   82d72:	d304      	bcc.n	82d7e <_malloc_r+0x1e6>
   82d74:	eba8 0306 	sub.w	r3, r8, r6
   82d78:	2b0f      	cmp	r3, #15
   82d7a:	f300 8085 	bgt.w	82e88 <_malloc_r+0x2f0>
   82d7e:	f8df 9158 	ldr.w	r9, [pc, #344]	; 82ed8 <_malloc_r+0x340>
   82d82:	4b50      	ldr	r3, [pc, #320]	; (82ec4 <_malloc_r+0x32c>)
   82d84:	f8d9 2000 	ldr.w	r2, [r9]
   82d88:	681b      	ldr	r3, [r3, #0]
   82d8a:	3201      	adds	r2, #1
   82d8c:	4433      	add	r3, r6
   82d8e:	eb04 0a08 	add.w	sl, r4, r8
   82d92:	f000 8154 	beq.w	8303e <_malloc_r+0x4a6>
   82d96:	f503 5380 	add.w	r3, r3, #4096	; 0x1000
   82d9a:	330f      	adds	r3, #15
   82d9c:	f423 6b7f 	bic.w	fp, r3, #4080	; 0xff0
   82da0:	f02b 0b0f 	bic.w	fp, fp, #15
   82da4:	4659      	mov	r1, fp
   82da6:	4628      	mov	r0, r5
   82da8:	f000 fc7a 	bl	836a0 <_sbrk_r>
   82dac:	1c41      	adds	r1, r0, #1
   82dae:	4602      	mov	r2, r0
   82db0:	f000 80fb 	beq.w	82faa <_malloc_r+0x412>
   82db4:	4582      	cmp	sl, r0
   82db6:	f200 80f6 	bhi.w	82fa6 <_malloc_r+0x40e>
   82dba:	4b43      	ldr	r3, [pc, #268]	; (82ec8 <_malloc_r+0x330>)
   82dbc:	6819      	ldr	r1, [r3, #0]
   82dbe:	4459      	add	r1, fp
   82dc0:	6019      	str	r1, [r3, #0]
   82dc2:	f000 814c 	beq.w	8305e <_malloc_r+0x4c6>
   82dc6:	f8d9 0000 	ldr.w	r0, [r9]
   82dca:	3001      	adds	r0, #1
   82dcc:	bf1b      	ittet	ne
   82dce:	eba2 0a0a 	subne.w	sl, r2, sl
   82dd2:	4451      	addne	r1, sl
   82dd4:	f8c9 2000 	streq.w	r2, [r9]
   82dd8:	6019      	strne	r1, [r3, #0]
   82dda:	f012 0107 	ands.w	r1, r2, #7
   82dde:	f000 8114 	beq.w	8300a <_malloc_r+0x472>
   82de2:	f1c1 0008 	rsb	r0, r1, #8
   82de6:	f5c1 5180 	rsb	r1, r1, #4096	; 0x1000
   82dea:	4402      	add	r2, r0
   82dec:	3108      	adds	r1, #8
   82dee:	eb02 090b 	add.w	r9, r2, fp
   82df2:	f3c9 090b 	ubfx	r9, r9, #0, #12
   82df6:	eba1 0909 	sub.w	r9, r1, r9
   82dfa:	4649      	mov	r1, r9
   82dfc:	4628      	mov	r0, r5
   82dfe:	9301      	str	r3, [sp, #4]
   82e00:	9200      	str	r2, [sp, #0]
   82e02:	f000 fc4d 	bl	836a0 <_sbrk_r>
   82e06:	1c43      	adds	r3, r0, #1
   82e08:	e89d 000c 	ldmia.w	sp, {r2, r3}
   82e0c:	f000 8142 	beq.w	83094 <_malloc_r+0x4fc>
   82e10:	1a80      	subs	r0, r0, r2
   82e12:	4448      	add	r0, r9
   82e14:	f040 0001 	orr.w	r0, r0, #1
   82e18:	6819      	ldr	r1, [r3, #0]
   82e1a:	42bc      	cmp	r4, r7
   82e1c:	4449      	add	r1, r9
   82e1e:	60ba      	str	r2, [r7, #8]
   82e20:	6019      	str	r1, [r3, #0]
   82e22:	6050      	str	r0, [r2, #4]
   82e24:	d017      	beq.n	82e56 <_malloc_r+0x2be>
   82e26:	f1b8 0f0f 	cmp.w	r8, #15
   82e2a:	f240 80fa 	bls.w	83022 <_malloc_r+0x48a>
   82e2e:	f04f 0c05 	mov.w	ip, #5
   82e32:	6862      	ldr	r2, [r4, #4]
   82e34:	f1a8 000c 	sub.w	r0, r8, #12
   82e38:	f020 0007 	bic.w	r0, r0, #7
   82e3c:	f002 0201 	and.w	r2, r2, #1
   82e40:	eb04 0e00 	add.w	lr, r4, r0
   82e44:	4302      	orrs	r2, r0
   82e46:	280f      	cmp	r0, #15
   82e48:	6062      	str	r2, [r4, #4]
   82e4a:	f8ce c004 	str.w	ip, [lr, #4]
   82e4e:	f8ce c008 	str.w	ip, [lr, #8]
   82e52:	f200 8116 	bhi.w	83082 <_malloc_r+0x4ea>
   82e56:	4b1d      	ldr	r3, [pc, #116]	; (82ecc <_malloc_r+0x334>)
   82e58:	68bc      	ldr	r4, [r7, #8]
   82e5a:	681a      	ldr	r2, [r3, #0]
   82e5c:	4291      	cmp	r1, r2
   82e5e:	bf88      	it	hi
   82e60:	6019      	strhi	r1, [r3, #0]
   82e62:	4b1b      	ldr	r3, [pc, #108]	; (82ed0 <_malloc_r+0x338>)
   82e64:	681a      	ldr	r2, [r3, #0]
   82e66:	4291      	cmp	r1, r2
   82e68:	6862      	ldr	r2, [r4, #4]
   82e6a:	bf88      	it	hi
   82e6c:	6019      	strhi	r1, [r3, #0]
   82e6e:	f022 0203 	bic.w	r2, r2, #3
   82e72:	4296      	cmp	r6, r2
   82e74:	eba2 0306 	sub.w	r3, r2, r6
   82e78:	d801      	bhi.n	82e7e <_malloc_r+0x2e6>
   82e7a:	2b0f      	cmp	r3, #15
   82e7c:	dc04      	bgt.n	82e88 <_malloc_r+0x2f0>
   82e7e:	4628      	mov	r0, r5
   82e80:	f000 fa52 	bl	83328 <__malloc_unlock>
   82e84:	2400      	movs	r4, #0
   82e86:	e74d      	b.n	82d24 <_malloc_r+0x18c>
   82e88:	f046 0201 	orr.w	r2, r6, #1
   82e8c:	f043 0301 	orr.w	r3, r3, #1
   82e90:	4426      	add	r6, r4
   82e92:	6062      	str	r2, [r4, #4]
   82e94:	4628      	mov	r0, r5
   82e96:	60be      	str	r6, [r7, #8]
   82e98:	3408      	adds	r4, #8
   82e9a:	6073      	str	r3, [r6, #4]
   82e9c:	f000 fa44 	bl	83328 <__malloc_unlock>
   82ea0:	4620      	mov	r0, r4
   82ea2:	b003      	add	sp, #12
   82ea4:	e8bd 8ff0 	ldmia.w	sp!, {r4, r5, r6, r7, r8, r9, sl, fp, pc}
   82ea8:	2b14      	cmp	r3, #20
   82eaa:	d970      	bls.n	82f8e <_malloc_r+0x3f6>
   82eac:	2b54      	cmp	r3, #84	; 0x54
   82eae:	f200 80a2 	bhi.w	82ff6 <_malloc_r+0x45e>
   82eb2:	0b33      	lsrs	r3, r6, #12
   82eb4:	f103 006f 	add.w	r0, r3, #111	; 0x6f
   82eb8:	f103 0e6e 	add.w	lr, r3, #110	; 0x6e
   82ebc:	00c1      	lsls	r1, r0, #3
   82ebe:	e68d      	b.n	82bdc <_malloc_r+0x44>
   82ec0:	20000434 	.word	0x20000434
   82ec4:	20000cbc 	.word	0x20000cbc
   82ec8:	20000c8c 	.word	0x20000c8c
   82ecc:	20000cb4 	.word	0x20000cb4
   82ed0:	20000cb8 	.word	0x20000cb8
   82ed4:	2000043c 	.word	0x2000043c
   82ed8:	2000083c 	.word	0x2000083c
   82edc:	0a5a      	lsrs	r2, r3, #9
   82ede:	2a04      	cmp	r2, #4
   82ee0:	d95b      	bls.n	82f9a <_malloc_r+0x402>
   82ee2:	2a14      	cmp	r2, #20
   82ee4:	f200 80ae 	bhi.w	83044 <_malloc_r+0x4ac>
   82ee8:	f102 015c 	add.w	r1, r2, #92	; 0x5c
   82eec:	00c9      	lsls	r1, r1, #3
   82eee:	325b      	adds	r2, #91	; 0x5b
   82ef0:	eb07 0c01 	add.w	ip, r7, r1
   82ef4:	5879      	ldr	r1, [r7, r1]
   82ef6:	f1ac 0c08 	sub.w	ip, ip, #8
   82efa:	458c      	cmp	ip, r1
   82efc:	f000 8088 	beq.w	83010 <_malloc_r+0x478>
   82f00:	684a      	ldr	r2, [r1, #4]
   82f02:	f022 0203 	bic.w	r2, r2, #3
   82f06:	4293      	cmp	r3, r2
   82f08:	d273      	bcs.n	82ff2 <_malloc_r+0x45a>
   82f0a:	6889      	ldr	r1, [r1, #8]
   82f0c:	458c      	cmp	ip, r1
   82f0e:	d1f7      	bne.n	82f00 <_malloc_r+0x368>
   82f10:	f8dc 300c 	ldr.w	r3, [ip, #12]
   82f14:	687a      	ldr	r2, [r7, #4]
   82f16:	60e3      	str	r3, [r4, #12]
   82f18:	f8c4 c008 	str.w	ip, [r4, #8]
   82f1c:	609c      	str	r4, [r3, #8]
   82f1e:	f8cc 400c 	str.w	r4, [ip, #12]
   82f22:	e69e      	b.n	82c62 <_malloc_r+0xca>
   82f24:	f046 0c01 	orr.w	ip, r6, #1
   82f28:	f042 0101 	orr.w	r1, r2, #1
   82f2c:	4426      	add	r6, r4
   82f2e:	f8c4 c004 	str.w	ip, [r4, #4]
   82f32:	4628      	mov	r0, r5
   82f34:	617e      	str	r6, [r7, #20]
   82f36:	613e      	str	r6, [r7, #16]
   82f38:	f8c6 e00c 	str.w	lr, [r6, #12]
   82f3c:	f8c6 e008 	str.w	lr, [r6, #8]
   82f40:	6071      	str	r1, [r6, #4]
   82f42:	50e2      	str	r2, [r4, r3]
   82f44:	f000 f9f0 	bl	83328 <__malloc_unlock>
   82f48:	3408      	adds	r4, #8
   82f4a:	e6eb      	b.n	82d24 <_malloc_r+0x18c>
   82f4c:	687a      	ldr	r2, [r7, #4]
   82f4e:	e688      	b.n	82c62 <_malloc_r+0xca>
   82f50:	f108 0801 	add.w	r8, r8, #1
   82f54:	f018 0f03 	tst.w	r8, #3
   82f58:	f10c 0c08 	add.w	ip, ip, #8
   82f5c:	f47f ae93 	bne.w	82c86 <_malloc_r+0xee>
   82f60:	e02d      	b.n	82fbe <_malloc_r+0x426>
   82f62:	68dc      	ldr	r4, [r3, #12]
   82f64:	42a3      	cmp	r3, r4
   82f66:	bf08      	it	eq
   82f68:	3002      	addeq	r0, #2
   82f6a:	f43f ae4b 	beq.w	82c04 <_malloc_r+0x6c>
   82f6e:	e6c9      	b.n	82d04 <_malloc_r+0x16c>
   82f70:	461c      	mov	r4, r3
   82f72:	4419      	add	r1, r3
   82f74:	684a      	ldr	r2, [r1, #4]
   82f76:	68db      	ldr	r3, [r3, #12]
   82f78:	f854 6f08 	ldr.w	r6, [r4, #8]!
   82f7c:	f042 0201 	orr.w	r2, r2, #1
   82f80:	604a      	str	r2, [r1, #4]
   82f82:	4628      	mov	r0, r5
   82f84:	60f3      	str	r3, [r6, #12]
   82f86:	609e      	str	r6, [r3, #8]
   82f88:	f000 f9ce 	bl	83328 <__malloc_unlock>
   82f8c:	e6ca      	b.n	82d24 <_malloc_r+0x18c>
   82f8e:	f103 005c 	add.w	r0, r3, #92	; 0x5c
   82f92:	f103 0e5b 	add.w	lr, r3, #91	; 0x5b
   82f96:	00c1      	lsls	r1, r0, #3
   82f98:	e620      	b.n	82bdc <_malloc_r+0x44>
   82f9a:	099a      	lsrs	r2, r3, #6
   82f9c:	f102 0139 	add.w	r1, r2, #57	; 0x39
   82fa0:	00c9      	lsls	r1, r1, #3
   82fa2:	3238      	adds	r2, #56	; 0x38
   82fa4:	e7a4      	b.n	82ef0 <_malloc_r+0x358>
   82fa6:	42bc      	cmp	r4, r7
   82fa8:	d054      	beq.n	83054 <_malloc_r+0x4bc>
   82faa:	68bc      	ldr	r4, [r7, #8]
   82fac:	6862      	ldr	r2, [r4, #4]
   82fae:	f022 0203 	bic.w	r2, r2, #3
   82fb2:	e75e      	b.n	82e72 <_malloc_r+0x2da>
   82fb4:	f859 3908 	ldr.w	r3, [r9], #-8
   82fb8:	4599      	cmp	r9, r3
   82fba:	f040 8086 	bne.w	830ca <_malloc_r+0x532>
   82fbe:	f010 0f03 	tst.w	r0, #3
   82fc2:	f100 30ff 	add.w	r0, r0, #4294967295
   82fc6:	d1f5      	bne.n	82fb4 <_malloc_r+0x41c>
   82fc8:	687b      	ldr	r3, [r7, #4]
   82fca:	ea23 0304 	bic.w	r3, r3, r4
   82fce:	607b      	str	r3, [r7, #4]
   82fd0:	0064      	lsls	r4, r4, #1
   82fd2:	429c      	cmp	r4, r3
   82fd4:	f63f aec8 	bhi.w	82d68 <_malloc_r+0x1d0>
   82fd8:	2c00      	cmp	r4, #0
   82fda:	f43f aec5 	beq.w	82d68 <_malloc_r+0x1d0>
   82fde:	421c      	tst	r4, r3
   82fe0:	4640      	mov	r0, r8
   82fe2:	f47f ae4c 	bne.w	82c7e <_malloc_r+0xe6>
   82fe6:	0064      	lsls	r4, r4, #1
   82fe8:	421c      	tst	r4, r3
   82fea:	f100 0004 	add.w	r0, r0, #4
   82fee:	d0fa      	beq.n	82fe6 <_malloc_r+0x44e>
   82ff0:	e645      	b.n	82c7e <_malloc_r+0xe6>
   82ff2:	468c      	mov	ip, r1
   82ff4:	e78c      	b.n	82f10 <_malloc_r+0x378>
   82ff6:	f5b3 7faa 	cmp.w	r3, #340	; 0x154
   82ffa:	d815      	bhi.n	83028 <_malloc_r+0x490>
   82ffc:	0bf3      	lsrs	r3, r6, #15
   82ffe:	f103 0078 	add.w	r0, r3, #120	; 0x78
   83002:	f103 0e77 	add.w	lr, r3, #119	; 0x77
   83006:	00c1      	lsls	r1, r0, #3
   83008:	e5e8      	b.n	82bdc <_malloc_r+0x44>
   8300a:	f44f 5180 	mov.w	r1, #4096	; 0x1000
   8300e:	e6ee      	b.n	82dee <_malloc_r+0x256>
   83010:	2101      	movs	r1, #1
   83012:	687b      	ldr	r3, [r7, #4]
   83014:	1092      	asrs	r2, r2, #2
   83016:	fa01 f202 	lsl.w	r2, r1, r2
   8301a:	431a      	orrs	r2, r3
   8301c:	607a      	str	r2, [r7, #4]
   8301e:	4663      	mov	r3, ip
   83020:	e779      	b.n	82f16 <_malloc_r+0x37e>
   83022:	2301      	movs	r3, #1
   83024:	6053      	str	r3, [r2, #4]
   83026:	e72a      	b.n	82e7e <_malloc_r+0x2e6>
   83028:	f240 5254 	movw	r2, #1364	; 0x554
   8302c:	4293      	cmp	r3, r2
   8302e:	d822      	bhi.n	83076 <_malloc_r+0x4de>
   83030:	0cb3      	lsrs	r3, r6, #18
   83032:	f103 007d 	add.w	r0, r3, #125	; 0x7d
   83036:	f103 0e7c 	add.w	lr, r3, #124	; 0x7c
   8303a:	00c1      	lsls	r1, r0, #3
   8303c:	e5ce      	b.n	82bdc <_malloc_r+0x44>
   8303e:	f103 0b10 	add.w	fp, r3, #16
   83042:	e6af      	b.n	82da4 <_malloc_r+0x20c>
   83044:	2a54      	cmp	r2, #84	; 0x54
   83046:	d829      	bhi.n	8309c <_malloc_r+0x504>
   83048:	0b1a      	lsrs	r2, r3, #12
   8304a:	f102 016f 	add.w	r1, r2, #111	; 0x6f
   8304e:	00c9      	lsls	r1, r1, #3
   83050:	326e      	adds	r2, #110	; 0x6e
   83052:	e74d      	b.n	82ef0 <_malloc_r+0x358>
   83054:	4b20      	ldr	r3, [pc, #128]	; (830d8 <_malloc_r+0x540>)
   83056:	6819      	ldr	r1, [r3, #0]
   83058:	4459      	add	r1, fp
   8305a:	6019      	str	r1, [r3, #0]
   8305c:	e6b3      	b.n	82dc6 <_malloc_r+0x22e>
   8305e:	f3ca 000b 	ubfx	r0, sl, #0, #12
   83062:	2800      	cmp	r0, #0
   83064:	f47f aeaf 	bne.w	82dc6 <_malloc_r+0x22e>
   83068:	eb08 030b 	add.w	r3, r8, fp
   8306c:	68ba      	ldr	r2, [r7, #8]
   8306e:	f043 0301 	orr.w	r3, r3, #1
   83072:	6053      	str	r3, [r2, #4]
   83074:	e6ef      	b.n	82e56 <_malloc_r+0x2be>
   83076:	207f      	movs	r0, #127	; 0x7f
   83078:	f44f 717e 	mov.w	r1, #1016	; 0x3f8
   8307c:	f04f 0e7e 	mov.w	lr, #126	; 0x7e
   83080:	e5ac      	b.n	82bdc <_malloc_r+0x44>
   83082:	f104 0108 	add.w	r1, r4, #8
   83086:	4628      	mov	r0, r5
   83088:	9300      	str	r3, [sp, #0]
   8308a:	f7ff fa7d 	bl	82588 <_free_r>
   8308e:	9b00      	ldr	r3, [sp, #0]
   83090:	6819      	ldr	r1, [r3, #0]
   83092:	e6e0      	b.n	82e56 <_malloc_r+0x2be>
   83094:	2001      	movs	r0, #1
   83096:	f04f 0900 	mov.w	r9, #0
   8309a:	e6bd      	b.n	82e18 <_malloc_r+0x280>
   8309c:	f5b2 7faa 	cmp.w	r2, #340	; 0x154
   830a0:	d805      	bhi.n	830ae <_malloc_r+0x516>
   830a2:	0bda      	lsrs	r2, r3, #15
   830a4:	f102 0178 	add.w	r1, r2, #120	; 0x78
   830a8:	00c9      	lsls	r1, r1, #3
   830aa:	3277      	adds	r2, #119	; 0x77
   830ac:	e720      	b.n	82ef0 <_malloc_r+0x358>
   830ae:	f240 5154 	movw	r1, #1364	; 0x554
   830b2:	428a      	cmp	r2, r1
   830b4:	d805      	bhi.n	830c2 <_malloc_r+0x52a>
   830b6:	0c9a      	lsrs	r2, r3, #18
   830b8:	f102 017d 	add.w	r1, r2, #125	; 0x7d
   830bc:	00c9      	lsls	r1, r1, #3
   830be:	327c      	adds	r2, #124	; 0x7c
   830c0:	e716      	b.n	82ef0 <_malloc_r+0x358>
   830c2:	f44f 717e 	mov.w	r1, #1016	; 0x3f8
   830c6:	227e      	movs	r2, #126	; 0x7e
   830c8:	e712      	b.n	82ef0 <_malloc_r+0x358>
   830ca:	687b      	ldr	r3, [r7, #4]
   830cc:	e780      	b.n	82fd0 <_malloc_r+0x438>
   830ce:	08f0      	lsrs	r0, r6, #3
   830d0:	f106 0308 	add.w	r3, r6, #8
   830d4:	e60e      	b.n	82cf4 <_malloc_r+0x15c>
   830d6:	bf00      	nop
   830d8:	20000c8c 	.word	0x20000c8c

000830dc <memchr>:
   830dc:	0783      	lsls	r3, r0, #30
   830de:	b470      	push	{r4, r5, r6}
   830e0:	b2cd      	uxtb	r5, r1
   830e2:	d03d      	beq.n	83160 <memchr+0x84>
   830e4:	1e54      	subs	r4, r2, #1
   830e6:	b30a      	cbz	r2, 8312c <memchr+0x50>
   830e8:	7803      	ldrb	r3, [r0, #0]
   830ea:	42ab      	cmp	r3, r5
   830ec:	d01f      	beq.n	8312e <memchr+0x52>
   830ee:	1c43      	adds	r3, r0, #1
   830f0:	e005      	b.n	830fe <memchr+0x22>
   830f2:	f114 34ff 	adds.w	r4, r4, #4294967295
   830f6:	d319      	bcc.n	8312c <memchr+0x50>
   830f8:	7802      	ldrb	r2, [r0, #0]
   830fa:	42aa      	cmp	r2, r5
   830fc:	d017      	beq.n	8312e <memchr+0x52>
   830fe:	f013 0f03 	tst.w	r3, #3
   83102:	4618      	mov	r0, r3
   83104:	f103 0301 	add.w	r3, r3, #1
   83108:	d1f3      	bne.n	830f2 <memchr+0x16>
   8310a:	2c03      	cmp	r4, #3
   8310c:	d811      	bhi.n	83132 <memchr+0x56>
   8310e:	b34c      	cbz	r4, 83164 <memchr+0x88>
   83110:	7803      	ldrb	r3, [r0, #0]
   83112:	42ab      	cmp	r3, r5
   83114:	d00b      	beq.n	8312e <memchr+0x52>
   83116:	4404      	add	r4, r0
   83118:	1c43      	adds	r3, r0, #1
   8311a:	e002      	b.n	83122 <memchr+0x46>
   8311c:	7802      	ldrb	r2, [r0, #0]
   8311e:	42aa      	cmp	r2, r5
   83120:	d005      	beq.n	8312e <memchr+0x52>
   83122:	429c      	cmp	r4, r3
   83124:	4618      	mov	r0, r3
   83126:	f103 0301 	add.w	r3, r3, #1
   8312a:	d1f7      	bne.n	8311c <memchr+0x40>
   8312c:	2000      	movs	r0, #0
   8312e:	bc70      	pop	{r4, r5, r6}
   83130:	4770      	bx	lr
   83132:	0209      	lsls	r1, r1, #8
   83134:	b289      	uxth	r1, r1
   83136:	4329      	orrs	r1, r5
   83138:	ea41 4101 	orr.w	r1, r1, r1, lsl #16
   8313c:	6803      	ldr	r3, [r0, #0]
   8313e:	4606      	mov	r6, r0
   83140:	404b      	eors	r3, r1
   83142:	f1a3 3201 	sub.w	r2, r3, #16843009	; 0x1010101
   83146:	ea22 0303 	bic.w	r3, r2, r3
   8314a:	f013 3f80 	tst.w	r3, #2155905152	; 0x80808080
   8314e:	f100 0004 	add.w	r0, r0, #4
   83152:	d103      	bne.n	8315c <memchr+0x80>
   83154:	3c04      	subs	r4, #4
   83156:	2c03      	cmp	r4, #3
   83158:	d8f0      	bhi.n	8313c <memchr+0x60>
   8315a:	e7d8      	b.n	8310e <memchr+0x32>
   8315c:	4630      	mov	r0, r6
   8315e:	e7d7      	b.n	83110 <memchr+0x34>
   83160:	4614      	mov	r4, r2
   83162:	e7d2      	b.n	8310a <memchr+0x2e>
   83164:	4620      	mov	r0, r4
   83166:	e7e2      	b.n	8312e <memchr+0x52>

00083168 <memcpy>:
   83168:	4684      	mov	ip, r0
   8316a:	ea41 0300 	orr.w	r3, r1, r0
   8316e:	f013 0303 	ands.w	r3, r3, #3
   83172:	d149      	bne.n	83208 <memcpy+0xa0>
   83174:	3a40      	subs	r2, #64	; 0x40
   83176:	d323      	bcc.n	831c0 <memcpy+0x58>
   83178:	680b      	ldr	r3, [r1, #0]
   8317a:	6003      	str	r3, [r0, #0]
   8317c:	684b      	ldr	r3, [r1, #4]
   8317e:	6043      	str	r3, [r0, #4]
   83180:	688b      	ldr	r3, [r1, #8]
   83182:	6083      	str	r3, [r0, #8]
   83184:	68cb      	ldr	r3, [r1, #12]
   83186:	60c3      	str	r3, [r0, #12]
   83188:	690b      	ldr	r3, [r1, #16]
   8318a:	6103      	str	r3, [r0, #16]
   8318c:	694b      	ldr	r3, [r1, #20]
   8318e:	6143      	str	r3, [r0, #20]
   83190:	698b      	ldr	r3, [r1, #24]
   83192:	6183      	str	r3, [r0, #24]
   83194:	69cb      	ldr	r3, [r1, #28]
   83196:	61c3      	str	r3, [r0, #28]
   83198:	6a0b      	ldr	r3, [r1, #32]
   8319a:	6203      	str	r3, [r0, #32]
   8319c:	6a4b      	ldr	r3, [r1, #36]	; 0x24
   8319e:	6243      	str	r3, [r0, #36]	; 0x24
   831a0:	6a8b      	ldr	r3, [r1, #40]	; 0x28
   831a2:	6283      	str	r3, [r0, #40]	; 0x28
   831a4:	6acb      	ldr	r3, [r1, #44]	; 0x2c
   831a6:	62c3      	str	r3, [r0, #44]	; 0x2c
   831a8:	6b0b      	ldr	r3, [r1, #48]	; 0x30
   831aa:	6303      	str	r3, [r0, #48]	; 0x30
   831ac:	6b4b      	ldr	r3, [r1, #52]	; 0x34
   831ae:	6343      	str	r3, [r0, #52]	; 0x34
   831b0:	6b8b      	ldr	r3, [r1, #56]	; 0x38
   831b2:	6383      	str	r3, [r0, #56]	; 0x38
   831b4:	6bcb      	ldr	r3, [r1, #60]	; 0x3c
   831b6:	63c3      	str	r3, [r0, #60]	; 0x3c
   831b8:	3040      	adds	r0, #64	; 0x40
   831ba:	3140      	adds	r1, #64	; 0x40
   831bc:	3a40      	subs	r2, #64	; 0x40
   831be:	d2db      	bcs.n	83178 <memcpy+0x10>
   831c0:	3230      	adds	r2, #48	; 0x30
   831c2:	d30b      	bcc.n	831dc <memcpy+0x74>
   831c4:	680b      	ldr	r3, [r1, #0]
   831c6:	6003      	str	r3, [r0, #0]
   831c8:	684b      	ldr	r3, [r1, #4]
   831ca:	6043      	str	r3, [r0, #4]
   831cc:	688b      	ldr	r3, [r1, #8]
   831ce:	6083      	str	r3, [r0, #8]
   831d0:	68cb      	ldr	r3, [r1, #12]
   831d2:	60c3      	str	r3, [r0, #12]
   831d4:	3010      	adds	r0, #16
   831d6:	3110      	adds	r1, #16
   831d8:	3a10      	subs	r2, #16
   831da:	d2f3      	bcs.n	831c4 <memcpy+0x5c>
   831dc:	320c      	adds	r2, #12
   831de:	d305      	bcc.n	831ec <memcpy+0x84>
   831e0:	f851 3b04 	ldr.w	r3, [r1], #4
   831e4:	f840 3b04 	str.w	r3, [r0], #4
   831e8:	3a04      	subs	r2, #4
   831ea:	d2f9      	bcs.n	831e0 <memcpy+0x78>
   831ec:	3204      	adds	r2, #4
   831ee:	d008      	beq.n	83202 <memcpy+0x9a>
   831f0:	07d2      	lsls	r2, r2, #31
   831f2:	bf1c      	itt	ne
   831f4:	f811 3b01 	ldrbne.w	r3, [r1], #1
   831f8:	f800 3b01 	strbne.w	r3, [r0], #1
   831fc:	d301      	bcc.n	83202 <memcpy+0x9a>
   831fe:	880b      	ldrh	r3, [r1, #0]
   83200:	8003      	strh	r3, [r0, #0]
   83202:	4660      	mov	r0, ip
   83204:	4770      	bx	lr
   83206:	bf00      	nop
   83208:	2a08      	cmp	r2, #8
   8320a:	d313      	bcc.n	83234 <memcpy+0xcc>
   8320c:	078b      	lsls	r3, r1, #30
   8320e:	d0b1      	beq.n	83174 <memcpy+0xc>
   83210:	f010 0303 	ands.w	r3, r0, #3
   83214:	d0ae      	beq.n	83174 <memcpy+0xc>
   83216:	f1c3 0304 	rsb	r3, r3, #4
   8321a:	1ad2      	subs	r2, r2, r3
   8321c:	07db      	lsls	r3, r3, #31
   8321e:	bf1c      	itt	ne
   83220:	f811 3b01 	ldrbne.w	r3, [r1], #1
   83224:	f800 3b01 	strbne.w	r3, [r0], #1
   83228:	d3a4      	bcc.n	83174 <memcpy+0xc>
   8322a:	f831 3b02 	ldrh.w	r3, [r1], #2
   8322e:	f820 3b02 	strh.w	r3, [r0], #2
   83232:	e79f      	b.n	83174 <memcpy+0xc>
   83234:	3a04      	subs	r2, #4
   83236:	d3d9      	bcc.n	831ec <memcpy+0x84>
   83238:	3a01      	subs	r2, #1
   8323a:	f811 3b01 	ldrb.w	r3, [r1], #1
   8323e:	f800 3b01 	strb.w	r3, [r0], #1
   83242:	d2f9      	bcs.n	83238 <memcpy+0xd0>
   83244:	780b      	ldrb	r3, [r1, #0]
   83246:	7003      	strb	r3, [r0, #0]
   83248:	784b      	ldrb	r3, [r1, #1]
   8324a:	7043      	strb	r3, [r0, #1]
   8324c:	788b      	ldrb	r3, [r1, #2]
   8324e:	7083      	strb	r3, [r0, #2]
   83250:	4660      	mov	r0, ip
   83252:	4770      	bx	lr

00083254 <memmove>:
   83254:	4288      	cmp	r0, r1
   83256:	b5f0      	push	{r4, r5, r6, r7, lr}
   83258:	d90d      	bls.n	83276 <memmove+0x22>
   8325a:	188b      	adds	r3, r1, r2
   8325c:	4298      	cmp	r0, r3
   8325e:	d20a      	bcs.n	83276 <memmove+0x22>
   83260:	1884      	adds	r4, r0, r2
   83262:	2a00      	cmp	r2, #0
   83264:	d051      	beq.n	8330a <memmove+0xb6>
   83266:	4622      	mov	r2, r4
   83268:	f813 4d01 	ldrb.w	r4, [r3, #-1]!
   8326c:	4299      	cmp	r1, r3
   8326e:	f802 4d01 	strb.w	r4, [r2, #-1]!
   83272:	d1f9      	bne.n	83268 <memmove+0x14>
   83274:	bdf0      	pop	{r4, r5, r6, r7, pc}
   83276:	2a0f      	cmp	r2, #15
   83278:	d948      	bls.n	8330c <memmove+0xb8>
   8327a:	ea41 0300 	orr.w	r3, r1, r0
   8327e:	079b      	lsls	r3, r3, #30
   83280:	d146      	bne.n	83310 <memmove+0xbc>
   83282:	4615      	mov	r5, r2
   83284:	f100 0410 	add.w	r4, r0, #16
   83288:	f101 0310 	add.w	r3, r1, #16
   8328c:	f853 6c10 	ldr.w	r6, [r3, #-16]
   83290:	3d10      	subs	r5, #16
   83292:	f844 6c10 	str.w	r6, [r4, #-16]
   83296:	f853 6c0c 	ldr.w	r6, [r3, #-12]
   8329a:	2d0f      	cmp	r5, #15
   8329c:	f844 6c0c 	str.w	r6, [r4, #-12]
   832a0:	f853 6c08 	ldr.w	r6, [r3, #-8]
   832a4:	f104 0410 	add.w	r4, r4, #16
   832a8:	f844 6c18 	str.w	r6, [r4, #-24]
   832ac:	f853 6c04 	ldr.w	r6, [r3, #-4]
   832b0:	f103 0310 	add.w	r3, r3, #16
   832b4:	f844 6c14 	str.w	r6, [r4, #-20]
   832b8:	d8e8      	bhi.n	8328c <memmove+0x38>
   832ba:	f1a2 0310 	sub.w	r3, r2, #16
   832be:	f023 030f 	bic.w	r3, r3, #15
   832c2:	f002 0e0f 	and.w	lr, r2, #15
   832c6:	3310      	adds	r3, #16
   832c8:	f1be 0f03 	cmp.w	lr, #3
   832cc:	4419      	add	r1, r3
   832ce:	4403      	add	r3, r0
   832d0:	d921      	bls.n	83316 <memmove+0xc2>
   832d2:	460e      	mov	r6, r1
   832d4:	4674      	mov	r4, lr
   832d6:	1f1d      	subs	r5, r3, #4
   832d8:	f856 7b04 	ldr.w	r7, [r6], #4
   832dc:	3c04      	subs	r4, #4
   832de:	2c03      	cmp	r4, #3
   832e0:	f845 7f04 	str.w	r7, [r5, #4]!
   832e4:	d8f8      	bhi.n	832d8 <memmove+0x84>
   832e6:	f1ae 0404 	sub.w	r4, lr, #4
   832ea:	f024 0403 	bic.w	r4, r4, #3
   832ee:	3404      	adds	r4, #4
   832f0:	4421      	add	r1, r4
   832f2:	4423      	add	r3, r4
   832f4:	f002 0203 	and.w	r2, r2, #3
   832f8:	b162      	cbz	r2, 83314 <memmove+0xc0>
   832fa:	3b01      	subs	r3, #1
   832fc:	440a      	add	r2, r1
   832fe:	f811 4b01 	ldrb.w	r4, [r1], #1
   83302:	428a      	cmp	r2, r1
   83304:	f803 4f01 	strb.w	r4, [r3, #1]!
   83308:	d1f9      	bne.n	832fe <memmove+0xaa>
   8330a:	bdf0      	pop	{r4, r5, r6, r7, pc}
   8330c:	4603      	mov	r3, r0
   8330e:	e7f3      	b.n	832f8 <memmove+0xa4>
   83310:	4603      	mov	r3, r0
   83312:	e7f2      	b.n	832fa <memmove+0xa6>
   83314:	bdf0      	pop	{r4, r5, r6, r7, pc}
   83316:	4672      	mov	r2, lr
   83318:	e7ee      	b.n	832f8 <memmove+0xa4>
   8331a:	bf00      	nop

0008331c <__malloc_lock>:
   8331c:	4801      	ldr	r0, [pc, #4]	; (83324 <__malloc_lock+0x8>)
   8331e:	f7ff bbbf 	b.w	82aa0 <__retarget_lock_acquire_recursive>
   83322:	bf00      	nop
   83324:	20000d00 	.word	0x20000d00

00083328 <__malloc_unlock>:
   83328:	4801      	ldr	r0, [pc, #4]	; (83330 <__malloc_unlock+0x8>)
   8332a:	f7ff bbbb 	b.w	82aa4 <__retarget_lock_release_recursive>
   8332e:	bf00      	nop
   83330:	20000d00 	.word	0x20000d00

00083334 <_realloc_r>:
   83334:	2900      	cmp	r1, #0
   83336:	f000 8094 	beq.w	83462 <_realloc_r+0x12e>
   8333a:	e92d 4ff0 	stmdb	sp!, {r4, r5, r6, r7, r8, r9, sl, fp, lr}
   8333e:	460c      	mov	r4, r1
   83340:	4615      	mov	r5, r2
   83342:	b083      	sub	sp, #12
   83344:	4680      	mov	r8, r0
   83346:	f105 060b 	add.w	r6, r5, #11
   8334a:	f7ff ffe7 	bl	8331c <__malloc_lock>
   8334e:	f854 ec04 	ldr.w	lr, [r4, #-4]
   83352:	2e16      	cmp	r6, #22
   83354:	f02e 0703 	bic.w	r7, lr, #3
   83358:	f1a4 0908 	sub.w	r9, r4, #8
   8335c:	d83c      	bhi.n	833d8 <_realloc_r+0xa4>
   8335e:	2210      	movs	r2, #16
   83360:	4616      	mov	r6, r2
   83362:	42b5      	cmp	r5, r6
   83364:	d83d      	bhi.n	833e2 <_realloc_r+0xae>
   83366:	4297      	cmp	r7, r2
   83368:	da43      	bge.n	833f2 <_realloc_r+0xbe>
   8336a:	4bc6      	ldr	r3, [pc, #792]	; (83684 <_realloc_r+0x350>)
   8336c:	eb09 0007 	add.w	r0, r9, r7
   83370:	6899      	ldr	r1, [r3, #8]
   83372:	4288      	cmp	r0, r1
   83374:	f000 80c3 	beq.w	834fe <_realloc_r+0x1ca>
   83378:	6843      	ldr	r3, [r0, #4]
   8337a:	f023 0101 	bic.w	r1, r3, #1
   8337e:	4401      	add	r1, r0
   83380:	6849      	ldr	r1, [r1, #4]
   83382:	07c9      	lsls	r1, r1, #31
   83384:	d54d      	bpl.n	83422 <_realloc_r+0xee>
   83386:	f01e 0f01 	tst.w	lr, #1
   8338a:	f000 809b 	beq.w	834c4 <_realloc_r+0x190>
   8338e:	4629      	mov	r1, r5
   83390:	4640      	mov	r0, r8
   83392:	f7ff fc01 	bl	82b98 <_malloc_r>
   83396:	4605      	mov	r5, r0
   83398:	2800      	cmp	r0, #0
   8339a:	d03b      	beq.n	83414 <_realloc_r+0xe0>
   8339c:	f854 3c04 	ldr.w	r3, [r4, #-4]
   833a0:	f1a0 0208 	sub.w	r2, r0, #8
   833a4:	f023 0301 	bic.w	r3, r3, #1
   833a8:	444b      	add	r3, r9
   833aa:	429a      	cmp	r2, r3
   833ac:	f000 812b 	beq.w	83606 <_realloc_r+0x2d2>
   833b0:	1f3a      	subs	r2, r7, #4
   833b2:	2a24      	cmp	r2, #36	; 0x24
   833b4:	f200 8118 	bhi.w	835e8 <_realloc_r+0x2b4>
   833b8:	2a13      	cmp	r2, #19
   833ba:	f200 80eb 	bhi.w	83594 <_realloc_r+0x260>
   833be:	4603      	mov	r3, r0
   833c0:	4622      	mov	r2, r4
   833c2:	6811      	ldr	r1, [r2, #0]
   833c4:	6019      	str	r1, [r3, #0]
   833c6:	6851      	ldr	r1, [r2, #4]
   833c8:	6059      	str	r1, [r3, #4]
   833ca:	6892      	ldr	r2, [r2, #8]
   833cc:	609a      	str	r2, [r3, #8]
   833ce:	4621      	mov	r1, r4
   833d0:	4640      	mov	r0, r8
   833d2:	f7ff f8d9 	bl	82588 <_free_r>
   833d6:	e01d      	b.n	83414 <_realloc_r+0xe0>
   833d8:	f026 0607 	bic.w	r6, r6, #7
   833dc:	2e00      	cmp	r6, #0
   833de:	4632      	mov	r2, r6
   833e0:	dabf      	bge.n	83362 <_realloc_r+0x2e>
   833e2:	2500      	movs	r5, #0
   833e4:	230c      	movs	r3, #12
   833e6:	4628      	mov	r0, r5
   833e8:	f8c8 3000 	str.w	r3, [r8]
   833ec:	b003      	add	sp, #12
   833ee:	e8bd 8ff0 	ldmia.w	sp!, {r4, r5, r6, r7, r8, r9, sl, fp, pc}
   833f2:	4625      	mov	r5, r4
   833f4:	1bbb      	subs	r3, r7, r6
   833f6:	2b0f      	cmp	r3, #15
   833f8:	f8d9 2004 	ldr.w	r2, [r9, #4]
   833fc:	d81d      	bhi.n	8343a <_realloc_r+0x106>
   833fe:	f002 0201 	and.w	r2, r2, #1
   83402:	433a      	orrs	r2, r7
   83404:	eb09 0107 	add.w	r1, r9, r7
   83408:	f8c9 2004 	str.w	r2, [r9, #4]
   8340c:	684b      	ldr	r3, [r1, #4]
   8340e:	f043 0301 	orr.w	r3, r3, #1
   83412:	604b      	str	r3, [r1, #4]
   83414:	4640      	mov	r0, r8
   83416:	f7ff ff87 	bl	83328 <__malloc_unlock>
   8341a:	4628      	mov	r0, r5
   8341c:	b003      	add	sp, #12
   8341e:	e8bd 8ff0 	ldmia.w	sp!, {r4, r5, r6, r7, r8, r9, sl, fp, pc}
   83422:	f023 0303 	bic.w	r3, r3, #3
   83426:	18f9      	adds	r1, r7, r3
   83428:	4291      	cmp	r1, r2
   8342a:	db1d      	blt.n	83468 <_realloc_r+0x134>
   8342c:	68c3      	ldr	r3, [r0, #12]
   8342e:	6882      	ldr	r2, [r0, #8]
   83430:	4625      	mov	r5, r4
   83432:	60d3      	str	r3, [r2, #12]
   83434:	460f      	mov	r7, r1
   83436:	609a      	str	r2, [r3, #8]
   83438:	e7dc      	b.n	833f4 <_realloc_r+0xc0>
   8343a:	f002 0201 	and.w	r2, r2, #1
   8343e:	eb09 0106 	add.w	r1, r9, r6
   83442:	f043 0301 	orr.w	r3, r3, #1
   83446:	4332      	orrs	r2, r6
   83448:	f8c9 2004 	str.w	r2, [r9, #4]
   8344c:	444f      	add	r7, r9
   8344e:	604b      	str	r3, [r1, #4]
   83450:	687b      	ldr	r3, [r7, #4]
   83452:	3108      	adds	r1, #8
   83454:	f043 0301 	orr.w	r3, r3, #1
   83458:	607b      	str	r3, [r7, #4]
   8345a:	4640      	mov	r0, r8
   8345c:	f7ff f894 	bl	82588 <_free_r>
   83460:	e7d8      	b.n	83414 <_realloc_r+0xe0>
   83462:	4611      	mov	r1, r2
   83464:	f7ff bb98 	b.w	82b98 <_malloc_r>
   83468:	f01e 0f01 	tst.w	lr, #1
   8346c:	d18f      	bne.n	8338e <_realloc_r+0x5a>
   8346e:	f854 1c08 	ldr.w	r1, [r4, #-8]
   83472:	eba9 0a01 	sub.w	sl, r9, r1
   83476:	f8da 1004 	ldr.w	r1, [sl, #4]
   8347a:	f021 0103 	bic.w	r1, r1, #3
   8347e:	440b      	add	r3, r1
   83480:	443b      	add	r3, r7
   83482:	4293      	cmp	r3, r2
   83484:	db26      	blt.n	834d4 <_realloc_r+0x1a0>
   83486:	4655      	mov	r5, sl
   83488:	68c1      	ldr	r1, [r0, #12]
   8348a:	6880      	ldr	r0, [r0, #8]
   8348c:	1f3a      	subs	r2, r7, #4
   8348e:	60c1      	str	r1, [r0, #12]
   83490:	6088      	str	r0, [r1, #8]
   83492:	f855 0f08 	ldr.w	r0, [r5, #8]!
   83496:	f8da 100c 	ldr.w	r1, [sl, #12]
   8349a:	2a24      	cmp	r2, #36	; 0x24
   8349c:	60c1      	str	r1, [r0, #12]
   8349e:	6088      	str	r0, [r1, #8]
   834a0:	d826      	bhi.n	834f0 <_realloc_r+0x1bc>
   834a2:	2a13      	cmp	r2, #19
   834a4:	f240 8081 	bls.w	835aa <_realloc_r+0x276>
   834a8:	6821      	ldr	r1, [r4, #0]
   834aa:	2a1b      	cmp	r2, #27
   834ac:	f8ca 1008 	str.w	r1, [sl, #8]
   834b0:	6861      	ldr	r1, [r4, #4]
   834b2:	f8ca 100c 	str.w	r1, [sl, #12]
   834b6:	f200 80ad 	bhi.w	83614 <_realloc_r+0x2e0>
   834ba:	f104 0008 	add.w	r0, r4, #8
   834be:	f10a 0210 	add.w	r2, sl, #16
   834c2:	e074      	b.n	835ae <_realloc_r+0x27a>
   834c4:	f854 3c08 	ldr.w	r3, [r4, #-8]
   834c8:	eba9 0a03 	sub.w	sl, r9, r3
   834cc:	f8da 1004 	ldr.w	r1, [sl, #4]
   834d0:	f021 0103 	bic.w	r1, r1, #3
   834d4:	187b      	adds	r3, r7, r1
   834d6:	4293      	cmp	r3, r2
   834d8:	f6ff af59 	blt.w	8338e <_realloc_r+0x5a>
   834dc:	4655      	mov	r5, sl
   834de:	f8da 100c 	ldr.w	r1, [sl, #12]
   834e2:	f855 0f08 	ldr.w	r0, [r5, #8]!
   834e6:	1f3a      	subs	r2, r7, #4
   834e8:	2a24      	cmp	r2, #36	; 0x24
   834ea:	60c1      	str	r1, [r0, #12]
   834ec:	6088      	str	r0, [r1, #8]
   834ee:	d9d8      	bls.n	834a2 <_realloc_r+0x16e>
   834f0:	4621      	mov	r1, r4
   834f2:	4628      	mov	r0, r5
   834f4:	461f      	mov	r7, r3
   834f6:	46d1      	mov	r9, sl
   834f8:	f7ff feac 	bl	83254 <memmove>
   834fc:	e77a      	b.n	833f4 <_realloc_r+0xc0>
   834fe:	6841      	ldr	r1, [r0, #4]
   83500:	f106 0010 	add.w	r0, r6, #16
   83504:	f021 0b03 	bic.w	fp, r1, #3
   83508:	44bb      	add	fp, r7
   8350a:	4583      	cmp	fp, r0
   8350c:	da58      	bge.n	835c0 <_realloc_r+0x28c>
   8350e:	f01e 0f01 	tst.w	lr, #1
   83512:	f47f af3c 	bne.w	8338e <_realloc_r+0x5a>
   83516:	f854 1c08 	ldr.w	r1, [r4, #-8]
   8351a:	eba9 0a01 	sub.w	sl, r9, r1
   8351e:	f8da 1004 	ldr.w	r1, [sl, #4]
   83522:	f021 0103 	bic.w	r1, r1, #3
   83526:	448b      	add	fp, r1
   83528:	4558      	cmp	r0, fp
   8352a:	dcd3      	bgt.n	834d4 <_realloc_r+0x1a0>
   8352c:	4655      	mov	r5, sl
   8352e:	f8da 100c 	ldr.w	r1, [sl, #12]
   83532:	f855 0f08 	ldr.w	r0, [r5, #8]!
   83536:	1f3a      	subs	r2, r7, #4
   83538:	2a24      	cmp	r2, #36	; 0x24
   8353a:	60c1      	str	r1, [r0, #12]
   8353c:	6088      	str	r0, [r1, #8]
   8353e:	f200 808d 	bhi.w	8365c <_realloc_r+0x328>
   83542:	2a13      	cmp	r2, #19
   83544:	f240 8087 	bls.w	83656 <_realloc_r+0x322>
   83548:	6821      	ldr	r1, [r4, #0]
   8354a:	2a1b      	cmp	r2, #27
   8354c:	f8ca 1008 	str.w	r1, [sl, #8]
   83550:	6861      	ldr	r1, [r4, #4]
   83552:	f8ca 100c 	str.w	r1, [sl, #12]
   83556:	f200 8088 	bhi.w	8366a <_realloc_r+0x336>
   8355a:	f104 0108 	add.w	r1, r4, #8
   8355e:	f10a 0210 	add.w	r2, sl, #16
   83562:	6808      	ldr	r0, [r1, #0]
   83564:	6010      	str	r0, [r2, #0]
   83566:	6848      	ldr	r0, [r1, #4]
   83568:	6050      	str	r0, [r2, #4]
   8356a:	6889      	ldr	r1, [r1, #8]
   8356c:	6091      	str	r1, [r2, #8]
   8356e:	ebab 0206 	sub.w	r2, fp, r6
   83572:	eb0a 0106 	add.w	r1, sl, r6
   83576:	f042 0201 	orr.w	r2, r2, #1
   8357a:	6099      	str	r1, [r3, #8]
   8357c:	604a      	str	r2, [r1, #4]
   8357e:	f8da 3004 	ldr.w	r3, [sl, #4]
   83582:	4640      	mov	r0, r8
   83584:	f003 0301 	and.w	r3, r3, #1
   83588:	431e      	orrs	r6, r3
   8358a:	f8ca 6004 	str.w	r6, [sl, #4]
   8358e:	f7ff fecb 	bl	83328 <__malloc_unlock>
   83592:	e742      	b.n	8341a <_realloc_r+0xe6>
   83594:	6823      	ldr	r3, [r4, #0]
   83596:	2a1b      	cmp	r2, #27
   83598:	6003      	str	r3, [r0, #0]
   8359a:	6863      	ldr	r3, [r4, #4]
   8359c:	6043      	str	r3, [r0, #4]
   8359e:	d827      	bhi.n	835f0 <_realloc_r+0x2bc>
   835a0:	f100 0308 	add.w	r3, r0, #8
   835a4:	f104 0208 	add.w	r2, r4, #8
   835a8:	e70b      	b.n	833c2 <_realloc_r+0x8e>
   835aa:	4620      	mov	r0, r4
   835ac:	462a      	mov	r2, r5
   835ae:	6801      	ldr	r1, [r0, #0]
   835b0:	461f      	mov	r7, r3
   835b2:	6011      	str	r1, [r2, #0]
   835b4:	6841      	ldr	r1, [r0, #4]
   835b6:	46d1      	mov	r9, sl
   835b8:	6051      	str	r1, [r2, #4]
   835ba:	6883      	ldr	r3, [r0, #8]
   835bc:	6093      	str	r3, [r2, #8]
   835be:	e719      	b.n	833f4 <_realloc_r+0xc0>
   835c0:	ebab 0b06 	sub.w	fp, fp, r6
   835c4:	eb09 0106 	add.w	r1, r9, r6
   835c8:	f04b 0201 	orr.w	r2, fp, #1
   835cc:	6099      	str	r1, [r3, #8]
   835ce:	604a      	str	r2, [r1, #4]
   835d0:	f854 3c04 	ldr.w	r3, [r4, #-4]
   835d4:	4640      	mov	r0, r8
   835d6:	f003 0301 	and.w	r3, r3, #1
   835da:	431e      	orrs	r6, r3
   835dc:	f844 6c04 	str.w	r6, [r4, #-4]
   835e0:	f7ff fea2 	bl	83328 <__malloc_unlock>
   835e4:	4625      	mov	r5, r4
   835e6:	e718      	b.n	8341a <_realloc_r+0xe6>
   835e8:	4621      	mov	r1, r4
   835ea:	f7ff fe33 	bl	83254 <memmove>
   835ee:	e6ee      	b.n	833ce <_realloc_r+0x9a>
   835f0:	68a3      	ldr	r3, [r4, #8]
   835f2:	2a24      	cmp	r2, #36	; 0x24
   835f4:	6083      	str	r3, [r0, #8]
   835f6:	68e3      	ldr	r3, [r4, #12]
   835f8:	60c3      	str	r3, [r0, #12]
   835fa:	d018      	beq.n	8362e <_realloc_r+0x2fa>
   835fc:	f100 0310 	add.w	r3, r0, #16
   83600:	f104 0210 	add.w	r2, r4, #16
   83604:	e6dd      	b.n	833c2 <_realloc_r+0x8e>
   83606:	f850 3c04 	ldr.w	r3, [r0, #-4]
   8360a:	4625      	mov	r5, r4
   8360c:	f023 0303 	bic.w	r3, r3, #3
   83610:	441f      	add	r7, r3
   83612:	e6ef      	b.n	833f4 <_realloc_r+0xc0>
   83614:	68a1      	ldr	r1, [r4, #8]
   83616:	2a24      	cmp	r2, #36	; 0x24
   83618:	f8ca 1010 	str.w	r1, [sl, #16]
   8361c:	68e1      	ldr	r1, [r4, #12]
   8361e:	f8ca 1014 	str.w	r1, [sl, #20]
   83622:	d00d      	beq.n	83640 <_realloc_r+0x30c>
   83624:	f104 0010 	add.w	r0, r4, #16
   83628:	f10a 0218 	add.w	r2, sl, #24
   8362c:	e7bf      	b.n	835ae <_realloc_r+0x27a>
   8362e:	6922      	ldr	r2, [r4, #16]
   83630:	f100 0318 	add.w	r3, r0, #24
   83634:	6102      	str	r2, [r0, #16]
   83636:	6961      	ldr	r1, [r4, #20]
   83638:	f104 0218 	add.w	r2, r4, #24
   8363c:	6141      	str	r1, [r0, #20]
   8363e:	e6c0      	b.n	833c2 <_realloc_r+0x8e>
   83640:	6922      	ldr	r2, [r4, #16]
   83642:	f104 0018 	add.w	r0, r4, #24
   83646:	f8ca 2018 	str.w	r2, [sl, #24]
   8364a:	6961      	ldr	r1, [r4, #20]
   8364c:	f10a 0220 	add.w	r2, sl, #32
   83650:	f8ca 101c 	str.w	r1, [sl, #28]
   83654:	e7ab      	b.n	835ae <_realloc_r+0x27a>
   83656:	4621      	mov	r1, r4
   83658:	462a      	mov	r2, r5
   8365a:	e782      	b.n	83562 <_realloc_r+0x22e>
   8365c:	4621      	mov	r1, r4
   8365e:	4628      	mov	r0, r5
   83660:	9301      	str	r3, [sp, #4]
   83662:	f7ff fdf7 	bl	83254 <memmove>
   83666:	9b01      	ldr	r3, [sp, #4]
   83668:	e781      	b.n	8356e <_realloc_r+0x23a>
   8366a:	68a1      	ldr	r1, [r4, #8]
   8366c:	2a24      	cmp	r2, #36	; 0x24
   8366e:	f8ca 1010 	str.w	r1, [sl, #16]
   83672:	68e1      	ldr	r1, [r4, #12]
   83674:	f8ca 1014 	str.w	r1, [sl, #20]
   83678:	d006      	beq.n	83688 <_realloc_r+0x354>
   8367a:	f104 0110 	add.w	r1, r4, #16
   8367e:	f10a 0218 	add.w	r2, sl, #24
   83682:	e76e      	b.n	83562 <_realloc_r+0x22e>
   83684:	20000434 	.word	0x20000434
   83688:	6922      	ldr	r2, [r4, #16]
   8368a:	f104 0118 	add.w	r1, r4, #24
   8368e:	f8ca 2018 	str.w	r2, [sl, #24]
   83692:	6960      	ldr	r0, [r4, #20]
   83694:	f10a 0220 	add.w	r2, sl, #32
   83698:	f8ca 001c 	str.w	r0, [sl, #28]
   8369c:	e761      	b.n	83562 <_realloc_r+0x22e>
   8369e:	bf00      	nop

000836a0 <_sbrk_r>:
   836a0:	b538      	push	{r3, r4, r5, lr}
   836a2:	2300      	movs	r3, #0
   836a4:	4c06      	ldr	r4, [pc, #24]	; (836c0 <_sbrk_r+0x20>)
   836a6:	4605      	mov	r5, r0
   836a8:	4608      	mov	r0, r1
   836aa:	6023      	str	r3, [r4, #0]
   836ac:	f7fd fc14 	bl	80ed8 <_sbrk>
   836b0:	1c43      	adds	r3, r0, #1
   836b2:	d000      	beq.n	836b6 <_sbrk_r+0x16>
   836b4:	bd38      	pop	{r3, r4, r5, pc}
   836b6:	6823      	ldr	r3, [r4, #0]
   836b8:	2b00      	cmp	r3, #0
   836ba:	d0fb      	beq.n	836b4 <_sbrk_r+0x14>
   836bc:	602b      	str	r3, [r5, #0]
   836be:	bd38      	pop	{r3, r4, r5, pc}
   836c0:	20000d14 	.word	0x20000d14

000836c4 <__sread>:
   836c4:	b510      	push	{r4, lr}
   836c6:	460c      	mov	r4, r1
   836c8:	f9b1 100e 	ldrsh.w	r1, [r1, #14]
   836cc:	f000 f966 	bl	8399c <_read_r>
   836d0:	2800      	cmp	r0, #0
   836d2:	db03      	blt.n	836dc <__sread+0x18>
   836d4:	6d23      	ldr	r3, [r4, #80]	; 0x50
   836d6:	4403      	add	r3, r0
   836d8:	6523      	str	r3, [r4, #80]	; 0x50
   836da:	bd10      	pop	{r4, pc}
   836dc:	89a3      	ldrh	r3, [r4, #12]
   836de:	f423 5380 	bic.w	r3, r3, #4096	; 0x1000
   836e2:	81a3      	strh	r3, [r4, #12]
   836e4:	bd10      	pop	{r4, pc}
   836e6:	bf00      	nop

000836e8 <__swrite>:
   836e8:	e92d 41f0 	stmdb	sp!, {r4, r5, r6, r7, r8, lr}
   836ec:	460c      	mov	r4, r1
   836ee:	f9b1 100c 	ldrsh.w	r1, [r1, #12]
   836f2:	461f      	mov	r7, r3
   836f4:	05cb      	lsls	r3, r1, #23
   836f6:	4616      	mov	r6, r2
   836f8:	4605      	mov	r5, r0
   836fa:	d507      	bpl.n	8370c <__swrite+0x24>
   836fc:	f9b4 100e 	ldrsh.w	r1, [r4, #14]
   83700:	2302      	movs	r3, #2
   83702:	2200      	movs	r2, #0
   83704:	f000 f934 	bl	83970 <_lseek_r>
   83708:	f9b4 100c 	ldrsh.w	r1, [r4, #12]
   8370c:	f421 5180 	bic.w	r1, r1, #4096	; 0x1000
   83710:	81a1      	strh	r1, [r4, #12]
   83712:	463b      	mov	r3, r7
   83714:	4632      	mov	r2, r6
   83716:	f9b4 100e 	ldrsh.w	r1, [r4, #14]
   8371a:	4628      	mov	r0, r5
   8371c:	e8bd 41f0 	ldmia.w	sp!, {r4, r5, r6, r7, r8, lr}
   83720:	f000 b814 	b.w	8374c <_write_r>

00083724 <__sseek>:
   83724:	b510      	push	{r4, lr}
   83726:	460c      	mov	r4, r1
   83728:	f9b1 100e 	ldrsh.w	r1, [r1, #14]
   8372c:	f000 f920 	bl	83970 <_lseek_r>
   83730:	89a3      	ldrh	r3, [r4, #12]
   83732:	1c42      	adds	r2, r0, #1
   83734:	bf0e      	itee	eq
   83736:	f423 5380 	biceq.w	r3, r3, #4096	; 0x1000
   8373a:	f443 5380 	orrne.w	r3, r3, #4096	; 0x1000
   8373e:	6520      	strne	r0, [r4, #80]	; 0x50
   83740:	81a3      	strh	r3, [r4, #12]
   83742:	bd10      	pop	{r4, pc}

00083744 <__sclose>:
   83744:	f9b1 100e 	ldrsh.w	r1, [r1, #14]
   83748:	f000 b878 	b.w	8383c <_close_r>

0008374c <_write_r>:
   8374c:	b5f8      	push	{r3, r4, r5, r6, r7, lr}
   8374e:	460e      	mov	r6, r1
   83750:	2500      	movs	r5, #0
   83752:	4c08      	ldr	r4, [pc, #32]	; (83774 <_write_r+0x28>)
   83754:	4611      	mov	r1, r2
   83756:	4607      	mov	r7, r0
   83758:	461a      	mov	r2, r3
   8375a:	4630      	mov	r0, r6
   8375c:	6025      	str	r5, [r4, #0]
   8375e:	f7fd fbdd 	bl	80f1c <_write>
   83762:	1c43      	adds	r3, r0, #1
   83764:	d000      	beq.n	83768 <_write_r+0x1c>
   83766:	bdf8      	pop	{r3, r4, r5, r6, r7, pc}
   83768:	6823      	ldr	r3, [r4, #0]
   8376a:	2b00      	cmp	r3, #0
   8376c:	d0fb      	beq.n	83766 <_write_r+0x1a>
   8376e:	603b      	str	r3, [r7, #0]
   83770:	bdf8      	pop	{r3, r4, r5, r6, r7, pc}
   83772:	bf00      	nop
   83774:	20000d14 	.word	0x20000d14

00083778 <__register_exitproc>:
   83778:	e92d 43f8 	stmdb	sp!, {r3, r4, r5, r6, r7, r8, r9, lr}
   8377c:	4d2c      	ldr	r5, [pc, #176]	; (83830 <__register_exitproc+0xb8>)
   8377e:	4606      	mov	r6, r0
   83780:	6828      	ldr	r0, [r5, #0]
   83782:	4698      	mov	r8, r3
   83784:	460f      	mov	r7, r1
   83786:	4691      	mov	r9, r2
   83788:	f7ff f98a 	bl	82aa0 <__retarget_lock_acquire_recursive>
   8378c:	4b29      	ldr	r3, [pc, #164]	; (83834 <__register_exitproc+0xbc>)
   8378e:	681c      	ldr	r4, [r3, #0]
   83790:	f8d4 3148 	ldr.w	r3, [r4, #328]	; 0x148
   83794:	2b00      	cmp	r3, #0
   83796:	d03e      	beq.n	83816 <__register_exitproc+0x9e>
   83798:	685a      	ldr	r2, [r3, #4]
   8379a:	2a1f      	cmp	r2, #31
   8379c:	dc1c      	bgt.n	837d8 <__register_exitproc+0x60>
   8379e:	f102 0e01 	add.w	lr, r2, #1
   837a2:	b176      	cbz	r6, 837c2 <__register_exitproc+0x4a>
   837a4:	2101      	movs	r1, #1
   837a6:	eb03 0482 	add.w	r4, r3, r2, lsl #2
   837aa:	f8c4 9088 	str.w	r9, [r4, #136]	; 0x88
   837ae:	f8d3 0188 	ldr.w	r0, [r3, #392]	; 0x188
   837b2:	4091      	lsls	r1, r2
   837b4:	4308      	orrs	r0, r1
   837b6:	2e02      	cmp	r6, #2
   837b8:	f8c3 0188 	str.w	r0, [r3, #392]	; 0x188
   837bc:	f8c4 8108 	str.w	r8, [r4, #264]	; 0x108
   837c0:	d023      	beq.n	8380a <__register_exitproc+0x92>
   837c2:	3202      	adds	r2, #2
   837c4:	f8c3 e004 	str.w	lr, [r3, #4]
   837c8:	6828      	ldr	r0, [r5, #0]
   837ca:	f843 7022 	str.w	r7, [r3, r2, lsl #2]
   837ce:	f7ff f969 	bl	82aa4 <__retarget_lock_release_recursive>
   837d2:	2000      	movs	r0, #0
   837d4:	e8bd 83f8 	ldmia.w	sp!, {r3, r4, r5, r6, r7, r8, r9, pc}
   837d8:	4b17      	ldr	r3, [pc, #92]	; (83838 <__register_exitproc+0xc0>)
   837da:	b30b      	cbz	r3, 83820 <__register_exitproc+0xa8>
   837dc:	f44f 70c8 	mov.w	r0, #400	; 0x190
   837e0:	f3af 8000 	nop.w
   837e4:	4603      	mov	r3, r0
   837e6:	b1d8      	cbz	r0, 83820 <__register_exitproc+0xa8>
   837e8:	2000      	movs	r0, #0
   837ea:	f8d4 1148 	ldr.w	r1, [r4, #328]	; 0x148
   837ee:	f04f 0e01 	mov.w	lr, #1
   837f2:	6058      	str	r0, [r3, #4]
   837f4:	6019      	str	r1, [r3, #0]
   837f6:	4602      	mov	r2, r0
   837f8:	f8c4 3148 	str.w	r3, [r4, #328]	; 0x148
   837fc:	f8c3 0188 	str.w	r0, [r3, #392]	; 0x188
   83800:	f8c3 018c 	str.w	r0, [r3, #396]	; 0x18c
   83804:	2e00      	cmp	r6, #0
   83806:	d0dc      	beq.n	837c2 <__register_exitproc+0x4a>
   83808:	e7cc      	b.n	837a4 <__register_exitproc+0x2c>
   8380a:	f8d3 018c 	ldr.w	r0, [r3, #396]	; 0x18c
   8380e:	4301      	orrs	r1, r0
   83810:	f8c3 118c 	str.w	r1, [r3, #396]	; 0x18c
   83814:	e7d5      	b.n	837c2 <__register_exitproc+0x4a>
   83816:	f504 73a6 	add.w	r3, r4, #332	; 0x14c
   8381a:	f8c4 3148 	str.w	r3, [r4, #328]	; 0x148
   8381e:	e7bb      	b.n	83798 <__register_exitproc+0x20>
   83820:	6828      	ldr	r0, [r5, #0]
   83822:	f7ff f93f 	bl	82aa4 <__retarget_lock_release_recursive>
   83826:	f04f 30ff 	mov.w	r0, #4294967295
   8382a:	e8bd 83f8 	ldmia.w	sp!, {r3, r4, r5, r6, r7, r8, r9, pc}
   8382e:	bf00      	nop
   83830:	20000430 	.word	0x20000430
   83834:	00083a90 	.word	0x00083a90
   83838:	00000000 	.word	0x00000000

0008383c <_close_r>:
   8383c:	b538      	push	{r3, r4, r5, lr}
   8383e:	2300      	movs	r3, #0
   83840:	4c06      	ldr	r4, [pc, #24]	; (8385c <_close_r+0x20>)
   83842:	4605      	mov	r5, r0
   83844:	4608      	mov	r0, r1
   83846:	6023      	str	r3, [r4, #0]
   83848:	f7fd fb5c 	bl	80f04 <_close>
   8384c:	1c43      	adds	r3, r0, #1
   8384e:	d000      	beq.n	83852 <_close_r+0x16>
   83850:	bd38      	pop	{r3, r4, r5, pc}
   83852:	6823      	ldr	r3, [r4, #0]
   83854:	2b00      	cmp	r3, #0
   83856:	d0fb      	beq.n	83850 <_close_r+0x14>
   83858:	602b      	str	r3, [r5, #0]
   8385a:	bd38      	pop	{r3, r4, r5, pc}
   8385c:	20000d14 	.word	0x20000d14

00083860 <_fclose_r>:
   83860:	b570      	push	{r4, r5, r6, lr}
   83862:	b159      	cbz	r1, 8387c <_fclose_r+0x1c>
   83864:	4605      	mov	r5, r0
   83866:	460c      	mov	r4, r1
   83868:	b110      	cbz	r0, 83870 <_fclose_r+0x10>
   8386a:	6b83      	ldr	r3, [r0, #56]	; 0x38
   8386c:	2b00      	cmp	r3, #0
   8386e:	d03c      	beq.n	838ea <_fclose_r+0x8a>
   83870:	6e63      	ldr	r3, [r4, #100]	; 0x64
   83872:	07d8      	lsls	r0, r3, #31
   83874:	d505      	bpl.n	83882 <_fclose_r+0x22>
   83876:	f9b4 300c 	ldrsh.w	r3, [r4, #12]
   8387a:	b92b      	cbnz	r3, 83888 <_fclose_r+0x28>
   8387c:	2600      	movs	r6, #0
   8387e:	4630      	mov	r0, r6
   83880:	bd70      	pop	{r4, r5, r6, pc}
   83882:	89a3      	ldrh	r3, [r4, #12]
   83884:	0599      	lsls	r1, r3, #22
   83886:	d53c      	bpl.n	83902 <_fclose_r+0xa2>
   83888:	4621      	mov	r1, r4
   8388a:	4628      	mov	r0, r5
   8388c:	f7fe fce2 	bl	82254 <__sflush_r>
   83890:	6ae3      	ldr	r3, [r4, #44]	; 0x2c
   83892:	4606      	mov	r6, r0
   83894:	b133      	cbz	r3, 838a4 <_fclose_r+0x44>
   83896:	69e1      	ldr	r1, [r4, #28]
   83898:	4628      	mov	r0, r5
   8389a:	4798      	blx	r3
   8389c:	2800      	cmp	r0, #0
   8389e:	bfb8      	it	lt
   838a0:	f04f 36ff 	movlt.w	r6, #4294967295
   838a4:	89a3      	ldrh	r3, [r4, #12]
   838a6:	061a      	lsls	r2, r3, #24
   838a8:	d422      	bmi.n	838f0 <_fclose_r+0x90>
   838aa:	6b21      	ldr	r1, [r4, #48]	; 0x30
   838ac:	b141      	cbz	r1, 838c0 <_fclose_r+0x60>
   838ae:	f104 0340 	add.w	r3, r4, #64	; 0x40
   838b2:	4299      	cmp	r1, r3
   838b4:	d002      	beq.n	838bc <_fclose_r+0x5c>
   838b6:	4628      	mov	r0, r5
   838b8:	f7fe fe66 	bl	82588 <_free_r>
   838bc:	2300      	movs	r3, #0
   838be:	6323      	str	r3, [r4, #48]	; 0x30
   838c0:	6c61      	ldr	r1, [r4, #68]	; 0x44
   838c2:	b121      	cbz	r1, 838ce <_fclose_r+0x6e>
   838c4:	4628      	mov	r0, r5
   838c6:	f7fe fe5f 	bl	82588 <_free_r>
   838ca:	2300      	movs	r3, #0
   838cc:	6463      	str	r3, [r4, #68]	; 0x44
   838ce:	f7fe fde5 	bl	8249c <__sfp_lock_acquire>
   838d2:	2200      	movs	r2, #0
   838d4:	6e63      	ldr	r3, [r4, #100]	; 0x64
   838d6:	81a2      	strh	r2, [r4, #12]
   838d8:	07db      	lsls	r3, r3, #31
   838da:	d50e      	bpl.n	838fa <_fclose_r+0x9a>
   838dc:	6da0      	ldr	r0, [r4, #88]	; 0x58
   838de:	f7ff f8dd 	bl	82a9c <__retarget_lock_close_recursive>
   838e2:	f7fe fde1 	bl	824a8 <__sfp_lock_release>
   838e6:	4630      	mov	r0, r6
   838e8:	bd70      	pop	{r4, r5, r6, pc}
   838ea:	f7fe fda7 	bl	8243c <__sinit>
   838ee:	e7bf      	b.n	83870 <_fclose_r+0x10>
   838f0:	6921      	ldr	r1, [r4, #16]
   838f2:	4628      	mov	r0, r5
   838f4:	f7fe fe48 	bl	82588 <_free_r>
   838f8:	e7d7      	b.n	838aa <_fclose_r+0x4a>
   838fa:	6da0      	ldr	r0, [r4, #88]	; 0x58
   838fc:	f7ff f8d2 	bl	82aa4 <__retarget_lock_release_recursive>
   83900:	e7ec      	b.n	838dc <_fclose_r+0x7c>
   83902:	6da0      	ldr	r0, [r4, #88]	; 0x58
   83904:	f7ff f8cc 	bl	82aa0 <__retarget_lock_acquire_recursive>
   83908:	f9b4 300c 	ldrsh.w	r3, [r4, #12]
   8390c:	2b00      	cmp	r3, #0
   8390e:	d1bb      	bne.n	83888 <_fclose_r+0x28>
   83910:	6e66      	ldr	r6, [r4, #100]	; 0x64
   83912:	f016 0601 	ands.w	r6, r6, #1
   83916:	d1b1      	bne.n	8387c <_fclose_r+0x1c>
   83918:	6da0      	ldr	r0, [r4, #88]	; 0x58
   8391a:	f7ff f8c3 	bl	82aa4 <__retarget_lock_release_recursive>
   8391e:	4630      	mov	r0, r6
   83920:	bd70      	pop	{r4, r5, r6, pc}
   83922:	bf00      	nop

00083924 <_fstat_r>:
   83924:	b570      	push	{r4, r5, r6, lr}
   83926:	460d      	mov	r5, r1
   83928:	2300      	movs	r3, #0
   8392a:	4c07      	ldr	r4, [pc, #28]	; (83948 <_fstat_r+0x24>)
   8392c:	4606      	mov	r6, r0
   8392e:	4611      	mov	r1, r2
   83930:	4628      	mov	r0, r5
   83932:	6023      	str	r3, [r4, #0]
   83934:	f7fd fae9 	bl	80f0a <_fstat>
   83938:	1c43      	adds	r3, r0, #1
   8393a:	d000      	beq.n	8393e <_fstat_r+0x1a>
   8393c:	bd70      	pop	{r4, r5, r6, pc}
   8393e:	6823      	ldr	r3, [r4, #0]
   83940:	2b00      	cmp	r3, #0
   83942:	d0fb      	beq.n	8393c <_fstat_r+0x18>
   83944:	6033      	str	r3, [r6, #0]
   83946:	bd70      	pop	{r4, r5, r6, pc}
   83948:	20000d14 	.word	0x20000d14

0008394c <_isatty_r>:
   8394c:	b538      	push	{r3, r4, r5, lr}
   8394e:	2300      	movs	r3, #0
   83950:	4c06      	ldr	r4, [pc, #24]	; (8396c <_isatty_r+0x20>)
   83952:	4605      	mov	r5, r0
   83954:	4608      	mov	r0, r1
   83956:	6023      	str	r3, [r4, #0]
   83958:	f7fd fadc 	bl	80f14 <_isatty>
   8395c:	1c43      	adds	r3, r0, #1
   8395e:	d000      	beq.n	83962 <_isatty_r+0x16>
   83960:	bd38      	pop	{r3, r4, r5, pc}
   83962:	6823      	ldr	r3, [r4, #0]
   83964:	2b00      	cmp	r3, #0
   83966:	d0fb      	beq.n	83960 <_isatty_r+0x14>
   83968:	602b      	str	r3, [r5, #0]
   8396a:	bd38      	pop	{r3, r4, r5, pc}
   8396c:	20000d14 	.word	0x20000d14

00083970 <_lseek_r>:
   83970:	b5f8      	push	{r3, r4, r5, r6, r7, lr}
   83972:	460e      	mov	r6, r1
   83974:	2500      	movs	r5, #0
   83976:	4c08      	ldr	r4, [pc, #32]	; (83998 <_lseek_r+0x28>)
   83978:	4611      	mov	r1, r2
   8397a:	4607      	mov	r7, r0
   8397c:	461a      	mov	r2, r3
   8397e:	4630      	mov	r0, r6
   83980:	6025      	str	r5, [r4, #0]
   83982:	f7fd fac9 	bl	80f18 <_lseek>
   83986:	1c43      	adds	r3, r0, #1
   83988:	d000      	beq.n	8398c <_lseek_r+0x1c>
   8398a:	bdf8      	pop	{r3, r4, r5, r6, r7, pc}
   8398c:	6823      	ldr	r3, [r4, #0]
   8398e:	2b00      	cmp	r3, #0
   83990:	d0fb      	beq.n	8398a <_lseek_r+0x1a>
   83992:	603b      	str	r3, [r7, #0]
   83994:	bdf8      	pop	{r3, r4, r5, r6, r7, pc}
   83996:	bf00      	nop
   83998:	20000d14 	.word	0x20000d14

0008399c <_read_r>:
   8399c:	b5f8      	push	{r3, r4, r5, r6, r7, lr}
   8399e:	460e      	mov	r6, r1
   839a0:	2500      	movs	r5, #0
   839a2:	4c08      	ldr	r4, [pc, #32]	; (839c4 <_read_r+0x28>)
   839a4:	4611      	mov	r1, r2
   839a6:	4607      	mov	r7, r0
   839a8:	461a      	mov	r2, r3
   839aa:	4630      	mov	r0, r6
   839ac:	6025      	str	r5, [r4, #0]
   839ae:	f7fd fac9 	bl	80f44 <_read>
   839b2:	1c43      	adds	r3, r0, #1
   839b4:	d000      	beq.n	839b8 <_read_r+0x1c>
   839b6:	bdf8      	pop	{r3, r4, r5, r6, r7, pc}
   839b8:	6823      	ldr	r3, [r4, #0]
   839ba:	2b00      	cmp	r3, #0
   839bc:	d0fb      	beq.n	839b6 <_read_r+0x1a>
   839be:	603b      	str	r3, [r7, #0]
   839c0:	bdf8      	pop	{r3, r4, r5, r6, r7, pc}
   839c2:	bf00      	nop
   839c4:	20000d14 	.word	0x20000d14
   839c8:	4d6e6143 	.word	0x4d6e6143
   839cc:	69286773 	.word	0x69286773
   839d0:	64253a64 	.word	0x64253a64
   839d4:	656c202c 	.word	0x656c202c
   839d8:	6874676e 	.word	0x6874676e
   839dc:	2c64253a 	.word	0x2c64253a
   839e0:	74616420 	.word	0x74616420
   839e4:	007b3a61 	.word	0x007b3a61
   839e8:	00006425 	.word	0x00006425
   839ec:	6425202c 	.word	0x6425202c
   839f0:	00000000 	.word	0x00000000
   839f4:	0000297d 	.word	0x0000297d
   839f8:	20435243 	.word	0x20435243
   839fc:	4f525245 	.word	0x4f525245
   83a00:	00000d52 	.word	0x00000d52
   83a04:	52452053 	.word	0x52452053
   83a08:	0d524f52 	.word	0x0d524f52
   83a0c:	00000000 	.word	0x00000000
   83a10:	52452041 	.word	0x52452041
   83a14:	0d524f52 	.word	0x0d524f52
   83a18:	00000000 	.word	0x00000000
   83a1c:	52452046 	.word	0x52452046
   83a20:	0d524f52 	.word	0x0d524f52
   83a24:	00000000 	.word	0x00000000
   83a28:	52452042 	.word	0x52452042
   83a2c:	0d524f52 	.word	0x0d524f52
   83a30:	00000000 	.word	0x00000000
   83a34:	72617473 	.word	0x72617473
   83a38:	0d646574 	.word	0x0d646574
   83a3c:	00000000 	.word	0x00000000
   83a40:	65636572 	.word	0x65636572
   83a44:	64657669 	.word	0x64657669
   83a48:	69657720 	.word	0x69657720
   83a4c:	6d206472 	.word	0x6d206472
   83a50:	61737365 	.word	0x61737365
   83a54:	202c6567 	.word	0x202c6567
   83a58:	646e6573 	.word	0x646e6573
   83a5c:	20676e69 	.word	0x20676e69
   83a60:	6f727265 	.word	0x6f727265
   83a64:	00000d72 	.word	0x00000d72
   83a68:	6f746f6d 	.word	0x6f746f6d
   83a6c:	6e692072 	.word	0x6e692072
   83a70:	000d7469 	.word	0x000d7469
   83a74:	54524155 	.word	0x54524155
   83a78:	63657220 	.word	0x63657220
   83a7c:	65766965 	.word	0x65766965
   83a80:	66756220 	.word	0x66756220
   83a84:	20726566 	.word	0x20726566
   83a88:	6c6c7566 	.word	0x6c6c7566
   83a8c:	00000000 	.word	0x00000000

00083a90 <_global_impure_ptr>:
   83a90:	20000008 0000000a                       ... ....

00083a98 <_init>:
   83a98:	b5f8      	push	{r3, r4, r5, r6, r7, lr}
   83a9a:	bf00      	nop
   83a9c:	bcf8      	pop	{r3, r4, r5, r6, r7}
   83a9e:	bc08      	pop	{r3}
   83aa0:	469e      	mov	lr, r3
   83aa2:	4770      	bx	lr

00083aa4 <__init_array_start>:
   83aa4:	00082235 	.word	0x00082235

00083aa8 <__frame_dummy_init_array_entry>:
   83aa8:	00080119 00080c8d                       ........

00083ab0 <_fini>:
   83ab0:	b5f8      	push	{r3, r4, r5, r6, r7, lr}
   83ab2:	bf00      	nop
   83ab4:	bcf8      	pop	{r3, r4, r5, r6, r7}
   83ab6:	bc08      	pop	{r3}
   83ab8:	469e      	mov	lr, r3
   83aba:	4770      	bx	lr

00083abc <__fini_array_start>:
   83abc:	000800f5 	.word	0x000800f5
