
pingpong.elf:     file format elf32-avr

Sections:
Idx Name          Size      VMA       LMA       File off  Algn
  0 .data         0000015c  00800100  000012fc  00001390  2**0
                  CONTENTS, ALLOC, LOAD, DATA
  1 .text         000012fc  00000000  00000000  00000094  2**1
                  CONTENTS, ALLOC, LOAD, READONLY, CODE
  2 .bss          0000001c  0080025c  0080025c  000014ec  2**0
                  ALLOC
  3 .comment      00000030  00000000  00000000  000014ec  2**0
                  CONTENTS, READONLY
  4 .note.gnu.avr.deviceinfo 0000003c  00000000  00000000  0000151c  2**2
                  CONTENTS, READONLY
  5 .debug_aranges 000002d0  00000000  00000000  00001558  2**0
                  CONTENTS, READONLY, DEBUGGING
  6 .debug_info   00003a0c  00000000  00000000  00001828  2**0
                  CONTENTS, READONLY, DEBUGGING
  7 .debug_abbrev 000014a6  00000000  00000000  00005234  2**0
                  CONTENTS, READONLY, DEBUGGING
  8 .debug_line   00001cdc  00000000  00000000  000066da  2**0
                  CONTENTS, READONLY, DEBUGGING
  9 .debug_frame  00000890  00000000  00000000  000083b8  2**2
                  CONTENTS, READONLY, DEBUGGING
 10 .debug_str    00000bb8  00000000  00000000  00008c48  2**0
                  CONTENTS, READONLY, DEBUGGING
 11 .debug_loc    000023b8  00000000  00000000  00009800  2**0
                  CONTENTS, READONLY, DEBUGGING
 12 .debug_ranges 00000318  00000000  00000000  0000bbb8  2**0
                  CONTENTS, READONLY, DEBUGGING

Disassembly of section .text:

00000000 <__vectors>:
       0:	0c 94 c4 02 	jmp	0x588	; 0x588 <__ctors_end>
       4:	0c 94 f4 03 	jmp	0x7e8	; 0x7e8 <__vector_1>
       8:	0c 94 e1 02 	jmp	0x5c2	; 0x5c2 <__bad_interrupt>
       c:	0c 94 e1 02 	jmp	0x5c2	; 0x5c2 <__bad_interrupt>
      10:	0c 94 e1 02 	jmp	0x5c2	; 0x5c2 <__bad_interrupt>
      14:	0c 94 e1 02 	jmp	0x5c2	; 0x5c2 <__bad_interrupt>
      18:	0c 94 e1 02 	jmp	0x5c2	; 0x5c2 <__bad_interrupt>
      1c:	0c 94 2b 06 	jmp	0xc56	; 0xc56 <__vector_7>
      20:	0c 94 e1 02 	jmp	0x5c2	; 0x5c2 <__bad_interrupt>
      24:	0c 94 e1 02 	jmp	0x5c2	; 0x5c2 <__bad_interrupt>
      28:	0c 94 e1 02 	jmp	0x5c2	; 0x5c2 <__bad_interrupt>
      2c:	0c 94 e1 02 	jmp	0x5c2	; 0x5c2 <__bad_interrupt>
      30:	0c 94 e1 02 	jmp	0x5c2	; 0x5c2 <__bad_interrupt>
      34:	0c 94 e1 02 	jmp	0x5c2	; 0x5c2 <__bad_interrupt>
      38:	0c 94 e1 02 	jmp	0x5c2	; 0x5c2 <__bad_interrupt>
      3c:	0c 94 e1 02 	jmp	0x5c2	; 0x5c2 <__bad_interrupt>
      40:	0c 94 e1 02 	jmp	0x5c2	; 0x5c2 <__bad_interrupt>
      44:	0c 94 e1 02 	jmp	0x5c2	; 0x5c2 <__bad_interrupt>
      48:	0c 94 e1 02 	jmp	0x5c2	; 0x5c2 <__bad_interrupt>
      4c:	0c 94 c6 08 	jmp	0x118c	; 0x118c <__vector_19>
      50:	0c 94 e1 02 	jmp	0x5c2	; 0x5c2 <__bad_interrupt>
      54:	0c 94 e1 02 	jmp	0x5c2	; 0x5c2 <__bad_interrupt>
      58:	0c 94 e1 02 	jmp	0x5c2	; 0x5c2 <__bad_interrupt>
      5c:	0c 94 e1 02 	jmp	0x5c2	; 0x5c2 <__bad_interrupt>
      60:	0c 94 e1 02 	jmp	0x5c2	; 0x5c2 <__bad_interrupt>
      64:	0c 94 e1 02 	jmp	0x5c2	; 0x5c2 <__bad_interrupt>
      68:	0c 94 e1 02 	jmp	0x5c2	; 0x5c2 <__bad_interrupt>
      6c:	0c 94 e1 02 	jmp	0x5c2	; 0x5c2 <__bad_interrupt>

00000070 <__trampolines_end>:
      70:	00 80       	ld	r0, Z
      72:	40 20       	and	r4, r0
      74:	10 08       	sbc	r1, r0
      76:	08 08       	sbc	r0, r8
      78:	04 04       	cpc	r0, r4
      7a:	04 08       	sbc	r0, r4
      7c:	08 10       	cpse	r0, r8
      7e:	60 80       	ld	r6, Z
      80:	00 00       	nop
      82:	00 00       	nop
      84:	00 00       	nop
      86:	00 1c       	adc	r0, r0
      88:	63 80       	ldd	r6, Z+3	; 0x03
	...
      92:	80 40       	sbci	r24, 0x00	; 0
      94:	20 10       	cpse	r2, r0
      96:	09 fe       	.word	0xfe09	; ????
	...
      a0:	00 01       	movw	r0, r0
      a2:	01 02       	muls	r16, r17
      a4:	02 04       	cpc	r0, r2
      a6:	04 06       	cpc	r0, r20
      a8:	05 04       	cpc	r0, r5
      aa:	04 04       	cpc	r0, r4
      ac:	04 08       	sbc	r0, r4
      ae:	11 22       	and	r1, r17
      b0:	44 88       	ldd	r4, Z+20	; 0x14
      b2:	50 20       	and	r5, r0
	...

000000b5 <font5>:
      b5:	00 00 00 00 00 00 00 5f 00 00 00 07 00 07 00 14     ......._........
      c5:	7f 14 7f 14 24 2a 7f 2a 12 23 13 08 64 62 36 49     ....$*.*.#..db6I
      d5:	55 22 50 00 05 03 00 00 00 1c 22 41 00 00 41 22     U"P......."A..A"
      e5:	1c 00 08 2a 1c 2a 08 08 08 3e 08 08 00 50 30 00     ...*.*...>...P0.
      f5:	00 08 08 08 08 08 00 60 60 00 00 20 10 08 04 02     .......``.. ....
     105:	3e 51 49 45 3e 00 42 7f 40 00 42 61 51 49 46 21     >QIE>.B.@.BaQIF!
     115:	41 45 4b 31 18 14 12 7f 10 27 45 45 45 39 3c 4a     AEK1.....'EEE9<J
     125:	49 49 30 01 71 09 05 03 36 49 49 49 36 06 49 49     II0.q...6III6.II
     135:	29 1e 00 36 36 00 00 00 56 36 00 00 00 08 14 22     )..66...V6....."
     145:	41 14 14 14 14 14 41 22 14 08 00 02 01 51 09 06     A.....A".....Q..
     155:	32 49 79 41 3e 7e 11 11 11 7e 7f 49 49 49 36 3e     2IyA>~...~.III6>
     165:	41 41 41 22 7f 41 41 22 1c 7f 49 49 49 41 7f 09     AAA".AA"..IIIA..
     175:	09 01 01 3e 41 41 51 32 7f 08 08 08 7f 00 41 7f     ...>AAQ2......A.
     185:	41 00 20 40 41 3f 01 7f 08 14 22 41 7f 40 40 40     A. @A?...."A.@@@
     195:	40 7f 02 04 02 7f 7f 04 08 10 7f 3e 41 41 41 3e     @..........>AAA>
     1a5:	7f 09 09 09 06 3e 41 51 21 5e 7f 09 19 29 46 46     .....>AQ!^...)FF
     1b5:	49 49 49 31 01 01 7f 01 01 3f 40 40 40 3f 1f 20     III1.....?@@@?. 
     1c5:	40 20 1f 7f 20 18 20 7f 63 14 08 14 63 03 04 78     @ .. . .c...c..x
     1d5:	04 03 61 51 49 45 43 00 00 7f 41 41 02 04 08 10     ..aQIEC...AA....
     1e5:	20 41 41 7f 00 00 04 02 01 02 04 40 40 40 40 40      AA........@@@@@
     1f5:	00 01 02 04 00 20 54 54 54 78 7f 48 44 44 38 38     ..... TTTx.HDD88
     205:	44 44 44 20 38 44 44 48 7f 38 54 54 54 18 08 7e     DDD 8DDH.8TTT..~
     215:	09 01 02 08 14 54 54 3c 7f 08 04 04 78 00 44 7d     .....TT<....x.D}
     225:	40 00 20 40 44 3d 00 00 7f 10 28 44 00 41 7f 40     @. @D=....(D.A.@
     235:	00 7c 04 18 04 78 7c 08 04 04 78 38 44 44 44 38     .|...x|...x8DDD8
     245:	7c 14 14 14 08 08 14 14 18 7c 7c 08 04 04 08 48     |........||....H
     255:	54 54 54 20 04 3f 44 40 20 3c 40 40 20 7c 1c 20     TTT .?D@ <@@ |. 
     265:	40 20 1c 3c 40 30 40 3c 44 28 10 28 44 0c 50 50     @ .<@0@<D(.(D.PP
     275:	50 3c 44 64 54 4c 44 00 08 36 41 00 00 00 7f 00     P<DdTLD..6A.....
     285:	00 00 41 36 08 00 02 01 03 02 01                    ..A6.......

00000290 <font8>:
	...
     298:	00 06 5f 5f 06 00 00 00 00 07 07 00 07 07 00 00     ..__............
     2a8:	14 7f 7f 14 7f 7f 14 00 24 2e 6b 6b 3a 12 00 00     ........$.kk:...
     2b8:	46 66 30 18 0c 66 62 00 30 7a 4f 5d 37 7a 48 00     Ff0..fb.0zO]7zH.
     2c8:	04 07 03 00 00 00 00 00 00 1c 3e 63 41 00 00 00     ..........>cA...
     2d8:	00 41 63 3e 1c 00 00 00 08 2a 3e 1c 1c 3e 2a 08     .Ac>.....*>..>*.
     2e8:	08 08 3e 3e 08 08 00 00 00 a0 e0 60 00 00 00 00     ..>>.......`....
     2f8:	08 08 08 08 08 08 00 00 00 00 60 60 00 00 00 00     ..........``....
     308:	60 30 18 0c 06 03 01 00 3e 7f 59 4d 7f 3e 00 00     `0......>.YM.>..
     318:	42 42 7f 7f 40 40 00 00 62 73 59 49 6f 66 00 00     BB..@@..bsYIof..
     328:	22 63 49 49 7f 36 00 00 18 1c 16 13 7f 7f 10 00     "cII.6..........
     338:	27 67 45 45 7d 39 00 00 3c 7e 4b 49 79 30 00 00     'gEE}9..<~KIy0..
     348:	03 63 71 19 0f 07 00 00 36 7f 49 49 7f 36 00 00     .cq.....6.II.6..
     358:	06 4f 49 69 3f 1e 00 00 00 00 6c 6c 00 00 00 00     .OIi?.....ll....
     368:	00 a0 ec 6c 00 00 00 00 08 1c 36 63 41 00 00 00     ...l......6cA...
     378:	14 14 14 14 14 14 00 00 00 41 63 36 1c 08 00 00     .........Ac6....
     388:	02 03 51 59 0f 06 00 00 3e 7f 41 5d 5d 1f 1e 00     ..QY....>.A]]...
     398:	7c 7e 13 13 7e 7c 00 00 41 7f 7f 49 49 7f 36 00     |~..~|..A..II.6.
     3a8:	1c 3e 63 41 41 63 22 00 41 7f 7f 41 63 7f 1c 00     .>cAAc".A..Ac...
     3b8:	41 7f 7f 49 5d 41 63 00 41 7f 7f 49 1d 01 03 00     A..I]Ac.A..I....
     3c8:	1c 3e 63 41 51 73 72 00 7f 7f 08 08 7f 7f 00 00     .>cAQsr.........
     3d8:	00 41 7f 7f 41 00 00 00 30 70 40 41 7f 3f 01 00     .A..A...0p@A.?..
     3e8:	41 7f 7f 08 1c 77 63 00 41 7f 7f 41 40 60 70 00     A....wc.A..A@`p.
     3f8:	7f 7f 06 0c 06 7f 7f 00 7f 7f 06 0c 18 7f 7f 00     ................
     408:	1c 3e 63 41 63 3e 1c 00 41 7f 7f 49 09 0f 06 00     .>cAc>..A..I....
     418:	1e 3f 21 71 7f 5e 00 00 41 7f 7f 19 39 6f 46 00     .?!q.^..A...9oF.
     428:	26 67 4d 59 7b 32 00 00 03 41 7f 7f 41 03 00 00     &gMY{2...A..A...
     438:	7f 7f 40 40 7f 7f 00 00 1f 3f 60 60 3f 1f 00 00     ..@@.....?``?...
     448:	7f 7f 30 18 30 7f 7f 00 63 77 1c 08 1c 77 63 00     ..0.0...cw...wc.
     458:	07 4f 78 78 4f 07 00 00 67 73 59 4d 47 63 71 00     .OxxO...gsYMGcq.
     468:	00 7f 7f 41 41 00 00 00 01 03 06 0c 18 30 60 00     ...AA........0`.
     478:	00 41 41 7f 7f 00 00 00 08 0c 06 03 06 0c 08 00     .AA.............
     488:	80 80 80 80 80 80 80 80 00 00 03 07 04 00 00 00     ................
     498:	20 74 54 54 3c 78 40 00 41 3f 7f 44 44 7c 38 00      tTT<x@.A?.DD|8.
     4a8:	38 7c 44 44 6c 28 00 00 30 78 48 49 3f 7f 40 00     8|DDl(..0xHI?.@.
     4b8:	38 7c 54 54 5c 18 00 00 48 7e 7f 49 03 02 00 00     8|TT\...H~.I....
     4c8:	98 bc a4 a4 f8 7c 04 00 41 7f 7f 08 04 7c 78 00     .....|..A....|x.
     4d8:	00 44 7d 7d 40 00 00 00 40 c4 84 fd 7d 00 00 00     .D}}@...@...}...
     4e8:	41 7f 7f 10 38 6c 44 00 00 41 7f 7f 40 00 00 00     A...8lD..A..@...
     4f8:	7c 7c 0c 18 0c 7c 78 00 7c 7c 04 04 7c 78 00 00     ||...|x.||..|x..
     508:	38 7c 44 44 7c 38 00 00 84 fc f8 a4 24 3c 18 00     8|DD|8......$<..
     518:	18 3c 24 a4 f8 fc 84 00 44 7c 78 44 1c 18 00 00     .<$.....D|xD....
     528:	48 5c 54 54 74 24 00 00 00 04 3e 7f 44 24 00 00     H\TTt$....>.D$..
     538:	3c 7c 40 40 3c 7c 40 00 1c 3c 60 60 3c 1c 00 00     <|@@<|@..<``<...
     548:	3c 7c 60 30 60 7c 3c 00 44 6c 38 10 38 6c 44 00     <|`0`|<.Dl8.8lD.
     558:	9c bc a0 a0 fc 7c 00 00 4c 64 74 5c 4c 64 00 00     .....|..Ldt\Ld..
     568:	08 08 3e 77 41 41 00 00 00 00 00 77 77 00 00 00     ..>wAA.....ww...
     578:	41 41 77 3e 08 08 00 00 02 03 01 03 02 03 01 00     AAw>............

00000588 <__ctors_end>:
     588:	11 24       	eor	r1, r1
     58a:	1f be       	out	0x3f, r1	; 63
     58c:	cf ef       	ldi	r28, 0xFF	; 255
     58e:	d4 e0       	ldi	r29, 0x04	; 4
     590:	de bf       	out	0x3e, r29	; 62
     592:	cd bf       	out	0x3d, r28	; 61

00000594 <__do_copy_data>:
     594:	12 e0       	ldi	r17, 0x02	; 2
     596:	a0 e0       	ldi	r26, 0x00	; 0
     598:	b1 e0       	ldi	r27, 0x01	; 1
     59a:	ec ef       	ldi	r30, 0xFC	; 252
     59c:	f2 e1       	ldi	r31, 0x12	; 18
     59e:	02 c0       	rjmp	.+4      	; 0x5a4 <__do_copy_data+0x10>
     5a0:	05 90       	lpm	r0, Z+
     5a2:	0d 92       	st	X+, r0
     5a4:	ac 35       	cpi	r26, 0x5C	; 92
     5a6:	b1 07       	cpc	r27, r17
     5a8:	d9 f7       	brne	.-10     	; 0x5a0 <__do_copy_data+0xc>

000005aa <__do_clear_bss>:
     5aa:	22 e0       	ldi	r18, 0x02	; 2
     5ac:	ac e5       	ldi	r26, 0x5C	; 92
     5ae:	b2 e0       	ldi	r27, 0x02	; 2
     5b0:	01 c0       	rjmp	.+2      	; 0x5b4 <.do_clear_bss_start>

000005b2 <.do_clear_bss_loop>:
     5b2:	1d 92       	st	X+, r1

000005b4 <.do_clear_bss_start>:
     5b4:	a8 37       	cpi	r26, 0x78	; 120
     5b6:	b2 07       	cpc	r27, r18
     5b8:	e1 f7       	brne	.-8      	; 0x5b2 <.do_clear_bss_loop>
     5ba:	0e 94 04 05 	call	0xa08	; 0xa08 <main>
     5be:	0c 94 7c 09 	jmp	0x12f8	; 0x12f8 <_exit>

000005c2 <__bad_interrupt>:
     5c2:	0c 94 00 00 	jmp	0	; 0x0 <__vectors>

000005c6 <adc_init>:
     5c6:	81 b3       	in	r24, 0x11	; 17
     5c8:	80 62       	ori	r24, 0x20	; 32
     5ca:	81 bb       	out	0x11, r24	; 17
     5cc:	81 b3       	in	r24, 0x11	; 17
     5ce:	87 7f       	andi	r24, 0xF7	; 247
     5d0:	81 bb       	out	0x11, r24	; 17
     5d2:	89 e0       	ldi	r24, 0x09	; 9
     5d4:	8e bd       	out	0x2e, r24	; 46
     5d6:	80 e4       	ldi	r24, 0x40	; 64
     5d8:	8f bd       	out	0x2f, r24	; 47
     5da:	82 e0       	ldi	r24, 0x02	; 2
     5dc:	90 e0       	ldi	r25, 0x00	; 0
     5de:	9b bd       	out	0x2b, r25	; 43
     5e0:	8a bd       	out	0x2a, r24	; 42
     5e2:	81 b3       	in	r24, 0x11	; 17
     5e4:	8f 7e       	andi	r24, 0xEF	; 239
     5e6:	81 bb       	out	0x11, r24	; 17
     5e8:	08 95       	ret

000005ea <get_io_inputs>:
     5ea:	cf 93       	push	r28
     5ec:	df 93       	push	r29
     5ee:	fc 01       	movw	r30, r24
     5f0:	10 92 00 10 	sts	0x1000, r1	; 0x801000 <__bss_end+0xd88>
     5f4:	00 c0       	rjmp	.+0      	; 0x5f6 <get_io_inputs+0xc>
     5f6:	84 9b       	sbis	0x10, 4	; 16
     5f8:	fe cf       	rjmp	.-4      	; 0x5f6 <get_io_inputs+0xc>
     5fa:	a0 e0       	ldi	r26, 0x00	; 0
     5fc:	b0 e1       	ldi	r27, 0x10	; 16
     5fe:	8c 91       	ld	r24, X
     600:	cc e5       	ldi	r28, 0x5C	; 92
     602:	d2 e0       	ldi	r29, 0x02	; 2
     604:	28 81       	ld	r18, Y
     606:	39 81       	ldd	r19, Y+1	; 0x01
     608:	90 e0       	ldi	r25, 0x00	; 0
     60a:	82 1b       	sub	r24, r18
     60c:	93 0b       	sbc	r25, r19
     60e:	91 83       	std	Z+1, r25	; 0x01
     610:	80 83       	st	Z, r24
     612:	8c 91       	ld	r24, X
     614:	2a 81       	ldd	r18, Y+2	; 0x02
     616:	3b 81       	ldd	r19, Y+3	; 0x03
     618:	90 e0       	ldi	r25, 0x00	; 0
     61a:	82 1b       	sub	r24, r18
     61c:	93 0b       	sbc	r25, r19
     61e:	93 83       	std	Z+3, r25	; 0x03
     620:	82 83       	std	Z+2, r24	; 0x02
     622:	8c 91       	ld	r24, X
     624:	90 e0       	ldi	r25, 0x00	; 0
     626:	95 83       	std	Z+5, r25	; 0x05
     628:	84 83       	std	Z+4, r24	; 0x04
     62a:	8c 91       	ld	r24, X
     62c:	90 e0       	ldi	r25, 0x00	; 0
     62e:	97 83       	std	Z+7, r25	; 0x07
     630:	86 83       	std	Z+6, r24	; 0x06
     632:	80 b3       	in	r24, 0x10	; 16
     634:	86 95       	lsr	r24
     636:	86 95       	lsr	r24
     638:	86 95       	lsr	r24
     63a:	91 e0       	ldi	r25, 0x01	; 1
     63c:	89 27       	eor	r24, r25
     63e:	81 70       	andi	r24, 0x01	; 1
     640:	80 87       	std	Z+8, r24	; 0x08
     642:	11 86       	std	Z+9, r1	; 0x09
     644:	cf 01       	movw	r24, r30
     646:	df 91       	pop	r29
     648:	cf 91       	pop	r28
     64a:	08 95       	ret

0000064c <get_joystick_direction>:
     64c:	0f 93       	push	r16
     64e:	1f 93       	push	r17
     650:	cf 93       	push	r28
     652:	df 93       	push	r29
     654:	cd b7       	in	r28, 0x3d	; 61
     656:	de b7       	in	r29, 0x3e	; 62
     658:	2a 97       	sbiw	r28, 0x0a	; 10
     65a:	0f b6       	in	r0, 0x3f	; 63
     65c:	f8 94       	cli
     65e:	de bf       	out	0x3e, r29	; 62
     660:	0f be       	out	0x3f, r0	; 63
     662:	cd bf       	out	0x3d, r28	; 61
     664:	09 83       	std	Y+1, r16	; 0x01
     666:	1a 83       	std	Y+2, r17	; 0x02
     668:	2b 83       	std	Y+3, r18	; 0x03
     66a:	3c 83       	std	Y+4, r19	; 0x04
     66c:	8b 81       	ldd	r24, Y+3	; 0x03
     66e:	9c 81       	ldd	r25, Y+4	; 0x04
     670:	8b 30       	cpi	r24, 0x0B	; 11
     672:	91 05       	cpc	r25, r1
     674:	5c f0       	brlt	.+22     	; 0x68c <get_joystick_direction+0x40>
     676:	29 81       	ldd	r18, Y+1	; 0x01
     678:	3a 81       	ldd	r19, Y+2	; 0x02
     67a:	28 17       	cp	r18, r24
     67c:	39 07       	cpc	r19, r25
     67e:	34 f4       	brge	.+12     	; 0x68c <get_joystick_direction+0x40>
     680:	31 95       	neg	r19
     682:	21 95       	neg	r18
     684:	31 09       	sbc	r19, r1
     686:	28 17       	cp	r18, r24
     688:	39 07       	cpc	r19, r25
     68a:	6c f1       	brlt	.+90     	; 0x6e6 <get_joystick_direction+0x9a>
     68c:	86 3f       	cpi	r24, 0xF6	; 246
     68e:	2f ef       	ldi	r18, 0xFF	; 255
     690:	92 07       	cpc	r25, r18
     692:	5c f4       	brge	.+22     	; 0x6aa <get_joystick_direction+0x5e>
     694:	29 81       	ldd	r18, Y+1	; 0x01
     696:	3a 81       	ldd	r19, Y+2	; 0x02
     698:	82 17       	cp	r24, r18
     69a:	93 07       	cpc	r25, r19
     69c:	34 f4       	brge	.+12     	; 0x6aa <get_joystick_direction+0x5e>
     69e:	31 95       	neg	r19
     6a0:	21 95       	neg	r18
     6a2:	31 09       	sbc	r19, r1
     6a4:	82 17       	cp	r24, r18
     6a6:	93 07       	cpc	r25, r19
     6a8:	04 f1       	brlt	.+64     	; 0x6ea <get_joystick_direction+0x9e>
     6aa:	29 81       	ldd	r18, Y+1	; 0x01
     6ac:	3a 81       	ldd	r19, Y+2	; 0x02
     6ae:	2b 30       	cpi	r18, 0x0B	; 11
     6b0:	31 05       	cpc	r19, r1
     6b2:	54 f0       	brlt	.+20     	; 0x6c8 <get_joystick_direction+0x7c>
     6b4:	28 17       	cp	r18, r24
     6b6:	39 07       	cpc	r19, r25
     6b8:	3c f0       	brlt	.+14     	; 0x6c8 <get_joystick_direction+0x7c>
     6ba:	44 27       	eor	r20, r20
     6bc:	55 27       	eor	r21, r21
     6be:	48 1b       	sub	r20, r24
     6c0:	59 0b       	sbc	r21, r25
     6c2:	24 17       	cp	r18, r20
     6c4:	35 07       	cpc	r19, r21
     6c6:	9c f4       	brge	.+38     	; 0x6ee <get_joystick_direction+0xa2>
     6c8:	26 3f       	cpi	r18, 0xF6	; 246
     6ca:	4f ef       	ldi	r20, 0xFF	; 255
     6cc:	34 07       	cpc	r19, r20
     6ce:	8c f4       	brge	.+34     	; 0x6f2 <get_joystick_direction+0xa6>
     6d0:	82 17       	cp	r24, r18
     6d2:	93 07       	cpc	r25, r19
     6d4:	84 f0       	brlt	.+32     	; 0x6f6 <get_joystick_direction+0xaa>
     6d6:	91 95       	neg	r25
     6d8:	81 95       	neg	r24
     6da:	91 09       	sbc	r25, r1
     6dc:	82 17       	cp	r24, r18
     6de:	93 07       	cpc	r25, r19
     6e0:	64 f4       	brge	.+24     	; 0x6fa <get_joystick_direction+0xae>
     6e2:	84 e0       	ldi	r24, 0x04	; 4
     6e4:	0b c0       	rjmp	.+22     	; 0x6fc <get_joystick_direction+0xb0>
     6e6:	82 e0       	ldi	r24, 0x02	; 2
     6e8:	09 c0       	rjmp	.+18     	; 0x6fc <get_joystick_direction+0xb0>
     6ea:	83 e0       	ldi	r24, 0x03	; 3
     6ec:	07 c0       	rjmp	.+14     	; 0x6fc <get_joystick_direction+0xb0>
     6ee:	81 e0       	ldi	r24, 0x01	; 1
     6f0:	05 c0       	rjmp	.+10     	; 0x6fc <get_joystick_direction+0xb0>
     6f2:	84 e0       	ldi	r24, 0x04	; 4
     6f4:	03 c0       	rjmp	.+6      	; 0x6fc <get_joystick_direction+0xb0>
     6f6:	84 e0       	ldi	r24, 0x04	; 4
     6f8:	01 c0       	rjmp	.+2      	; 0x6fc <get_joystick_direction+0xb0>
     6fa:	80 e0       	ldi	r24, 0x00	; 0
     6fc:	2a 96       	adiw	r28, 0x0a	; 10
     6fe:	0f b6       	in	r0, 0x3f	; 63
     700:	f8 94       	cli
     702:	de bf       	out	0x3e, r29	; 62
     704:	0f be       	out	0x3f, r0	; 63
     706:	cd bf       	out	0x3d, r28	; 61
     708:	df 91       	pop	r29
     70a:	cf 91       	pop	r28
     70c:	1f 91       	pop	r17
     70e:	0f 91       	pop	r16
     710:	08 95       	ret

00000712 <can_init>:
     712:	f8 94       	cli
     714:	0e 94 63 04 	call	0x8c6	; 0x8c6 <can_controller_reset>
	#else
		//round up by default
		__ticks_dc = (uint32_t)(ceil(fabs(__tmp)));
	#endif

	__builtin_avr_delay_cycles(__ticks_dc);
     718:	83 ec       	ldi	r24, 0xC3	; 195
     71a:	99 e0       	ldi	r25, 0x09	; 9
     71c:	01 97       	sbiw	r24, 0x01	; 1
     71e:	f1 f7       	brne	.-4      	; 0x71c <can_init+0xa>
     720:	00 c0       	rjmp	.+0      	; 0x722 <can_init+0x10>
     722:	00 00       	nop
     724:	63 e0       	ldi	r22, 0x03	; 3
     726:	8a e2       	ldi	r24, 0x2A	; 42
     728:	0e 94 36 04 	call	0x86c	; 0x86c <can_controller_write>
     72c:	60 eb       	ldi	r22, 0xB0	; 176
     72e:	89 e2       	ldi	r24, 0x29	; 41
     730:	0e 94 36 04 	call	0x86c	; 0x86c <can_controller_write>
     734:	65 e0       	ldi	r22, 0x05	; 5
     736:	88 e2       	ldi	r24, 0x28	; 40
     738:	0e 94 36 04 	call	0x86c	; 0x86c <can_controller_write>
     73c:	63 e0       	ldi	r22, 0x03	; 3
     73e:	8b e2       	ldi	r24, 0x2B	; 43
     740:	0e 94 36 04 	call	0x86c	; 0x86c <can_controller_write>
     744:	64 e6       	ldi	r22, 0x64	; 100
     746:	80 e6       	ldi	r24, 0x60	; 96
     748:	0e 94 36 04 	call	0x86c	; 0x86c <can_controller_write>
     74c:	60 e6       	ldi	r22, 0x60	; 96
     74e:	80 e7       	ldi	r24, 0x70	; 112
     750:	0e 94 36 04 	call	0x86c	; 0x86c <can_controller_write>
     754:	85 b7       	in	r24, 0x35	; 53
     756:	82 60       	ori	r24, 0x02	; 2
     758:	85 bf       	out	0x35, r24	; 53
     75a:	85 b7       	in	r24, 0x35	; 53
     75c:	8e 7f       	andi	r24, 0xFE	; 254
     75e:	85 bf       	out	0x35, r24	; 53
     760:	8b b7       	in	r24, 0x3b	; 59
     762:	80 64       	ori	r24, 0x40	; 64
     764:	8b bf       	out	0x3b, r24	; 59
     766:	78 94       	sei
     768:	64 e0       	ldi	r22, 0x04	; 4
     76a:	8f e0       	ldi	r24, 0x0F	; 15
     76c:	0e 94 36 04 	call	0x86c	; 0x86c <can_controller_write>
     770:	89 ef       	ldi	r24, 0xF9	; 249
     772:	90 e0       	ldi	r25, 0x00	; 0
     774:	01 97       	sbiw	r24, 0x01	; 1
     776:	f1 f7       	brne	.-4      	; 0x774 <can_init+0x62>
     778:	00 c0       	rjmp	.+0      	; 0x77a <can_init+0x68>
     77a:	00 00       	nop
     77c:	08 95       	ret

0000077e <can_transmit>:
     77e:	0f 93       	push	r16
     780:	1f 93       	push	r17
     782:	cf 93       	push	r28
     784:	8c 01       	movw	r16, r24
     786:	fc 01       	movw	r30, r24
     788:	80 81       	ld	r24, Z
     78a:	91 81       	ldd	r25, Z+1	; 0x01
     78c:	bc 01       	movw	r22, r24
     78e:	76 95       	lsr	r23
     790:	67 95       	ror	r22
     792:	76 95       	lsr	r23
     794:	67 95       	ror	r22
     796:	76 95       	lsr	r23
     798:	67 95       	ror	r22
     79a:	c8 2f       	mov	r28, r24
     79c:	c2 95       	swap	r28
     79e:	cc 0f       	add	r28, r28
     7a0:	c0 7e       	andi	r28, 0xE0	; 224
     7a2:	81 e3       	ldi	r24, 0x31	; 49
     7a4:	0e 94 36 04 	call	0x86c	; 0x86c <can_controller_write>
     7a8:	6c 2f       	mov	r22, r28
     7aa:	82 e3       	ldi	r24, 0x32	; 50
     7ac:	0e 94 36 04 	call	0x86c	; 0x86c <can_controller_write>
     7b0:	f8 01       	movw	r30, r16
     7b2:	62 81       	ldd	r22, Z+2	; 0x02
     7b4:	6f 70       	andi	r22, 0x0F	; 15
     7b6:	85 e3       	ldi	r24, 0x35	; 53
     7b8:	0e 94 36 04 	call	0x86c	; 0x86c <can_controller_write>
     7bc:	c0 e0       	ldi	r28, 0x00	; 0
     7be:	09 c0       	rjmp	.+18     	; 0x7d2 <can_transmit+0x54>
     7c0:	f8 01       	movw	r30, r16
     7c2:	ec 0f       	add	r30, r28
     7c4:	f1 1d       	adc	r31, r1
     7c6:	63 81       	ldd	r22, Z+3	; 0x03
     7c8:	86 e3       	ldi	r24, 0x36	; 54
     7ca:	8c 0f       	add	r24, r28
     7cc:	0e 94 36 04 	call	0x86c	; 0x86c <can_controller_write>
     7d0:	cf 5f       	subi	r28, 0xFF	; 255
     7d2:	f8 01       	movw	r30, r16
     7d4:	82 81       	ldd	r24, Z+2	; 0x02
     7d6:	c8 17       	cp	r28, r24
     7d8:	98 f3       	brcs	.-26     	; 0x7c0 <can_transmit+0x42>
     7da:	81 e0       	ldi	r24, 0x01	; 1
     7dc:	0e 94 52 04 	call	0x8a4	; 0x8a4 <can_controller_request_send>
     7e0:	cf 91       	pop	r28
     7e2:	1f 91       	pop	r17
     7e4:	0f 91       	pop	r16
     7e6:	08 95       	ret

000007e8 <__vector_1>:
     7e8:	1f 92       	push	r1
     7ea:	0f 92       	push	r0
     7ec:	0f b6       	in	r0, 0x3f	; 63
     7ee:	0f 92       	push	r0
     7f0:	11 24       	eor	r1, r1
     7f2:	2f 93       	push	r18
     7f4:	3f 93       	push	r19
     7f6:	4f 93       	push	r20
     7f8:	5f 93       	push	r21
     7fa:	6f 93       	push	r22
     7fc:	7f 93       	push	r23
     7fe:	8f 93       	push	r24
     800:	9f 93       	push	r25
     802:	af 93       	push	r26
     804:	bf 93       	push	r27
     806:	ef 93       	push	r30
     808:	ff 93       	push	r31
     80a:	8c e2       	ldi	r24, 0x2C	; 44
     80c:	0e 94 1b 04 	call	0x836	; 0x836 <can_controller_read>
     810:	80 93 6e 02 	sts	0x026E, r24	; 0x80026e <can_rx_flag>
     814:	ff 91       	pop	r31
     816:	ef 91       	pop	r30
     818:	bf 91       	pop	r27
     81a:	af 91       	pop	r26
     81c:	9f 91       	pop	r25
     81e:	8f 91       	pop	r24
     820:	7f 91       	pop	r23
     822:	6f 91       	pop	r22
     824:	5f 91       	pop	r21
     826:	4f 91       	pop	r20
     828:	3f 91       	pop	r19
     82a:	2f 91       	pop	r18
     82c:	0f 90       	pop	r0
     82e:	0f be       	out	0x3f, r0	; 63
     830:	0f 90       	pop	r0
     832:	1f 90       	pop	r1
     834:	18 95       	reti

00000836 <can_controller_read>:
     836:	cf 93       	push	r28
     838:	c8 2f       	mov	r28, r24
     83a:	80 e0       	ldi	r24, 0x00	; 0
     83c:	0e 94 90 08 	call	0x1120	; 0x1120 <spi_select_slave>
     840:	83 e0       	ldi	r24, 0x03	; 3
     842:	0e 94 be 08 	call	0x117c	; 0x117c <spi_write_byte>
     846:	0e 94 c2 08 	call	0x1184	; 0x1184 <spi_read_byte>
     84a:	8c 2f       	mov	r24, r28
     84c:	0e 94 be 08 	call	0x117c	; 0x117c <spi_write_byte>
     850:	0e 94 c2 08 	call	0x1184	; 0x1184 <spi_read_byte>
     854:	80 e0       	ldi	r24, 0x00	; 0
     856:	0e 94 be 08 	call	0x117c	; 0x117c <spi_write_byte>
     85a:	0e 94 c2 08 	call	0x1184	; 0x1184 <spi_read_byte>
     85e:	c8 2f       	mov	r28, r24
     860:	83 e0       	ldi	r24, 0x03	; 3
     862:	0e 94 90 08 	call	0x1120	; 0x1120 <spi_select_slave>
     866:	8c 2f       	mov	r24, r28
     868:	cf 91       	pop	r28
     86a:	08 95       	ret

0000086c <can_controller_write>:
     86c:	cf 93       	push	r28
     86e:	df 93       	push	r29
     870:	d8 2f       	mov	r29, r24
     872:	c6 2f       	mov	r28, r22
     874:	80 e0       	ldi	r24, 0x00	; 0
     876:	0e 94 90 08 	call	0x1120	; 0x1120 <spi_select_slave>
     87a:	82 e0       	ldi	r24, 0x02	; 2
     87c:	0e 94 be 08 	call	0x117c	; 0x117c <spi_write_byte>
     880:	0e 94 c2 08 	call	0x1184	; 0x1184 <spi_read_byte>
     884:	8d 2f       	mov	r24, r29
     886:	0e 94 be 08 	call	0x117c	; 0x117c <spi_write_byte>
     88a:	0e 94 c2 08 	call	0x1184	; 0x1184 <spi_read_byte>
     88e:	8c 2f       	mov	r24, r28
     890:	0e 94 be 08 	call	0x117c	; 0x117c <spi_write_byte>
     894:	0e 94 c2 08 	call	0x1184	; 0x1184 <spi_read_byte>
     898:	83 e0       	ldi	r24, 0x03	; 3
     89a:	0e 94 90 08 	call	0x1120	; 0x1120 <spi_select_slave>
     89e:	df 91       	pop	r29
     8a0:	cf 91       	pop	r28
     8a2:	08 95       	ret

000008a4 <can_controller_request_send>:
     8a4:	cf 93       	push	r28
     8a6:	c8 2f       	mov	r28, r24
     8a8:	80 e0       	ldi	r24, 0x00	; 0
     8aa:	0e 94 90 08 	call	0x1120	; 0x1120 <spi_select_slave>
     8ae:	8c 2f       	mov	r24, r28
     8b0:	87 70       	andi	r24, 0x07	; 7
     8b2:	80 58       	subi	r24, 0x80	; 128
     8b4:	0e 94 be 08 	call	0x117c	; 0x117c <spi_write_byte>
     8b8:	0e 94 c2 08 	call	0x1184	; 0x1184 <spi_read_byte>
     8bc:	83 e0       	ldi	r24, 0x03	; 3
     8be:	0e 94 90 08 	call	0x1120	; 0x1120 <spi_select_slave>
     8c2:	cf 91       	pop	r28
     8c4:	08 95       	ret

000008c6 <can_controller_reset>:
     8c6:	80 e0       	ldi	r24, 0x00	; 0
     8c8:	0e 94 90 08 	call	0x1120	; 0x1120 <spi_select_slave>
     8cc:	80 ec       	ldi	r24, 0xC0	; 192
     8ce:	0e 94 be 08 	call	0x117c	; 0x117c <spi_write_byte>
     8d2:	0e 94 c2 08 	call	0x1184	; 0x1184 <spi_read_byte>
     8d6:	83 e0       	ldi	r24, 0x03	; 3
     8d8:	0e 94 90 08 	call	0x1120	; 0x1120 <spi_select_slave>
     8dc:	08 95       	ret

000008de <io_board_init>:
     8de:	0e 94 87 08 	call	0x110e	; 0x110e <spi_init>
     8e2:	08 95       	ret

000008e4 <io_board_read_buttons>:
     8e4:	cf 93       	push	r28
     8e6:	df 93       	push	r29
     8e8:	cd b7       	in	r28, 0x3d	; 61
     8ea:	de b7       	in	r29, 0x3e	; 62
     8ec:	2a 97       	sbiw	r28, 0x0a	; 10
     8ee:	0f b6       	in	r0, 0x3f	; 63
     8f0:	f8 94       	cli
     8f2:	de bf       	out	0x3e, r29	; 62
     8f4:	0f be       	out	0x3f, r0	; 63
     8f6:	cd bf       	out	0x3d, r28	; 61
     8f8:	81 e0       	ldi	r24, 0x01	; 1
     8fa:	0e 94 90 08 	call	0x1120	; 0x1120 <spi_select_slave>
     8fe:	84 e0       	ldi	r24, 0x04	; 4
     900:	0e 94 be 08 	call	0x117c	; 0x117c <spi_write_byte>
     904:	0e 94 c2 08 	call	0x1184	; 0x1184 <spi_read_byte>
     908:	80 e0       	ldi	r24, 0x00	; 0
     90a:	0e 94 be 08 	call	0x117c	; 0x117c <spi_write_byte>
     90e:	0e 94 c2 08 	call	0x1184	; 0x1184 <spi_read_byte>
     912:	8e 83       	std	Y+6, r24	; 0x06
     914:	80 e0       	ldi	r24, 0x00	; 0
     916:	0e 94 be 08 	call	0x117c	; 0x117c <spi_write_byte>
     91a:	0e 94 c2 08 	call	0x1184	; 0x1184 <spi_read_byte>
     91e:	8f 83       	std	Y+7, r24	; 0x07
     920:	80 e0       	ldi	r24, 0x00	; 0
     922:	0e 94 be 08 	call	0x117c	; 0x117c <spi_write_byte>
     926:	0e 94 c2 08 	call	0x1184	; 0x1184 <spi_read_byte>
     92a:	88 87       	std	Y+8, r24	; 0x08
     92c:	82 e0       	ldi	r24, 0x02	; 2
     92e:	0e 94 be 08 	call	0x117c	; 0x117c <spi_write_byte>
     932:	0e 94 c2 08 	call	0x1184	; 0x1184 <spi_read_byte>
     936:	80 e0       	ldi	r24, 0x00	; 0
     938:	0e 94 be 08 	call	0x117c	; 0x117c <spi_write_byte>
     93c:	0e 94 c2 08 	call	0x1184	; 0x1184 <spi_read_byte>
     940:	89 87       	std	Y+9, r24	; 0x09
     942:	80 e0       	ldi	r24, 0x00	; 0
     944:	0e 94 be 08 	call	0x117c	; 0x117c <spi_write_byte>
     948:	0e 94 c2 08 	call	0x1184	; 0x1184 <spi_read_byte>
     94c:	8a 87       	std	Y+10, r24	; 0x0a
     94e:	83 e0       	ldi	r24, 0x03	; 3
     950:	0e 94 90 08 	call	0x1120	; 0x1120 <spi_select_slave>
     954:	85 e0       	ldi	r24, 0x05	; 5
     956:	fe 01       	movw	r30, r28
     958:	36 96       	adiw	r30, 0x06	; 6
     95a:	de 01       	movw	r26, r28
     95c:	11 96       	adiw	r26, 0x01	; 1
     95e:	01 90       	ld	r0, Z+
     960:	0d 92       	st	X+, r0
     962:	8a 95       	dec	r24
     964:	e1 f7       	brne	.-8      	; 0x95e <io_board_read_buttons+0x7a>
     966:	29 81       	ldd	r18, Y+1	; 0x01
     968:	3a 81       	ldd	r19, Y+2	; 0x02
     96a:	4b 81       	ldd	r20, Y+3	; 0x03
     96c:	5c 81       	ldd	r21, Y+4	; 0x04
     96e:	6d 81       	ldd	r22, Y+5	; 0x05
     970:	70 e0       	ldi	r23, 0x00	; 0
     972:	80 e0       	ldi	r24, 0x00	; 0
     974:	90 e0       	ldi	r25, 0x00	; 0
     976:	2a 96       	adiw	r28, 0x0a	; 10
     978:	0f b6       	in	r0, 0x3f	; 63
     97a:	f8 94       	cli
     97c:	de bf       	out	0x3e, r29	; 62
     97e:	0f be       	out	0x3f, r0	; 63
     980:	cd bf       	out	0x3d, r28	; 61
     982:	df 91       	pop	r29
     984:	cf 91       	pop	r28
     986:	08 95       	ret

00000988 <io_board_set_led>:
     988:	cf 93       	push	r28
     98a:	df 93       	push	r29
     98c:	d8 2f       	mov	r29, r24
     98e:	c6 2f       	mov	r28, r22
     990:	81 e0       	ldi	r24, 0x01	; 1
     992:	0e 94 90 08 	call	0x1120	; 0x1120 <spi_select_slave>
     996:	85 e0       	ldi	r24, 0x05	; 5
     998:	0e 94 be 08 	call	0x117c	; 0x117c <spi_write_byte>
     99c:	0e 94 c2 08 	call	0x1184	; 0x1184 <spi_read_byte>
     9a0:	8d 2f       	mov	r24, r29
     9a2:	0e 94 be 08 	call	0x117c	; 0x117c <spi_write_byte>
     9a6:	0e 94 c2 08 	call	0x1184	; 0x1184 <spi_read_byte>
     9aa:	8c 2f       	mov	r24, r28
     9ac:	0e 94 be 08 	call	0x117c	; 0x117c <spi_write_byte>
     9b0:	0e 94 c2 08 	call	0x1184	; 0x1184 <spi_read_byte>
     9b4:	83 e0       	ldi	r24, 0x03	; 3
     9b6:	0e 94 90 08 	call	0x1120	; 0x1120 <spi_select_slave>
     9ba:	df 91       	pop	r29
     9bc:	cf 91       	pop	r28
     9be:	08 95       	ret

000009c0 <send_joystick_data>:
		update_screen();
	}

}

void send_joystick_data(io_inputs_t in) {
     9c0:	0f 93       	push	r16
     9c2:	1f 93       	push	r17
     9c4:	cf 93       	push	r28
     9c6:	df 93       	push	r29
     9c8:	cd b7       	in	r28, 0x3d	; 61
     9ca:	de b7       	in	r29, 0x3e	; 62
     9cc:	65 97       	sbiw	r28, 0x15	; 21
     9ce:	0f b6       	in	r0, 0x3f	; 63
     9d0:	f8 94       	cli
     9d2:	de bf       	out	0x3e, r29	; 62
     9d4:	0f be       	out	0x3f, r0	; 63
     9d6:	cd bf       	out	0x3d, r28	; 61
	//const direction dir = get_joystick_direction(in);
	can_message_t msg_tx;
	msg_tx.id = 10;
     9d8:	2a e0       	ldi	r18, 0x0A	; 10
     9da:	30 e0       	ldi	r19, 0x00	; 0
     9dc:	3a 83       	std	Y+2, r19	; 0x02
     9de:	29 83       	std	Y+1, r18	; 0x01
	msg_tx.length = 3;
     9e0:	93 e0       	ldi	r25, 0x03	; 3
     9e2:	9b 83       	std	Y+3, r25	; 0x03

	msg_tx.data[0] = in.pad_x;
     9e4:	4c 83       	std	Y+4, r20	; 0x04
	msg_tx.data[1] = in.joy_x;
     9e6:	0d 83       	std	Y+5, r16	; 0x05
	msg_tx.data[2] = in.joy_b;
     9e8:	8e 83       	std	Y+6, r24	; 0x06
	can_transmit(&msg_tx);
     9ea:	ce 01       	movw	r24, r28
     9ec:	01 96       	adiw	r24, 0x01	; 1
     9ee:	0e 94 bf 03 	call	0x77e	; 0x77e <can_transmit>
}
     9f2:	65 96       	adiw	r28, 0x15	; 21
     9f4:	0f b6       	in	r0, 0x3f	; 63
     9f6:	f8 94       	cli
     9f8:	de bf       	out	0x3e, r29	; 62
     9fa:	0f be       	out	0x3f, r0	; 63
     9fc:	cd bf       	out	0x3d, r28	; 61
     9fe:	df 91       	pop	r29
     a00:	cf 91       	pop	r28
     a02:	1f 91       	pop	r17
     a04:	0f 91       	pop	r16
     a06:	08 95       	ret

00000a08 <main>:
#include "oled/oled.h"
#include "can/can.h"
#include "IO_BOARD/io_board.h"


int main(void) {
     a08:	cf 93       	push	r28
     a0a:	df 93       	push	r29
     a0c:	cd b7       	in	r28, 0x3d	; 61
     a0e:	de b7       	in	r29, 0x3e	; 62
     a10:	2f 97       	sbiw	r28, 0x0f	; 15
     a12:	0f b6       	in	r0, 0x3f	; 63
     a14:	f8 94       	cli
     a16:	de bf       	out	0x3e, r29	; 62
     a18:	0f be       	out	0x3f, r0	; 63
     a1a:	cd bf       	out	0x3d, r28	; 61
	

	uart_init(9600);
     a1c:	60 e8       	ldi	r22, 0x80	; 128
     a1e:	75 e2       	ldi	r23, 0x25	; 37
     a20:	80 e0       	ldi	r24, 0x00	; 0
     a22:	90 e0       	ldi	r25, 0x00	; 0
     a24:	0e 94 f1 08 	call	0x11e2	; 0x11e2 <uart_init>
	xmem_init();
     a28:	0e 94 08 09 	call	0x1210	; 0x1210 <xmem_init>
	adc_init();
     a2c:	0e 94 e3 02 	call	0x5c6	; 0x5c6 <adc_init>
	oled_init();
     a30:	0e 94 9b 05 	call	0xb36	; 0xb36 <oled_init>
	io_board_init(); 	
     a34:	0e 94 6f 04 	call	0x8de	; 0x8de <io_board_init>
	doublebuf_init();
     a38:	0e 94 4f 06 	call	0xc9e	; 0xc9e <doublebuf_init>
	can_init();
     a3c:	0e 94 89 03 	call	0x712	; 0x712 <can_init>
	
	draw_string_big_to_buffer(0, 0, "Starting...");
     a40:	4f e0       	ldi	r20, 0x0F	; 15
     a42:	51 e0       	ldi	r21, 0x01	; 1
     a44:	60 e0       	ldi	r22, 0x00	; 0
     a46:	80 e0       	ldi	r24, 0x00	; 0
     a48:	0e 94 22 07 	call	0xe44	; 0xe44 <draw_string_big_to_buffer>
	request_buffer_swap();
     a4c:	0e 94 87 06 	call	0xd0e	; 0xd0e <request_buffer_swap>
	while(!update_screen()) {}
     a50:	0e 94 54 08 	call	0x10a8	; 0x10a8 <update_screen>
     a54:	88 23       	and	r24, r24
     a56:	e1 f3       	breq	.-8      	; 0xa50 <main+0x48>
	//inputs_calibrate();

	//CAN_test();
	//SRAM_test();
	
	clear_all_buffers();
     a58:	0e 94 76 06 	call	0xcec	; 0xcec <clear_all_buffers>
	draw_menu_to_buffer();
     a5c:	0e 94 e7 07 	call	0xfce	; 0xfce <draw_menu_to_buffer>
	
	io_board_set_led(2, ON);
     a60:	61 e0       	ldi	r22, 0x01	; 1
     a62:	82 e0       	ldi	r24, 0x02	; 2
     a64:	0e 94 c4 04 	call	0x988	; 0x988 <io_board_set_led>
	io_board_set_led(4, ON);
     a68:	61 e0       	ldi	r22, 0x01	; 1
     a6a:	84 e0       	ldi	r24, 0x04	; 4
     a6c:	0e 94 c4 04 	call	0x988	; 0x988 <io_board_set_led>
	
	direction prev_dir = NEUTRAL;
     a70:	68 94       	set
     a72:	ee 24       	eor	r14, r14
     a74:	e2 f8       	bld	r14, 2
	while (1) {
		const io_inputs_t in = get_io_inputs();
     a76:	ce 01       	movw	r24, r28
     a78:	01 96       	adiw	r24, 0x01	; 1
     a7a:	0e 94 f5 02 	call	0x5ea	; 0x5ea <get_io_inputs>
		//printf("getting directions\n");
		const direction dir = get_joystick_direction(in);
     a7e:	09 81       	ldd	r16, Y+1	; 0x01
     a80:	1a 81       	ldd	r17, Y+2	; 0x02
     a82:	2b 81       	ldd	r18, Y+3	; 0x03
     a84:	3c 81       	ldd	r19, Y+4	; 0x04
     a86:	4d 81       	ldd	r20, Y+5	; 0x05
     a88:	5e 81       	ldd	r21, Y+6	; 0x06
     a8a:	6f 81       	ldd	r22, Y+7	; 0x07
     a8c:	78 85       	ldd	r23, Y+8	; 0x08
     a8e:	89 85       	ldd	r24, Y+9	; 0x09
     a90:	9a 85       	ldd	r25, Y+10	; 0x0a
     a92:	0e 94 26 03 	call	0x64c	; 0x64c <get_joystick_direction>
     a96:	f8 2e       	mov	r15, r24
		if (dir != prev_dir) {
     a98:	e8 16       	cp	r14, r24
     a9a:	d9 f1       	breq	.+118    	; 0xb12 <main+0x10a>
			if (dir == UP && main_menu.selected > 0) {
     a9c:	82 e0       	ldi	r24, 0x02	; 2
     a9e:	f8 12       	cpse	r15, r24
     aa0:	0a c0       	rjmp	.+20     	; 0xab6 <main+0xae>
     aa2:	80 91 6f 02 	lds	r24, 0x026F	; 0x80026f <main_menu>
     aa6:	88 23       	and	r24, r24
     aa8:	31 f0       	breq	.+12     	; 0xab6 <main+0xae>
				main_menu.selected--;
     aaa:	81 50       	subi	r24, 0x01	; 1
     aac:	80 93 6f 02 	sts	0x026F, r24	; 0x80026f <main_menu>
				draw_menu_to_buffer();
     ab0:	0e 94 e7 07 	call	0xfce	; 0xfce <draw_menu_to_buffer>
     ab4:	2e c0       	rjmp	.+92     	; 0xb12 <main+0x10a>
				} else if (dir == DOWN && main_menu.selected < main_menu.max) {
     ab6:	83 e0       	ldi	r24, 0x03	; 3
     ab8:	f8 12       	cpse	r15, r24
     aba:	0c c0       	rjmp	.+24     	; 0xad4 <main+0xcc>
     abc:	ef e6       	ldi	r30, 0x6F	; 111
     abe:	f2 e0       	ldi	r31, 0x02	; 2
     ac0:	80 81       	ld	r24, Z
     ac2:	91 81       	ldd	r25, Z+1	; 0x01
     ac4:	89 17       	cp	r24, r25
     ac6:	30 f4       	brcc	.+12     	; 0xad4 <main+0xcc>
				main_menu.selected++;
     ac8:	8f 5f       	subi	r24, 0xFF	; 255
     aca:	80 93 6f 02 	sts	0x026F, r24	; 0x80026f <main_menu>
				draw_menu_to_buffer();
     ace:	0e 94 e7 07 	call	0xfce	; 0xfce <draw_menu_to_buffer>
     ad2:	1f c0       	rjmp	.+62     	; 0xb12 <main+0x10a>
				} else if (dir == RIGHT && main_menu.selected < main_menu.max - 1) {
     ad4:	81 e0       	ldi	r24, 0x01	; 1
     ad6:	f8 12       	cpse	r15, r24
     ad8:	11 c0       	rjmp	.+34     	; 0xafc <main+0xf4>
     ada:	ef e6       	ldi	r30, 0x6F	; 111
     adc:	f2 e0       	ldi	r31, 0x02	; 2
     ade:	20 81       	ld	r18, Z
     ae0:	42 2f       	mov	r20, r18
     ae2:	50 e0       	ldi	r21, 0x00	; 0
     ae4:	81 81       	ldd	r24, Z+1	; 0x01
     ae6:	90 e0       	ldi	r25, 0x00	; 0
     ae8:	01 97       	sbiw	r24, 0x01	; 1
     aea:	48 17       	cp	r20, r24
     aec:	59 07       	cpc	r21, r25
     aee:	34 f4       	brge	.+12     	; 0xafc <main+0xf4>
				main_menu.selected += 2;
     af0:	2e 5f       	subi	r18, 0xFE	; 254
     af2:	20 93 6f 02 	sts	0x026F, r18	; 0x80026f <main_menu>
				draw_menu_to_buffer();
     af6:	0e 94 e7 07 	call	0xfce	; 0xfce <draw_menu_to_buffer>
     afa:	0b c0       	rjmp	.+22     	; 0xb12 <main+0x10a>
				} else if (dir == LEFT && main_menu.selected > 1) {
     afc:	f1 10       	cpse	r15, r1
     afe:	09 c0       	rjmp	.+18     	; 0xb12 <main+0x10a>
     b00:	80 91 6f 02 	lds	r24, 0x026F	; 0x80026f <main_menu>
     b04:	82 30       	cpi	r24, 0x02	; 2
     b06:	28 f0       	brcs	.+10     	; 0xb12 <main+0x10a>
				main_menu.selected -= 2;
     b08:	82 50       	subi	r24, 0x02	; 2
     b0a:	80 93 6f 02 	sts	0x026F, r24	; 0x80026f <main_menu>
				draw_menu_to_buffer();
     b0e:	0e 94 e7 07 	call	0xfce	; 0xfce <draw_menu_to_buffer>
			}
		}
		
		send_joystick_data(in);
     b12:	09 81       	ldd	r16, Y+1	; 0x01
     b14:	1a 81       	ldd	r17, Y+2	; 0x02
     b16:	2b 81       	ldd	r18, Y+3	; 0x03
     b18:	3c 81       	ldd	r19, Y+4	; 0x04
     b1a:	4d 81       	ldd	r20, Y+5	; 0x05
     b1c:	5e 81       	ldd	r21, Y+6	; 0x06
     b1e:	6f 81       	ldd	r22, Y+7	; 0x07
     b20:	78 85       	ldd	r23, Y+8	; 0x08
     b22:	89 85       	ldd	r24, Y+9	; 0x09
     b24:	9a 85       	ldd	r25, Y+10	; 0x0a
     b26:	0e 94 e0 04 	call	0x9c0	; 0x9c0 <send_joystick_data>

		prev_dir = dir;
		
		const buttons_t buttons = io_board_read_buttons();
     b2a:	0e 94 72 04 	call	0x8e4	; 0x8e4 <io_board_read_buttons>
		//printf("L1:%d,L2:%d,L3:%d,L4:%d,L5:%d,L6:%d,L7:%d,R1:%d,R2:%d,R3:%d,R4:%d,R5:%d,R6:%d,nav=%d\n",
		//buttons.left&1, buttons.left&(1<<1), buttons.left&(1<<2), buttons.left&(1<<3), buttons.left&(1<<4), buttons.left&(1<<5), buttons.left&(1<<6),
		//buttons.right&1, buttons.right&(1<<1), buttons.right&(1<<2), buttons.right&(1<<3),buttons.right&(1<<4),buttons.right&(1<<5), buttons.nav);
		update_screen();
     b2e:	0e 94 54 08 	call	0x10a8	; 0x10a8 <update_screen>
			}
		}
		
		send_joystick_data(in);

		prev_dir = dir;
     b32:	ef 2c       	mov	r14, r15
		const buttons_t buttons = io_board_read_buttons();
		//printf("L1:%d,L2:%d,L3:%d,L4:%d,L5:%d,L6:%d,L7:%d,R1:%d,R2:%d,R3:%d,R4:%d,R5:%d,R6:%d,nav=%d\n",
		//buttons.left&1, buttons.left&(1<<1), buttons.left&(1<<2), buttons.left&(1<<3), buttons.left&(1<<4), buttons.left&(1<<5), buttons.left&(1<<6),
		//buttons.right&1, buttons.right&(1<<1), buttons.right&(1<<2), buttons.right&(1<<3),buttons.right&(1<<4),buttons.right&(1<<5), buttons.nav);
		update_screen();
	}
     b34:	a0 cf       	rjmp	.-192    	; 0xa76 <main+0x6e>

00000b36 <oled_init>:
     b36:	ef e6       	ldi	r30, 0x6F	; 111
     b38:	f2 e0       	ldi	r31, 0x02	; 2
     b3a:	10 82       	st	Z, r1
     b3c:	82 e0       	ldi	r24, 0x02	; 2
     b3e:	81 83       	std	Z+1, r24	; 0x01
     b40:	0e 94 87 08 	call	0x110e	; 0x110e <spi_init>
     b44:	87 b3       	in	r24, 0x17	; 23
     b46:	82 60       	ori	r24, 0x02	; 2
     b48:	87 bb       	out	0x17, r24	; 23
     b4a:	82 e0       	ldi	r24, 0x02	; 2
     b4c:	0e 94 90 08 	call	0x1120	; 0x1120 <spi_select_slave>
     b50:	88 b3       	in	r24, 0x18	; 24
     b52:	8d 7f       	andi	r24, 0xFD	; 253
     b54:	88 bb       	out	0x18, r24	; 24
     b56:	8e ea       	ldi	r24, 0xAE	; 174
     b58:	0e 94 be 08 	call	0x117c	; 0x117c <spi_write_byte>
     b5c:	0e 94 c2 08 	call	0x1184	; 0x1184 <spi_read_byte>
     b60:	81 ea       	ldi	r24, 0xA1	; 161
     b62:	0e 94 be 08 	call	0x117c	; 0x117c <spi_write_byte>
     b66:	0e 94 c2 08 	call	0x1184	; 0x1184 <spi_read_byte>
     b6a:	8a ed       	ldi	r24, 0xDA	; 218
     b6c:	0e 94 be 08 	call	0x117c	; 0x117c <spi_write_byte>
     b70:	0e 94 c2 08 	call	0x1184	; 0x1184 <spi_read_byte>
     b74:	82 e1       	ldi	r24, 0x12	; 18
     b76:	0e 94 be 08 	call	0x117c	; 0x117c <spi_write_byte>
     b7a:	0e 94 c2 08 	call	0x1184	; 0x1184 <spi_read_byte>
     b7e:	88 ec       	ldi	r24, 0xC8	; 200
     b80:	0e 94 be 08 	call	0x117c	; 0x117c <spi_write_byte>
     b84:	0e 94 c2 08 	call	0x1184	; 0x1184 <spi_read_byte>
     b88:	88 ea       	ldi	r24, 0xA8	; 168
     b8a:	0e 94 be 08 	call	0x117c	; 0x117c <spi_write_byte>
     b8e:	0e 94 c2 08 	call	0x1184	; 0x1184 <spi_read_byte>
     b92:	8f e3       	ldi	r24, 0x3F	; 63
     b94:	0e 94 be 08 	call	0x117c	; 0x117c <spi_write_byte>
     b98:	0e 94 c2 08 	call	0x1184	; 0x1184 <spi_read_byte>
     b9c:	85 ed       	ldi	r24, 0xD5	; 213
     b9e:	0e 94 be 08 	call	0x117c	; 0x117c <spi_write_byte>
     ba2:	0e 94 c2 08 	call	0x1184	; 0x1184 <spi_read_byte>
     ba6:	80 e8       	ldi	r24, 0x80	; 128
     ba8:	0e 94 be 08 	call	0x117c	; 0x117c <spi_write_byte>
     bac:	0e 94 c2 08 	call	0x1184	; 0x1184 <spi_read_byte>
     bb0:	81 e8       	ldi	r24, 0x81	; 129
     bb2:	0e 94 be 08 	call	0x117c	; 0x117c <spi_write_byte>
     bb6:	0e 94 c2 08 	call	0x1184	; 0x1184 <spi_read_byte>
     bba:	80 e5       	ldi	r24, 0x50	; 80
     bbc:	0e 94 be 08 	call	0x117c	; 0x117c <spi_write_byte>
     bc0:	0e 94 c2 08 	call	0x1184	; 0x1184 <spi_read_byte>
     bc4:	89 ed       	ldi	r24, 0xD9	; 217
     bc6:	0e 94 be 08 	call	0x117c	; 0x117c <spi_write_byte>
     bca:	0e 94 c2 08 	call	0x1184	; 0x1184 <spi_read_byte>
     bce:	81 e2       	ldi	r24, 0x21	; 33
     bd0:	0e 94 be 08 	call	0x117c	; 0x117c <spi_write_byte>
     bd4:	0e 94 c2 08 	call	0x1184	; 0x1184 <spi_read_byte>
     bd8:	80 e2       	ldi	r24, 0x20	; 32
     bda:	0e 94 be 08 	call	0x117c	; 0x117c <spi_write_byte>
     bde:	0e 94 c2 08 	call	0x1184	; 0x1184 <spi_read_byte>
     be2:	82 e0       	ldi	r24, 0x02	; 2
     be4:	0e 94 be 08 	call	0x117c	; 0x117c <spi_write_byte>
     be8:	0e 94 c2 08 	call	0x1184	; 0x1184 <spi_read_byte>
     bec:	8b ed       	ldi	r24, 0xDB	; 219
     bee:	0e 94 be 08 	call	0x117c	; 0x117c <spi_write_byte>
     bf2:	0e 94 c2 08 	call	0x1184	; 0x1184 <spi_read_byte>
     bf6:	84 e3       	ldi	r24, 0x34	; 52
     bf8:	0e 94 be 08 	call	0x117c	; 0x117c <spi_write_byte>
     bfc:	0e 94 c2 08 	call	0x1184	; 0x1184 <spi_read_byte>
     c00:	84 ea       	ldi	r24, 0xA4	; 164
     c02:	0e 94 be 08 	call	0x117c	; 0x117c <spi_write_byte>
     c06:	0e 94 c2 08 	call	0x1184	; 0x1184 <spi_read_byte>
     c0a:	86 ea       	ldi	r24, 0xA6	; 166
     c0c:	0e 94 be 08 	call	0x117c	; 0x117c <spi_write_byte>
     c10:	0e 94 c2 08 	call	0x1184	; 0x1184 <spi_read_byte>
     c14:	8f ea       	ldi	r24, 0xAF	; 175
     c16:	0e 94 be 08 	call	0x117c	; 0x117c <spi_write_byte>
     c1a:	0e 94 c2 08 	call	0x1184	; 0x1184 <spi_read_byte>
     c1e:	83 e0       	ldi	r24, 0x03	; 3
     c20:	0e 94 90 08 	call	0x1120	; 0x1120 <spi_select_slave>
     c24:	08 95       	ret

00000c26 <start_timer_transfer>:
     c26:	ea e8       	ldi	r30, 0x8A	; 138
     c28:	f0 e0       	ldi	r31, 0x00	; 0
     c2a:	10 82       	st	Z, r1
     c2c:	80 81       	ld	r24, Z
     c2e:	88 60       	ori	r24, 0x08	; 8
     c30:	80 83       	st	Z, r24
     c32:	8f ef       	ldi	r24, 0xFF	; 255
     c34:	9b e2       	ldi	r25, 0x2B	; 43
     c36:	90 93 87 00 	sts	0x0087, r25	; 0x800087 <__TEXT_REGION_LENGTH__+0x7fc087>
     c3a:	80 93 86 00 	sts	0x0086, r24	; 0x800086 <__TEXT_REGION_LENGTH__+0x7fc086>
     c3e:	80 81       	ld	r24, Z
     c40:	8b 7f       	andi	r24, 0xFB	; 251
     c42:	80 83       	st	Z, r24
     c44:	80 81       	ld	r24, Z
     c46:	83 60       	ori	r24, 0x03	; 3
     c48:	80 83       	st	Z, r24
     c4a:	ed e7       	ldi	r30, 0x7D	; 125
     c4c:	f0 e0       	ldi	r31, 0x00	; 0
     c4e:	80 81       	ld	r24, Z
     c50:	80 61       	ori	r24, 0x10	; 16
     c52:	80 83       	st	Z, r24
     c54:	08 95       	ret

00000c56 <__vector_7>:
     c56:	1f 92       	push	r1
     c58:	0f 92       	push	r0
     c5a:	0f b6       	in	r0, 0x3f	; 63
     c5c:	0f 92       	push	r0
     c5e:	11 24       	eor	r1, r1
     c60:	8f 93       	push	r24
     c62:	9f 93       	push	r25
     c64:	81 e0       	ldi	r24, 0x01	; 1
     c66:	80 93 66 02 	sts	0x0266, r24	; 0x800266 <screen_update_needed>
     c6a:	80 91 6b 02 	lds	r24, 0x026B	; 0x80026b <swap_requested>
     c6e:	88 23       	and	r24, r24
     c70:	79 f0       	breq	.+30     	; 0xc90 <__vector_7+0x3a>
     c72:	f8 94       	cli
     c74:	10 92 6b 02 	sts	0x026B, r1	; 0x80026b <swap_requested>
     c78:	80 91 00 01 	lds	r24, 0x0100	; 0x800100 <__DATA_REGION_ORIGIN__>
     c7c:	80 93 6c 02 	sts	0x026C, r24	; 0x80026c <front_buf>
     c80:	90 91 00 01 	lds	r25, 0x0100	; 0x800100 <__DATA_REGION_ORIGIN__>
     c84:	81 e0       	ldi	r24, 0x01	; 1
     c86:	91 11       	cpse	r25, r1
     c88:	80 e0       	ldi	r24, 0x00	; 0
     c8a:	80 93 00 01 	sts	0x0100, r24	; 0x800100 <__DATA_REGION_ORIGIN__>
     c8e:	78 94       	sei
     c90:	9f 91       	pop	r25
     c92:	8f 91       	pop	r24
     c94:	0f 90       	pop	r0
     c96:	0f be       	out	0x3f, r0	; 63
     c98:	0f 90       	pop	r0
     c9a:	1f 90       	pop	r1
     c9c:	18 95       	reti

00000c9e <doublebuf_init>:
     c9e:	cf 93       	push	r28
     ca0:	df 93       	push	r29
     ca2:	0e 94 9b 05 	call	0xb36	; 0xb36 <oled_init>
     ca6:	0e 94 08 09 	call	0x1210	; 0x1210 <xmem_init>
     caa:	c0 e0       	ldi	r28, 0x00	; 0
     cac:	d0 e0       	ldi	r29, 0x00	; 0
     cae:	05 c0       	rjmp	.+10     	; 0xcba <doublebuf_init+0x1c>
     cb0:	be 01       	movw	r22, r28
     cb2:	80 e0       	ldi	r24, 0x00	; 0
     cb4:	0e 94 0f 09 	call	0x121e	; 0x121e <xmem_write>
     cb8:	21 96       	adiw	r28, 0x01	; 1
     cba:	c1 15       	cp	r28, r1
     cbc:	88 e0       	ldi	r24, 0x08	; 8
     cbe:	d8 07       	cpc	r29, r24
     cc0:	b8 f3       	brcs	.-18     	; 0xcb0 <doublebuf_init+0x12>
     cc2:	10 92 6c 02 	sts	0x026C, r1	; 0x80026c <front_buf>
     cc6:	81 e0       	ldi	r24, 0x01	; 1
     cc8:	80 93 00 01 	sts	0x0100, r24	; 0x800100 <__DATA_REGION_ORIGIN__>
     ccc:	10 92 6b 02 	sts	0x026B, r1	; 0x80026b <swap_requested>
     cd0:	10 92 6a 02 	sts	0x026A, r1	; 0x80026a <swap_pending>
     cd4:	10 92 69 02 	sts	0x0269, r1	; 0x800269 <transfer_pos+0x1>
     cd8:	10 92 68 02 	sts	0x0268, r1	; 0x800268 <transfer_pos>
     cdc:	10 92 67 02 	sts	0x0267, r1	; 0x800267 <transfer_in_progress>
     ce0:	0e 94 13 06 	call	0xc26	; 0xc26 <start_timer_transfer>
     ce4:	78 94       	sei
     ce6:	df 91       	pop	r29
     ce8:	cf 91       	pop	r28
     cea:	08 95       	ret

00000cec <clear_all_buffers>:
     cec:	cf 93       	push	r28
     cee:	df 93       	push	r29
     cf0:	c0 e0       	ldi	r28, 0x00	; 0
     cf2:	d0 e0       	ldi	r29, 0x00	; 0
     cf4:	05 c0       	rjmp	.+10     	; 0xd00 <clear_all_buffers+0x14>
     cf6:	be 01       	movw	r22, r28
     cf8:	80 e0       	ldi	r24, 0x00	; 0
     cfa:	0e 94 0f 09 	call	0x121e	; 0x121e <xmem_write>
     cfe:	21 96       	adiw	r28, 0x01	; 1
     d00:	c1 15       	cp	r28, r1
     d02:	88 e0       	ldi	r24, 0x08	; 8
     d04:	d8 07       	cpc	r29, r24
     d06:	b8 f3       	brcs	.-18     	; 0xcf6 <clear_all_buffers+0xa>
     d08:	df 91       	pop	r29
     d0a:	cf 91       	pop	r28
     d0c:	08 95       	ret

00000d0e <request_buffer_swap>:
     d0e:	f8 94       	cli
     d10:	81 e0       	ldi	r24, 0x01	; 1
     d12:	80 93 6b 02 	sts	0x026B, r24	; 0x80026b <swap_requested>
     d16:	78 94       	sei
     d18:	08 95       	ret

00000d1a <draw_char_normal_to_buffer>:
     d1a:	ef 92       	push	r14
     d1c:	ff 92       	push	r15
     d1e:	0f 93       	push	r16
     d20:	1f 93       	push	r17
     d22:	cf 93       	push	r28
     d24:	df 93       	push	r29
     d26:	f8 2e       	mov	r15, r24
     d28:	e6 2e       	mov	r14, r22
     d2a:	00 ee       	ldi	r16, 0xE0	; 224
     d2c:	04 0f       	add	r16, r20
     d2e:	80 91 00 01 	lds	r24, 0x0100	; 0x800100 <__DATA_REGION_ORIGIN__>
     d32:	81 11       	cpse	r24, r1
     d34:	03 c0       	rjmp	.+6      	; 0xd3c <draw_char_normal_to_buffer+0x22>
     d36:	c0 e0       	ldi	r28, 0x00	; 0
     d38:	d0 e0       	ldi	r29, 0x00	; 0
     d3a:	02 c0       	rjmp	.+4      	; 0xd40 <draw_char_normal_to_buffer+0x26>
     d3c:	c0 e0       	ldi	r28, 0x00	; 0
     d3e:	d4 e0       	ldi	r29, 0x04	; 4
     d40:	10 e0       	ldi	r17, 0x00	; 0
     d42:	1d c0       	rjmp	.+58     	; 0xd7e <draw_char_normal_to_buffer+0x64>
     d44:	80 2f       	mov	r24, r16
     d46:	90 e0       	ldi	r25, 0x00	; 0
     d48:	61 2f       	mov	r22, r17
     d4a:	70 e0       	ldi	r23, 0x00	; 0
     d4c:	fc 01       	movw	r30, r24
     d4e:	ee 0f       	add	r30, r30
     d50:	ff 1f       	adc	r31, r31
     d52:	ee 0f       	add	r30, r30
     d54:	ff 1f       	adc	r31, r31
     d56:	e8 0f       	add	r30, r24
     d58:	f9 1f       	adc	r31, r25
     d5a:	e6 0f       	add	r30, r22
     d5c:	f7 1f       	adc	r31, r23
     d5e:	eb 54       	subi	r30, 0x4B	; 75
     d60:	ff 4f       	sbci	r31, 0xFF	; 255
     d62:	84 91       	lpm	r24, Z
     d64:	6e 0d       	add	r22, r14
     d66:	71 1d       	adc	r23, r1
     d68:	9e 01       	movw	r18, r28
     d6a:	90 e8       	ldi	r25, 0x80	; 128
     d6c:	f9 9e       	mul	r15, r25
     d6e:	20 0d       	add	r18, r0
     d70:	31 1d       	adc	r19, r1
     d72:	11 24       	eor	r1, r1
     d74:	62 0f       	add	r22, r18
     d76:	73 1f       	adc	r23, r19
     d78:	0e 94 0f 09 	call	0x121e	; 0x121e <xmem_write>
     d7c:	1f 5f       	subi	r17, 0xFF	; 255
     d7e:	15 30       	cpi	r17, 0x05	; 5
     d80:	08 f3       	brcs	.-62     	; 0xd44 <draw_char_normal_to_buffer+0x2a>
     d82:	df 91       	pop	r29
     d84:	cf 91       	pop	r28
     d86:	1f 91       	pop	r17
     d88:	0f 91       	pop	r16
     d8a:	ff 90       	pop	r15
     d8c:	ef 90       	pop	r14
     d8e:	08 95       	ret

00000d90 <draw_string_normal_to_buffer>:
     d90:	ff 92       	push	r15
     d92:	0f 93       	push	r16
     d94:	1f 93       	push	r17
     d96:	cf 93       	push	r28
     d98:	df 93       	push	r29
     d9a:	f8 2e       	mov	r15, r24
     d9c:	d6 2f       	mov	r29, r22
     d9e:	8a 01       	movw	r16, r20
     da0:	c0 e0       	ldi	r28, 0x00	; 0
     da2:	0a c0       	rjmp	.+20     	; 0xdb8 <draw_string_normal_to_buffer+0x28>
     da4:	8c 2f       	mov	r24, r28
     da6:	88 0f       	add	r24, r24
     da8:	8c 0f       	add	r24, r28
     daa:	68 2f       	mov	r22, r24
     dac:	66 0f       	add	r22, r22
     dae:	6d 0f       	add	r22, r29
     db0:	8f 2d       	mov	r24, r15
     db2:	0e 94 8d 06 	call	0xd1a	; 0xd1a <draw_char_normal_to_buffer>
     db6:	cf 5f       	subi	r28, 0xFF	; 255
     db8:	f8 01       	movw	r30, r16
     dba:	ec 0f       	add	r30, r28
     dbc:	f1 1d       	adc	r31, r1
     dbe:	40 81       	ld	r20, Z
     dc0:	41 11       	cpse	r20, r1
     dc2:	f0 cf       	rjmp	.-32     	; 0xda4 <draw_string_normal_to_buffer+0x14>
     dc4:	df 91       	pop	r29
     dc6:	cf 91       	pop	r28
     dc8:	1f 91       	pop	r17
     dca:	0f 91       	pop	r16
     dcc:	ff 90       	pop	r15
     dce:	08 95       	ret

00000dd0 <draw_char_big_to_buffer>:
     dd0:	ef 92       	push	r14
     dd2:	ff 92       	push	r15
     dd4:	0f 93       	push	r16
     dd6:	1f 93       	push	r17
     dd8:	cf 93       	push	r28
     dda:	df 93       	push	r29
     ddc:	f8 2e       	mov	r15, r24
     dde:	e6 2e       	mov	r14, r22
     de0:	00 ee       	ldi	r16, 0xE0	; 224
     de2:	04 0f       	add	r16, r20
     de4:	80 91 00 01 	lds	r24, 0x0100	; 0x800100 <__DATA_REGION_ORIGIN__>
     de8:	81 11       	cpse	r24, r1
     dea:	03 c0       	rjmp	.+6      	; 0xdf2 <draw_char_big_to_buffer+0x22>
     dec:	c0 e0       	ldi	r28, 0x00	; 0
     dee:	d0 e0       	ldi	r29, 0x00	; 0
     df0:	02 c0       	rjmp	.+4      	; 0xdf6 <draw_char_big_to_buffer+0x26>
     df2:	c0 e0       	ldi	r28, 0x00	; 0
     df4:	d4 e0       	ldi	r29, 0x04	; 4
     df6:	10 e0       	ldi	r17, 0x00	; 0
     df8:	1c c0       	rjmp	.+56     	; 0xe32 <draw_char_big_to_buffer+0x62>
     dfa:	e0 2f       	mov	r30, r16
     dfc:	f0 e0       	ldi	r31, 0x00	; 0
     dfe:	61 2f       	mov	r22, r17
     e00:	70 e0       	ldi	r23, 0x00	; 0
     e02:	ee 0f       	add	r30, r30
     e04:	ff 1f       	adc	r31, r31
     e06:	ee 0f       	add	r30, r30
     e08:	ff 1f       	adc	r31, r31
     e0a:	ee 0f       	add	r30, r30
     e0c:	ff 1f       	adc	r31, r31
     e0e:	e6 0f       	add	r30, r22
     e10:	f7 1f       	adc	r31, r23
     e12:	e0 57       	subi	r30, 0x70	; 112
     e14:	fd 4f       	sbci	r31, 0xFD	; 253
     e16:	84 91       	lpm	r24, Z
     e18:	6e 0d       	add	r22, r14
     e1a:	71 1d       	adc	r23, r1
     e1c:	9e 01       	movw	r18, r28
     e1e:	90 e8       	ldi	r25, 0x80	; 128
     e20:	f9 9e       	mul	r15, r25
     e22:	20 0d       	add	r18, r0
     e24:	31 1d       	adc	r19, r1
     e26:	11 24       	eor	r1, r1
     e28:	62 0f       	add	r22, r18
     e2a:	73 1f       	adc	r23, r19
     e2c:	0e 94 0f 09 	call	0x121e	; 0x121e <xmem_write>
     e30:	1f 5f       	subi	r17, 0xFF	; 255
     e32:	18 30       	cpi	r17, 0x08	; 8
     e34:	10 f3       	brcs	.-60     	; 0xdfa <draw_char_big_to_buffer+0x2a>
     e36:	df 91       	pop	r29
     e38:	cf 91       	pop	r28
     e3a:	1f 91       	pop	r17
     e3c:	0f 91       	pop	r16
     e3e:	ff 90       	pop	r15
     e40:	ef 90       	pop	r14
     e42:	08 95       	ret

00000e44 <draw_string_big_to_buffer>:
     e44:	ff 92       	push	r15
     e46:	0f 93       	push	r16
     e48:	1f 93       	push	r17
     e4a:	cf 93       	push	r28
     e4c:	df 93       	push	r29
     e4e:	f8 2e       	mov	r15, r24
     e50:	d6 2f       	mov	r29, r22
     e52:	8a 01       	movw	r16, r20
     e54:	c0 e0       	ldi	r28, 0x00	; 0
     e56:	0a c0       	rjmp	.+20     	; 0xe6c <draw_string_big_to_buffer+0x28>
     e58:	6c 2f       	mov	r22, r28
     e5a:	66 0f       	add	r22, r22
     e5c:	66 0f       	add	r22, r22
     e5e:	66 0f       	add	r22, r22
     e60:	6c 1b       	sub	r22, r28
     e62:	6d 0f       	add	r22, r29
     e64:	8f 2d       	mov	r24, r15
     e66:	0e 94 e8 06 	call	0xdd0	; 0xdd0 <draw_char_big_to_buffer>
     e6a:	cf 5f       	subi	r28, 0xFF	; 255
     e6c:	f8 01       	movw	r30, r16
     e6e:	ec 0f       	add	r30, r28
     e70:	f1 1d       	adc	r31, r1
     e72:	40 81       	ld	r20, Z
     e74:	41 11       	cpse	r20, r1
     e76:	f0 cf       	rjmp	.-32     	; 0xe58 <draw_string_big_to_buffer+0x14>
     e78:	df 91       	pop	r29
     e7a:	cf 91       	pop	r28
     e7c:	1f 91       	pop	r17
     e7e:	0f 91       	pop	r16
     e80:	ff 90       	pop	r15
     e82:	08 95       	ret

00000e84 <draw_raquette_to_buffer>:
     e84:	bf 92       	push	r11
     e86:	cf 92       	push	r12
     e88:	df 92       	push	r13
     e8a:	ef 92       	push	r14
     e8c:	ff 92       	push	r15
     e8e:	0f 93       	push	r16
     e90:	1f 93       	push	r17
     e92:	cf 93       	push	r28
     e94:	df 93       	push	r29
     e96:	e8 2e       	mov	r14, r24
     e98:	b6 2e       	mov	r11, r22
     e9a:	80 91 00 01 	lds	r24, 0x0100	; 0x800100 <__DATA_REGION_ORIGIN__>
     e9e:	81 11       	cpse	r24, r1
     ea0:	03 c0       	rjmp	.+6      	; 0xea8 <draw_raquette_to_buffer+0x24>
     ea2:	c1 2c       	mov	r12, r1
     ea4:	d1 2c       	mov	r13, r1
     ea6:	04 c0       	rjmp	.+8      	; 0xeb0 <draw_raquette_to_buffer+0x2c>
     ea8:	c1 2c       	mov	r12, r1
     eaa:	68 94       	set
     eac:	dd 24       	eor	r13, r13
     eae:	d2 f8       	bld	r13, 2
     eb0:	00 e0       	ldi	r16, 0x00	; 0
     eb2:	10 e0       	ldi	r17, 0x00	; 0
     eb4:	29 c0       	rjmp	.+82     	; 0xf08 <draw_raquette_to_buffer+0x84>
     eb6:	e6 e1       	ldi	r30, 0x16	; 22
     eb8:	f0 e0       	ldi	r31, 0x00	; 0
     eba:	ec 1b       	sub	r30, r28
     ebc:	fd 0b       	sbc	r31, r29
     ebe:	27 e1       	ldi	r18, 0x17	; 23
     ec0:	20 9f       	mul	r18, r16
     ec2:	c0 01       	movw	r24, r0
     ec4:	21 9f       	mul	r18, r17
     ec6:	90 0d       	add	r25, r0
     ec8:	11 24       	eor	r1, r1
     eca:	e8 0f       	add	r30, r24
     ecc:	f9 1f       	adc	r31, r25
     ece:	e0 59       	subi	r30, 0x90	; 144
     ed0:	ff 4f       	sbci	r31, 0xFF	; 255
     ed2:	84 91       	lpm	r24, Z
     ed4:	b8 01       	movw	r22, r16
     ed6:	6e 0d       	add	r22, r14
     ed8:	71 1d       	adc	r23, r1
     eda:	76 95       	lsr	r23
     edc:	76 2f       	mov	r23, r22
     ede:	66 27       	eor	r22, r22
     ee0:	77 95       	ror	r23
     ee2:	67 95       	ror	r22
     ee4:	6c 0d       	add	r22, r12
     ee6:	7d 1d       	adc	r23, r13
     ee8:	9e 01       	movw	r18, r28
     eea:	2b 0d       	add	r18, r11
     eec:	31 1d       	adc	r19, r1
     eee:	62 0f       	add	r22, r18
     ef0:	73 1f       	adc	r23, r19
     ef2:	0e 94 0f 09 	call	0x121e	; 0x121e <xmem_write>
     ef6:	21 96       	adiw	r28, 0x01	; 1
     ef8:	02 c0       	rjmp	.+4      	; 0xefe <draw_raquette_to_buffer+0x7a>
     efa:	c0 e0       	ldi	r28, 0x00	; 0
     efc:	d0 e0       	ldi	r29, 0x00	; 0
     efe:	c7 31       	cpi	r28, 0x17	; 23
     f00:	d1 05       	cpc	r29, r1
     f02:	cc f2       	brlt	.-78     	; 0xeb6 <draw_raquette_to_buffer+0x32>
     f04:	0f 5f       	subi	r16, 0xFF	; 255
     f06:	1f 4f       	sbci	r17, 0xFF	; 255
     f08:	03 30       	cpi	r16, 0x03	; 3
     f0a:	11 05       	cpc	r17, r1
     f0c:	b4 f3       	brlt	.-20     	; 0xefa <draw_raquette_to_buffer+0x76>
     f0e:	f1 2c       	mov	r15, r1
     f10:	e7 01       	movw	r28, r14
     f12:	d6 95       	lsr	r29
     f14:	dc 2f       	mov	r29, r28
     f16:	cc 27       	eor	r28, r28
     f18:	d7 95       	ror	r29
     f1a:	c7 95       	ror	r28
     f1c:	cc 0d       	add	r28, r12
     f1e:	dd 1d       	adc	r29, r13
     f20:	cb 0d       	add	r28, r11
     f22:	d1 1d       	adc	r29, r1
     f24:	be 01       	movw	r22, r28
     f26:	62 5e       	subi	r22, 0xE2	; 226
     f28:	7f 4f       	sbci	r23, 0xFF	; 255
     f2a:	8e e0       	ldi	r24, 0x0E	; 14
     f2c:	0e 94 0f 09 	call	0x121e	; 0x121e <xmem_write>
     f30:	be 01       	movw	r22, r28
     f32:	61 5e       	subi	r22, 0xE1	; 225
     f34:	7f 4f       	sbci	r23, 0xFF	; 255
     f36:	8f e1       	ldi	r24, 0x1F	; 31
     f38:	0e 94 0f 09 	call	0x121e	; 0x121e <xmem_write>
     f3c:	be 01       	movw	r22, r28
     f3e:	60 5e       	subi	r22, 0xE0	; 224
     f40:	7f 4f       	sbci	r23, 0xFF	; 255
     f42:	8f e1       	ldi	r24, 0x1F	; 31
     f44:	0e 94 0f 09 	call	0x121e	; 0x121e <xmem_write>
     f48:	be 01       	movw	r22, r28
     f4a:	6f 5d       	subi	r22, 0xDF	; 223
     f4c:	7f 4f       	sbci	r23, 0xFF	; 255
     f4e:	8f e1       	ldi	r24, 0x1F	; 31
     f50:	0e 94 0f 09 	call	0x121e	; 0x121e <xmem_write>
     f54:	be 01       	movw	r22, r28
     f56:	6e 5d       	subi	r22, 0xDE	; 222
     f58:	7f 4f       	sbci	r23, 0xFF	; 255
     f5a:	8e e0       	ldi	r24, 0x0E	; 14
     f5c:	0e 94 0f 09 	call	0x121e	; 0x121e <xmem_write>
     f60:	00 e0       	ldi	r16, 0x00	; 0
     f62:	10 e0       	ldi	r17, 0x00	; 0
     f64:	27 c0       	rjmp	.+78     	; 0xfb4 <draw_raquette_to_buffer+0x130>
     f66:	87 e1       	ldi	r24, 0x17	; 23
     f68:	80 9f       	mul	r24, r16
     f6a:	f0 01       	movw	r30, r0
     f6c:	81 9f       	mul	r24, r17
     f6e:	f0 0d       	add	r31, r0
     f70:	11 24       	eor	r1, r1
     f72:	ec 0f       	add	r30, r28
     f74:	fd 1f       	adc	r31, r29
     f76:	e0 59       	subi	r30, 0x90	; 144
     f78:	ff 4f       	sbci	r31, 0xFF	; 255
     f7a:	84 91       	lpm	r24, Z
     f7c:	b8 01       	movw	r22, r16
     f7e:	6e 0d       	add	r22, r14
     f80:	7f 1d       	adc	r23, r15
     f82:	76 95       	lsr	r23
     f84:	76 2f       	mov	r23, r22
     f86:	66 27       	eor	r22, r22
     f88:	77 95       	ror	r23
     f8a:	67 95       	ror	r22
     f8c:	6c 0d       	add	r22, r12
     f8e:	7d 1d       	adc	r23, r13
     f90:	9e 01       	movw	r18, r28
     f92:	2b 0d       	add	r18, r11
     f94:	31 1d       	adc	r19, r1
     f96:	62 0f       	add	r22, r18
     f98:	73 1f       	adc	r23, r19
     f9a:	63 5d       	subi	r22, 0xD3	; 211
     f9c:	7f 4f       	sbci	r23, 0xFF	; 255
     f9e:	0e 94 0f 09 	call	0x121e	; 0x121e <xmem_write>
     fa2:	21 96       	adiw	r28, 0x01	; 1
     fa4:	02 c0       	rjmp	.+4      	; 0xfaa <draw_raquette_to_buffer+0x126>
     fa6:	c0 e0       	ldi	r28, 0x00	; 0
     fa8:	d0 e0       	ldi	r29, 0x00	; 0
     faa:	c7 31       	cpi	r28, 0x17	; 23
     fac:	d1 05       	cpc	r29, r1
     fae:	dc f2       	brlt	.-74     	; 0xf66 <draw_raquette_to_buffer+0xe2>
     fb0:	0f 5f       	subi	r16, 0xFF	; 255
     fb2:	1f 4f       	sbci	r17, 0xFF	; 255
     fb4:	03 30       	cpi	r16, 0x03	; 3
     fb6:	11 05       	cpc	r17, r1
     fb8:	b4 f3       	brlt	.-20     	; 0xfa6 <draw_raquette_to_buffer+0x122>
     fba:	df 91       	pop	r29
     fbc:	cf 91       	pop	r28
     fbe:	1f 91       	pop	r17
     fc0:	0f 91       	pop	r16
     fc2:	ff 90       	pop	r15
     fc4:	ef 90       	pop	r14
     fc6:	df 90       	pop	r13
     fc8:	cf 90       	pop	r12
     fca:	bf 90       	pop	r11
     fcc:	08 95       	ret

00000fce <draw_menu_to_buffer>:
     fce:	45 e3       	ldi	r20, 0x35	; 53
     fd0:	52 e0       	ldi	r21, 0x02	; 2
     fd2:	60 e0       	ldi	r22, 0x00	; 0
     fd4:	80 e0       	ldi	r24, 0x00	; 0
     fd6:	0e 94 22 07 	call	0xe44	; 0xe44 <draw_string_big_to_buffer>
     fda:	44 e4       	ldi	r20, 0x44	; 68
     fdc:	52 e0       	ldi	r21, 0x02	; 2
     fde:	60 e0       	ldi	r22, 0x00	; 0
     fe0:	82 e0       	ldi	r24, 0x02	; 2
     fe2:	0e 94 c8 06 	call	0xd90	; 0xd90 <draw_string_normal_to_buffer>
     fe6:	4b e4       	ldi	r20, 0x4B	; 75
     fe8:	52 e0       	ldi	r21, 0x02	; 2
     fea:	64 e3       	ldi	r22, 0x34	; 52
     fec:	82 e0       	ldi	r24, 0x02	; 2
     fee:	0e 94 c8 06 	call	0xd90	; 0xd90 <draw_string_normal_to_buffer>
     ff2:	45 e5       	ldi	r20, 0x55	; 85
     ff4:	52 e0       	ldi	r21, 0x02	; 2
     ff6:	60 e0       	ldi	r22, 0x00	; 0
     ff8:	83 e0       	ldi	r24, 0x03	; 3
     ffa:	0e 94 c8 06 	call	0xd90	; 0xd90 <draw_string_normal_to_buffer>
     ffe:	80 91 6f 02 	lds	r24, 0x026F	; 0x80026f <main_menu>
    1002:	81 11       	cpse	r24, r1
    1004:	06 c0       	rjmp	.+12     	; 0x1012 <draw_menu_to_buffer+0x44>
    1006:	4e e3       	ldi	r20, 0x3E	; 62
    1008:	60 e0       	ldi	r22, 0x00	; 0
    100a:	82 e0       	ldi	r24, 0x02	; 2
    100c:	0e 94 8d 06 	call	0xd1a	; 0xd1a <draw_char_normal_to_buffer>
    1010:	0d c0       	rjmp	.+26     	; 0x102c <draw_menu_to_buffer+0x5e>
    1012:	81 30       	cpi	r24, 0x01	; 1
    1014:	31 f4       	brne	.+12     	; 0x1022 <draw_menu_to_buffer+0x54>
    1016:	4e e3       	ldi	r20, 0x3E	; 62
    1018:	60 e0       	ldi	r22, 0x00	; 0
    101a:	83 e0       	ldi	r24, 0x03	; 3
    101c:	0e 94 8d 06 	call	0xd1a	; 0xd1a <draw_char_normal_to_buffer>
    1020:	05 c0       	rjmp	.+10     	; 0x102c <draw_menu_to_buffer+0x5e>
    1022:	4e e3       	ldi	r20, 0x3E	; 62
    1024:	64 e3       	ldi	r22, 0x34	; 52
    1026:	82 e0       	ldi	r24, 0x02	; 2
    1028:	0e 94 8d 06 	call	0xd1a	; 0xd1a <draw_char_normal_to_buffer>
    102c:	6c e1       	ldi	r22, 0x1C	; 28
    102e:	85 e0       	ldi	r24, 0x05	; 5
    1030:	0e 94 42 07 	call	0xe84	; 0xe84 <draw_raquette_to_buffer>
    1034:	0e 94 87 06 	call	0xd0e	; 0xd0e <request_buffer_swap>
    1038:	08 95       	ret

0000103a <oled_goto>:
    103a:	cf 93       	push	r28
    103c:	df 93       	push	r29
    103e:	d8 2f       	mov	r29, r24
    1040:	c6 2f       	mov	r28, r22
    1042:	88 b3       	in	r24, 0x18	; 24
    1044:	8d 7f       	andi	r24, 0xFD	; 253
    1046:	88 bb       	out	0x18, r24	; 24
    1048:	82 e0       	ldi	r24, 0x02	; 2
    104a:	0e 94 90 08 	call	0x1120	; 0x1120 <spi_select_slave>
    104e:	8d 2f       	mov	r24, r29
    1050:	8f 70       	andi	r24, 0x0F	; 15
    1052:	80 6b       	ori	r24, 0xB0	; 176
    1054:	0e 94 be 08 	call	0x117c	; 0x117c <spi_write_byte>
    1058:	0e 94 c2 08 	call	0x1184	; 0x1184 <spi_read_byte>
    105c:	8c 2f       	mov	r24, r28
    105e:	8f 70       	andi	r24, 0x0F	; 15
    1060:	0e 94 be 08 	call	0x117c	; 0x117c <spi_write_byte>
    1064:	0e 94 c2 08 	call	0x1184	; 0x1184 <spi_read_byte>
    1068:	8c 2f       	mov	r24, r28
    106a:	82 95       	swap	r24
    106c:	8f 70       	andi	r24, 0x0F	; 15
    106e:	80 61       	ori	r24, 0x10	; 16
    1070:	0e 94 be 08 	call	0x117c	; 0x117c <spi_write_byte>
    1074:	0e 94 c2 08 	call	0x1184	; 0x1184 <spi_read_byte>
    1078:	83 e0       	ldi	r24, 0x03	; 3
    107a:	0e 94 90 08 	call	0x1120	; 0x1120 <spi_select_slave>
    107e:	df 91       	pop	r29
    1080:	cf 91       	pop	r28
    1082:	08 95       	ret

00001084 <oled_set_val>:
    1084:	cf 93       	push	r28
    1086:	c8 2f       	mov	r28, r24
    1088:	82 e0       	ldi	r24, 0x02	; 2
    108a:	0e 94 90 08 	call	0x1120	; 0x1120 <spi_select_slave>
    108e:	88 b3       	in	r24, 0x18	; 24
    1090:	82 60       	ori	r24, 0x02	; 2
    1092:	88 bb       	out	0x18, r24	; 24
    1094:	8c 2f       	mov	r24, r28
    1096:	0e 94 be 08 	call	0x117c	; 0x117c <spi_write_byte>
    109a:	0e 94 c2 08 	call	0x1184	; 0x1184 <spi_read_byte>
    109e:	83 e0       	ldi	r24, 0x03	; 3
    10a0:	0e 94 90 08 	call	0x1120	; 0x1120 <spi_select_slave>
    10a4:	cf 91       	pop	r28
    10a6:	08 95       	ret

000010a8 <update_screen>:
    10a8:	1f 93       	push	r17
    10aa:	cf 93       	push	r28
    10ac:	df 93       	push	r29
    10ae:	80 91 66 02 	lds	r24, 0x0266	; 0x800266 <screen_update_needed>
    10b2:	81 11       	cpse	r24, r1
    10b4:	22 c0       	rjmp	.+68     	; 0x10fa <update_screen+0x52>
    10b6:	27 c0       	rjmp	.+78     	; 0x1106 <update_screen+0x5e>
    10b8:	60 e0       	ldi	r22, 0x00	; 0
    10ba:	81 2f       	mov	r24, r17
    10bc:	0e 94 1d 08 	call	0x103a	; 0x103a <oled_goto>
    10c0:	c0 e0       	ldi	r28, 0x00	; 0
    10c2:	d0 e0       	ldi	r29, 0x00	; 0
    10c4:	15 c0       	rjmp	.+42     	; 0x10f0 <update_screen+0x48>
    10c6:	80 91 6c 02 	lds	r24, 0x026C	; 0x80026c <front_buf>
    10ca:	81 11       	cpse	r24, r1
    10cc:	03 c0       	rjmp	.+6      	; 0x10d4 <update_screen+0x2c>
    10ce:	80 e0       	ldi	r24, 0x00	; 0
    10d0:	90 e0       	ldi	r25, 0x00	; 0
    10d2:	02 c0       	rjmp	.+4      	; 0x10d8 <update_screen+0x30>
    10d4:	80 e0       	ldi	r24, 0x00	; 0
    10d6:	94 e0       	ldi	r25, 0x04	; 4
    10d8:	20 e8       	ldi	r18, 0x80	; 128
    10da:	12 9f       	mul	r17, r18
    10dc:	80 0d       	add	r24, r0
    10de:	91 1d       	adc	r25, r1
    10e0:	11 24       	eor	r1, r1
    10e2:	8c 0f       	add	r24, r28
    10e4:	9d 1f       	adc	r25, r29
    10e6:	0e 94 13 09 	call	0x1226	; 0x1226 <xmem_read>
    10ea:	0e 94 42 08 	call	0x1084	; 0x1084 <oled_set_val>
    10ee:	21 96       	adiw	r28, 0x01	; 1
    10f0:	c0 38       	cpi	r28, 0x80	; 128
    10f2:	d1 05       	cpc	r29, r1
    10f4:	40 f3       	brcs	.-48     	; 0x10c6 <update_screen+0x1e>
    10f6:	1f 5f       	subi	r17, 0xFF	; 255
    10f8:	01 c0       	rjmp	.+2      	; 0x10fc <update_screen+0x54>
    10fa:	10 e0       	ldi	r17, 0x00	; 0
    10fc:	18 30       	cpi	r17, 0x08	; 8
    10fe:	e0 f2       	brcs	.-72     	; 0x10b8 <update_screen+0x10>
    1100:	10 92 66 02 	sts	0x0266, r1	; 0x800266 <screen_update_needed>
    1104:	81 e0       	ldi	r24, 0x01	; 1
    1106:	df 91       	pop	r29
    1108:	cf 91       	pop	r28
    110a:	1f 91       	pop	r17
    110c:	08 95       	ret

0000110e <spi_init>:
    110e:	87 b3       	in	r24, 0x17	; 23
    1110:	8c 6b       	ori	r24, 0xBC	; 188
    1112:	87 bb       	out	0x17, r24	; 23
    1114:	87 b3       	in	r24, 0x17	; 23
    1116:	8f 7b       	andi	r24, 0xBF	; 191
    1118:	87 bb       	out	0x17, r24	; 23
    111a:	80 e5       	ldi	r24, 0x50	; 80
    111c:	8d b9       	out	0x0d, r24	; 13
    111e:	08 95       	ret

00001120 <spi_select_slave>:
    1120:	81 11       	cpse	r24, r1
    1122:	0a c0       	rjmp	.+20     	; 0x1138 <spi_select_slave+0x18>
    1124:	88 b3       	in	r24, 0x18	; 24
    1126:	87 7f       	andi	r24, 0xF7	; 247
    1128:	88 bb       	out	0x18, r24	; 24
    112a:	88 b3       	in	r24, 0x18	; 24
    112c:	84 60       	ori	r24, 0x04	; 4
    112e:	88 bb       	out	0x18, r24	; 24
    1130:	88 b3       	in	r24, 0x18	; 24
    1132:	80 61       	ori	r24, 0x10	; 16
    1134:	88 bb       	out	0x18, r24	; 24
    1136:	08 95       	ret
    1138:	81 30       	cpi	r24, 0x01	; 1
    113a:	51 f4       	brne	.+20     	; 0x1150 <spi_select_slave+0x30>
    113c:	88 b3       	in	r24, 0x18	; 24
    113e:	8f 7e       	andi	r24, 0xEF	; 239
    1140:	88 bb       	out	0x18, r24	; 24
    1142:	88 b3       	in	r24, 0x18	; 24
    1144:	84 60       	ori	r24, 0x04	; 4
    1146:	88 bb       	out	0x18, r24	; 24
    1148:	88 b3       	in	r24, 0x18	; 24
    114a:	88 60       	ori	r24, 0x08	; 8
    114c:	88 bb       	out	0x18, r24	; 24
    114e:	08 95       	ret
    1150:	82 30       	cpi	r24, 0x02	; 2
    1152:	51 f4       	brne	.+20     	; 0x1168 <spi_select_slave+0x48>
    1154:	88 b3       	in	r24, 0x18	; 24
    1156:	8b 7f       	andi	r24, 0xFB	; 251
    1158:	88 bb       	out	0x18, r24	; 24
    115a:	88 b3       	in	r24, 0x18	; 24
    115c:	88 60       	ori	r24, 0x08	; 8
    115e:	88 bb       	out	0x18, r24	; 24
    1160:	88 b3       	in	r24, 0x18	; 24
    1162:	80 61       	ori	r24, 0x10	; 16
    1164:	88 bb       	out	0x18, r24	; 24
    1166:	08 95       	ret
    1168:	88 b3       	in	r24, 0x18	; 24
    116a:	88 60       	ori	r24, 0x08	; 8
    116c:	88 bb       	out	0x18, r24	; 24
    116e:	88 b3       	in	r24, 0x18	; 24
    1170:	84 60       	ori	r24, 0x04	; 4
    1172:	88 bb       	out	0x18, r24	; 24
    1174:	88 b3       	in	r24, 0x18	; 24
    1176:	80 61       	ori	r24, 0x10	; 16
    1178:	88 bb       	out	0x18, r24	; 24
    117a:	08 95       	ret

0000117c <spi_write_byte>:
    117c:	8f b9       	out	0x0f, r24	; 15
    117e:	77 9b       	sbis	0x0e, 7	; 14
    1180:	fe cf       	rjmp	.-4      	; 0x117e <spi_write_byte+0x2>
    1182:	08 95       	ret

00001184 <spi_read_byte>:
    1184:	77 9b       	sbis	0x0e, 7	; 14
    1186:	fe cf       	rjmp	.-4      	; 0x1184 <spi_read_byte>
    1188:	8f b1       	in	r24, 0x0f	; 15
    118a:	08 95       	ret

0000118c <__vector_19>:
    118c:	1f 92       	push	r1
    118e:	0f 92       	push	r0
    1190:	0f b6       	in	r0, 0x3f	; 63
    1192:	0f 92       	push	r0
    1194:	11 24       	eor	r1, r1
    1196:	8f 93       	push	r24
    1198:	8c b1       	in	r24, 0x0c	; 12
    119a:	80 93 71 02 	sts	0x0271, r24	; 0x800271 <uart_rx_data>
    119e:	81 e0       	ldi	r24, 0x01	; 1
    11a0:	80 93 6d 02 	sts	0x026D, r24	; 0x80026d <uart_rx_flag>
    11a4:	8f 91       	pop	r24
    11a6:	0f 90       	pop	r0
    11a8:	0f be       	out	0x3f, r0	; 63
    11aa:	0f 90       	pop	r0
    11ac:	1f 90       	pop	r1
    11ae:	18 95       	reti

000011b0 <uart_send_byte>:
    11b0:	5d 9b       	sbis	0x0b, 5	; 11
    11b2:	fe cf       	rjmp	.-4      	; 0x11b0 <uart_send_byte>
    11b4:	8c b9       	out	0x0c, r24	; 12
    11b6:	08 95       	ret

000011b8 <uart_putchar>:
    11b8:	cf 93       	push	r28
    11ba:	c8 2f       	mov	r28, r24
    11bc:	8a 30       	cpi	r24, 0x0A	; 10
    11be:	19 f4       	brne	.+6      	; 0x11c6 <uart_putchar+0xe>
    11c0:	8d e0       	ldi	r24, 0x0D	; 13
    11c2:	0e 94 d8 08 	call	0x11b0	; 0x11b0 <uart_send_byte>
    11c6:	8c 2f       	mov	r24, r28
    11c8:	0e 94 d8 08 	call	0x11b0	; 0x11b0 <uart_send_byte>
    11cc:	80 e0       	ldi	r24, 0x00	; 0
    11ce:	90 e0       	ldi	r25, 0x00	; 0
    11d0:	cf 91       	pop	r28
    11d2:	08 95       	ret

000011d4 <uart_printf_init>:
    11d4:	81 e0       	ldi	r24, 0x01	; 1
    11d6:	91 e0       	ldi	r25, 0x01	; 1
    11d8:	90 93 75 02 	sts	0x0275, r25	; 0x800275 <__iob+0x3>
    11dc:	80 93 74 02 	sts	0x0274, r24	; 0x800274 <__iob+0x2>
    11e0:	08 95       	ret

000011e2 <uart_init>:
    11e2:	9b 01       	movw	r18, r22
    11e4:	ac 01       	movw	r20, r24
    11e6:	60 e0       	ldi	r22, 0x00	; 0
    11e8:	70 eb       	ldi	r23, 0xB0	; 176
    11ea:	84 e0       	ldi	r24, 0x04	; 4
    11ec:	90 e0       	ldi	r25, 0x00	; 0
    11ee:	0e 94 17 09 	call	0x122e	; 0x122e <__udivmodsi4>
    11f2:	21 50       	subi	r18, 0x01	; 1
    11f4:	31 09       	sbc	r19, r1
    11f6:	30 bd       	out	0x20, r19	; 32
    11f8:	29 b9       	out	0x09, r18	; 9
    11fa:	88 e9       	ldi	r24, 0x98	; 152
    11fc:	8a b9       	out	0x0a, r24	; 10
    11fe:	86 e8       	ldi	r24, 0x86	; 134
    1200:	80 bd       	out	0x20, r24	; 32
    1202:	0e 94 ea 08 	call	0x11d4	; 0x11d4 <uart_printf_init>
    1206:	8a e0       	ldi	r24, 0x0A	; 10
    1208:	90 e0       	ldi	r25, 0x00	; 0
    120a:	0e 94 39 09 	call	0x1272	; 0x1272 <putchar>
    120e:	08 95       	ret

00001210 <xmem_init>:
    1210:	85 b7       	in	r24, 0x35	; 53
    1212:	80 68       	ori	r24, 0x80	; 128
    1214:	85 bf       	out	0x35, r24	; 53
    1216:	80 b7       	in	r24, 0x30	; 48
    1218:	88 60       	ori	r24, 0x08	; 8
    121a:	80 bf       	out	0x30, r24	; 48
    121c:	08 95       	ret

0000121e <xmem_write>:
    121e:	fb 01       	movw	r30, r22
    1220:	fc 5e       	subi	r31, 0xEC	; 236
    1222:	80 83       	st	Z, r24
    1224:	08 95       	ret

00001226 <xmem_read>:
    1226:	9c 5e       	subi	r25, 0xEC	; 236
    1228:	fc 01       	movw	r30, r24
    122a:	80 81       	ld	r24, Z
    122c:	08 95       	ret

0000122e <__udivmodsi4>:
    122e:	a1 e2       	ldi	r26, 0x21	; 33
    1230:	1a 2e       	mov	r1, r26
    1232:	aa 1b       	sub	r26, r26
    1234:	bb 1b       	sub	r27, r27
    1236:	fd 01       	movw	r30, r26
    1238:	0d c0       	rjmp	.+26     	; 0x1254 <__udivmodsi4_ep>

0000123a <__udivmodsi4_loop>:
    123a:	aa 1f       	adc	r26, r26
    123c:	bb 1f       	adc	r27, r27
    123e:	ee 1f       	adc	r30, r30
    1240:	ff 1f       	adc	r31, r31
    1242:	a2 17       	cp	r26, r18
    1244:	b3 07       	cpc	r27, r19
    1246:	e4 07       	cpc	r30, r20
    1248:	f5 07       	cpc	r31, r21
    124a:	20 f0       	brcs	.+8      	; 0x1254 <__udivmodsi4_ep>
    124c:	a2 1b       	sub	r26, r18
    124e:	b3 0b       	sbc	r27, r19
    1250:	e4 0b       	sbc	r30, r20
    1252:	f5 0b       	sbc	r31, r21

00001254 <__udivmodsi4_ep>:
    1254:	66 1f       	adc	r22, r22
    1256:	77 1f       	adc	r23, r23
    1258:	88 1f       	adc	r24, r24
    125a:	99 1f       	adc	r25, r25
    125c:	1a 94       	dec	r1
    125e:	69 f7       	brne	.-38     	; 0x123a <__udivmodsi4_loop>
    1260:	60 95       	com	r22
    1262:	70 95       	com	r23
    1264:	80 95       	com	r24
    1266:	90 95       	com	r25
    1268:	9b 01       	movw	r18, r22
    126a:	ac 01       	movw	r20, r24
    126c:	bd 01       	movw	r22, r26
    126e:	cf 01       	movw	r24, r30
    1270:	08 95       	ret

00001272 <putchar>:
    1272:	60 91 74 02 	lds	r22, 0x0274	; 0x800274 <__iob+0x2>
    1276:	70 91 75 02 	lds	r23, 0x0275	; 0x800275 <__iob+0x3>
    127a:	0e 94 40 09 	call	0x1280	; 0x1280 <fputc>
    127e:	08 95       	ret

00001280 <fputc>:
    1280:	0f 93       	push	r16
    1282:	1f 93       	push	r17
    1284:	cf 93       	push	r28
    1286:	df 93       	push	r29
    1288:	fb 01       	movw	r30, r22
    128a:	23 81       	ldd	r18, Z+3	; 0x03
    128c:	21 fd       	sbrc	r18, 1
    128e:	03 c0       	rjmp	.+6      	; 0x1296 <fputc+0x16>
    1290:	8f ef       	ldi	r24, 0xFF	; 255
    1292:	9f ef       	ldi	r25, 0xFF	; 255
    1294:	2c c0       	rjmp	.+88     	; 0x12ee <fputc+0x6e>
    1296:	22 ff       	sbrs	r18, 2
    1298:	16 c0       	rjmp	.+44     	; 0x12c6 <fputc+0x46>
    129a:	46 81       	ldd	r20, Z+6	; 0x06
    129c:	57 81       	ldd	r21, Z+7	; 0x07
    129e:	24 81       	ldd	r18, Z+4	; 0x04
    12a0:	35 81       	ldd	r19, Z+5	; 0x05
    12a2:	42 17       	cp	r20, r18
    12a4:	53 07       	cpc	r21, r19
    12a6:	44 f4       	brge	.+16     	; 0x12b8 <fputc+0x38>
    12a8:	a0 81       	ld	r26, Z
    12aa:	b1 81       	ldd	r27, Z+1	; 0x01
    12ac:	9d 01       	movw	r18, r26
    12ae:	2f 5f       	subi	r18, 0xFF	; 255
    12b0:	3f 4f       	sbci	r19, 0xFF	; 255
    12b2:	31 83       	std	Z+1, r19	; 0x01
    12b4:	20 83       	st	Z, r18
    12b6:	8c 93       	st	X, r24
    12b8:	26 81       	ldd	r18, Z+6	; 0x06
    12ba:	37 81       	ldd	r19, Z+7	; 0x07
    12bc:	2f 5f       	subi	r18, 0xFF	; 255
    12be:	3f 4f       	sbci	r19, 0xFF	; 255
    12c0:	37 83       	std	Z+7, r19	; 0x07
    12c2:	26 83       	std	Z+6, r18	; 0x06
    12c4:	14 c0       	rjmp	.+40     	; 0x12ee <fputc+0x6e>
    12c6:	8b 01       	movw	r16, r22
    12c8:	ec 01       	movw	r28, r24
    12ca:	fb 01       	movw	r30, r22
    12cc:	00 84       	ldd	r0, Z+8	; 0x08
    12ce:	f1 85       	ldd	r31, Z+9	; 0x09
    12d0:	e0 2d       	mov	r30, r0
    12d2:	09 95       	icall
    12d4:	89 2b       	or	r24, r25
    12d6:	e1 f6       	brne	.-72     	; 0x1290 <fputc+0x10>
    12d8:	d8 01       	movw	r26, r16
    12da:	16 96       	adiw	r26, 0x06	; 6
    12dc:	8d 91       	ld	r24, X+
    12de:	9c 91       	ld	r25, X
    12e0:	17 97       	sbiw	r26, 0x07	; 7
    12e2:	01 96       	adiw	r24, 0x01	; 1
    12e4:	17 96       	adiw	r26, 0x07	; 7
    12e6:	9c 93       	st	X, r25
    12e8:	8e 93       	st	-X, r24
    12ea:	16 97       	sbiw	r26, 0x06	; 6
    12ec:	ce 01       	movw	r24, r28
    12ee:	df 91       	pop	r29
    12f0:	cf 91       	pop	r28
    12f2:	1f 91       	pop	r17
    12f4:	0f 91       	pop	r16
    12f6:	08 95       	ret

000012f8 <_exit>:
    12f8:	f8 94       	cli

000012fa <__stop_program>:
    12fa:	ff cf       	rjmp	.-2      	; 0x12fa <__stop_program>
