
pingpong.elf:     file format elf32-avr

Sections:
Idx Name          Size      VMA       LMA       File off  Algn
  0 .data         000001c4  00800100  00001806  0000189a  2**0
                  CONTENTS, ALLOC, LOAD, DATA
  1 .text         00001806  00000000  00000000  00000094  2**1
                  CONTENTS, ALLOC, LOAD, READONLY, CODE
  2 .bss          0000001c  008002c4  008002c4  00001a5e  2**0
                  ALLOC
  3 .comment      0000005c  00000000  00000000  00001a5e  2**0
                  CONTENTS, READONLY
  4 .note.gnu.avr.deviceinfo 0000003c  00000000  00000000  00001abc  2**2
                  CONTENTS, READONLY
  5 .debug_aranges 00000278  00000000  00000000  00001af8  2**0
                  CONTENTS, READONLY, DEBUGGING
  6 .debug_info   00003326  00000000  00000000  00001d70  2**0
                  CONTENTS, READONLY, DEBUGGING
  7 .debug_abbrev 0000125c  00000000  00000000  00005096  2**0
                  CONTENTS, READONLY, DEBUGGING
  8 .debug_line   000018da  00000000  00000000  000062f2  2**0
                  CONTENTS, READONLY, DEBUGGING
  9 .debug_frame  000007d0  00000000  00000000  00007bcc  2**2
                  CONTENTS, READONLY, DEBUGGING
 10 .debug_str    00000aa3  00000000  00000000  0000839c  2**0
                  CONTENTS, READONLY, DEBUGGING
 11 .debug_loc    000020bc  00000000  00000000  00008e3f  2**0
                  CONTENTS, READONLY, DEBUGGING
 12 .debug_ranges 00000270  00000000  00000000  0000aefb  2**0
                  CONTENTS, READONLY, DEBUGGING

Disassembly of section .text:

00000000 <__vectors>:
       0:	0c 94 c4 02 	jmp	0x588	; 0x588 <__ctors_end>
       4:	0c 94 e1 02 	jmp	0x5c2	; 0x5c2 <__bad_interrupt>
       8:	0c 94 e1 02 	jmp	0x5c2	; 0x5c2 <__bad_interrupt>
       c:	0c 94 e1 02 	jmp	0x5c2	; 0x5c2 <__bad_interrupt>
      10:	0c 94 e1 02 	jmp	0x5c2	; 0x5c2 <__bad_interrupt>
      14:	0c 94 e1 02 	jmp	0x5c2	; 0x5c2 <__bad_interrupt>
      18:	0c 94 e1 02 	jmp	0x5c2	; 0x5c2 <__bad_interrupt>
      1c:	0c 94 60 07 	jmp	0xec0	; 0xec0 <__vector_7>
      20:	0c 94 e1 02 	jmp	0x5c2	; 0x5c2 <__bad_interrupt>
      24:	0c 94 e1 02 	jmp	0x5c2	; 0x5c2 <__bad_interrupt>
      28:	0c 94 e1 02 	jmp	0x5c2	; 0x5c2 <__bad_interrupt>
      2c:	0c 94 e1 02 	jmp	0x5c2	; 0x5c2 <__bad_interrupt>
      30:	0c 94 e1 02 	jmp	0x5c2	; 0x5c2 <__bad_interrupt>
      34:	0c 94 e1 02 	jmp	0x5c2	; 0x5c2 <__bad_interrupt>
      38:	0c 94 e1 02 	jmp	0x5c2	; 0x5c2 <__bad_interrupt>
      3c:	0c 94 e1 02 	jmp	0x5c2	; 0x5c2 <__bad_interrupt>
      40:	0c 94 e1 02 	jmp	0x5c2	; 0x5c2 <__bad_interrupt>
      44:	0c 94 e1 02 	jmp	0x5c2	; 0x5c2 <__bad_interrupt>
      48:	0c 94 e1 02 	jmp	0x5c2	; 0x5c2 <__bad_interrupt>
      4c:	0c 94 79 08 	jmp	0x10f2	; 0x10f2 <__vector_19>
      50:	0c 94 e1 02 	jmp	0x5c2	; 0x5c2 <__bad_interrupt>
      54:	0c 94 e1 02 	jmp	0x5c2	; 0x5c2 <__bad_interrupt>
      58:	0c 94 e1 02 	jmp	0x5c2	; 0x5c2 <__bad_interrupt>
      5c:	0c 94 e1 02 	jmp	0x5c2	; 0x5c2 <__bad_interrupt>
      60:	0c 94 e1 02 	jmp	0x5c2	; 0x5c2 <__bad_interrupt>
      64:	0c 94 e1 02 	jmp	0x5c2	; 0x5c2 <__bad_interrupt>
      68:	0c 94 e1 02 	jmp	0x5c2	; 0x5c2 <__bad_interrupt>
      6c:	0c 94 e1 02 	jmp	0x5c2	; 0x5c2 <__bad_interrupt>

00000070 <__trampolines_end>:
      70:	00 80       	ld	r0, Z
      72:	40 20       	and	r4, r0
      74:	10 08       	sbc	r1, r0
      76:	08 08       	sbc	r0, r8
      78:	04 04       	cpc	r0, r4
      7a:	04 08       	sbc	r0, r4
      7c:	08 10       	cpse	r0, r8
      7e:	60 80       	ld	r6, Z
      80:	00 00       	nop
      82:	00 00       	nop
      84:	00 00       	nop
      86:	00 1c       	adc	r0, r0
      88:	63 80       	ldd	r6, Z+3	; 0x03
	...
      92:	80 40       	sbci	r24, 0x00	; 0
      94:	20 10       	cpse	r2, r0
      96:	09 fe       	.word	0xfe09	; ????
	...
      a0:	00 01       	movw	r0, r0
      a2:	01 02       	muls	r16, r17
      a4:	02 04       	cpc	r0, r2
      a6:	04 06       	cpc	r0, r20
      a8:	05 04       	cpc	r0, r5
      aa:	04 04       	cpc	r0, r4
      ac:	04 08       	sbc	r0, r4
      ae:	11 22       	and	r1, r17
      b0:	44 88       	ldd	r4, Z+20	; 0x14
      b2:	50 20       	and	r5, r0
	...

000000b5 <font5>:
      b5:	00 00 00 00 00 00 00 5f 00 00 00 07 00 07 00 14     ......._........
      c5:	7f 14 7f 14 24 2a 7f 2a 12 23 13 08 64 62 36 49     ....$*.*.#..db6I
      d5:	55 22 50 00 05 03 00 00 00 1c 22 41 00 00 41 22     U"P......."A..A"
      e5:	1c 00 08 2a 1c 2a 08 08 08 3e 08 08 00 50 30 00     ...*.*...>...P0.
      f5:	00 08 08 08 08 08 00 60 60 00 00 20 10 08 04 02     .......``.. ....
     105:	3e 51 49 45 3e 00 42 7f 40 00 42 61 51 49 46 21     >QIE>.B.@.BaQIF!
     115:	41 45 4b 31 18 14 12 7f 10 27 45 45 45 39 3c 4a     AEK1.....'EEE9<J
     125:	49 49 30 01 71 09 05 03 36 49 49 49 36 06 49 49     II0.q...6III6.II
     135:	29 1e 00 36 36 00 00 00 56 36 00 00 00 08 14 22     )..66...V6....."
     145:	41 14 14 14 14 14 41 22 14 08 00 02 01 51 09 06     A.....A".....Q..
     155:	32 49 79 41 3e 7e 11 11 11 7e 7f 49 49 49 36 3e     2IyA>~...~.III6>
     165:	41 41 41 22 7f 41 41 22 1c 7f 49 49 49 41 7f 09     AAA".AA"..IIIA..
     175:	09 01 01 3e 41 41 51 32 7f 08 08 08 7f 00 41 7f     ...>AAQ2......A.
     185:	41 00 20 40 41 3f 01 7f 08 14 22 41 7f 40 40 40     A. @A?...."A.@@@
     195:	40 7f 02 04 02 7f 7f 04 08 10 7f 3e 41 41 41 3e     @..........>AAA>
     1a5:	7f 09 09 09 06 3e 41 51 21 5e 7f 09 19 29 46 46     .....>AQ!^...)FF
     1b5:	49 49 49 31 01 01 7f 01 01 3f 40 40 40 3f 1f 20     III1.....?@@@?. 
     1c5:	40 20 1f 7f 20 18 20 7f 63 14 08 14 63 03 04 78     @ .. . .c...c..x
     1d5:	04 03 61 51 49 45 43 00 00 7f 41 41 02 04 08 10     ..aQIEC...AA....
     1e5:	20 41 41 7f 00 00 04 02 01 02 04 40 40 40 40 40      AA........@@@@@
     1f5:	00 01 02 04 00 20 54 54 54 78 7f 48 44 44 38 38     ..... TTTx.HDD88
     205:	44 44 44 20 38 44 44 48 7f 38 54 54 54 18 08 7e     DDD 8DDH.8TTT..~
     215:	09 01 02 08 14 54 54 3c 7f 08 04 04 78 00 44 7d     .....TT<....x.D}
     225:	40 00 20 40 44 3d 00 00 7f 10 28 44 00 41 7f 40     @. @D=....(D.A.@
     235:	00 7c 04 18 04 78 7c 08 04 04 78 38 44 44 44 38     .|...x|...x8DDD8
     245:	7c 14 14 14 08 08 14 14 18 7c 7c 08 04 04 08 48     |........||....H
     255:	54 54 54 20 04 3f 44 40 20 3c 40 40 20 7c 1c 20     TTT .?D@ <@@ |. 
     265:	40 20 1c 3c 40 30 40 3c 44 28 10 28 44 0c 50 50     @ .<@0@<D(.(D.PP
     275:	50 3c 44 64 54 4c 44 00 08 36 41 00 00 00 7f 00     P<DdTLD..6A.....
     285:	00 00 41 36 08 00 02 01 03 02 01                    ..A6.......

00000290 <font8>:
	...
     298:	00 06 5f 5f 06 00 00 00 00 07 07 00 07 07 00 00     ..__............
     2a8:	14 7f 7f 14 7f 7f 14 00 24 2e 6b 6b 3a 12 00 00     ........$.kk:...
     2b8:	46 66 30 18 0c 66 62 00 30 7a 4f 5d 37 7a 48 00     Ff0..fb.0zO]7zH.
     2c8:	04 07 03 00 00 00 00 00 00 1c 3e 63 41 00 00 00     ..........>cA...
     2d8:	00 41 63 3e 1c 00 00 00 08 2a 3e 1c 1c 3e 2a 08     .Ac>.....*>..>*.
     2e8:	08 08 3e 3e 08 08 00 00 00 a0 e0 60 00 00 00 00     ..>>.......`....
     2f8:	08 08 08 08 08 08 00 00 00 00 60 60 00 00 00 00     ..........``....
     308:	60 30 18 0c 06 03 01 00 3e 7f 59 4d 7f 3e 00 00     `0......>.YM.>..
     318:	42 42 7f 7f 40 40 00 00 62 73 59 49 6f 66 00 00     BB..@@..bsYIof..
     328:	22 63 49 49 7f 36 00 00 18 1c 16 13 7f 7f 10 00     "cII.6..........
     338:	27 67 45 45 7d 39 00 00 3c 7e 4b 49 79 30 00 00     'gEE}9..<~KIy0..
     348:	03 63 71 19 0f 07 00 00 36 7f 49 49 7f 36 00 00     .cq.....6.II.6..
     358:	06 4f 49 69 3f 1e 00 00 00 00 6c 6c 00 00 00 00     .OIi?.....ll....
     368:	00 a0 ec 6c 00 00 00 00 08 1c 36 63 41 00 00 00     ...l......6cA...
     378:	14 14 14 14 14 14 00 00 00 41 63 36 1c 08 00 00     .........Ac6....
     388:	02 03 51 59 0f 06 00 00 3e 7f 41 5d 5d 1f 1e 00     ..QY....>.A]]...
     398:	7c 7e 13 13 7e 7c 00 00 41 7f 7f 49 49 7f 36 00     |~..~|..A..II.6.
     3a8:	1c 3e 63 41 41 63 22 00 41 7f 7f 41 63 7f 1c 00     .>cAAc".A..Ac...
     3b8:	41 7f 7f 49 5d 41 63 00 41 7f 7f 49 1d 01 03 00     A..I]Ac.A..I....
     3c8:	1c 3e 63 41 51 73 72 00 7f 7f 08 08 7f 7f 00 00     .>cAQsr.........
     3d8:	00 41 7f 7f 41 00 00 00 30 70 40 41 7f 3f 01 00     .A..A...0p@A.?..
     3e8:	41 7f 7f 08 1c 77 63 00 41 7f 7f 41 40 60 70 00     A....wc.A..A@`p.
     3f8:	7f 7f 06 0c 06 7f 7f 00 7f 7f 06 0c 18 7f 7f 00     ................
     408:	1c 3e 63 41 63 3e 1c 00 41 7f 7f 49 09 0f 06 00     .>cAc>..A..I....
     418:	1e 3f 21 71 7f 5e 00 00 41 7f 7f 19 39 6f 46 00     .?!q.^..A...9oF.
     428:	26 67 4d 59 7b 32 00 00 03 41 7f 7f 41 03 00 00     &gMY{2...A..A...
     438:	7f 7f 40 40 7f 7f 00 00 1f 3f 60 60 3f 1f 00 00     ..@@.....?``?...
     448:	7f 7f 30 18 30 7f 7f 00 63 77 1c 08 1c 77 63 00     ..0.0...cw...wc.
     458:	07 4f 78 78 4f 07 00 00 67 73 59 4d 47 63 71 00     .OxxO...gsYMGcq.
     468:	00 7f 7f 41 41 00 00 00 01 03 06 0c 18 30 60 00     ...AA........0`.
     478:	00 41 41 7f 7f 00 00 00 08 0c 06 03 06 0c 08 00     .AA.............
     488:	80 80 80 80 80 80 80 80 00 00 03 07 04 00 00 00     ................
     498:	20 74 54 54 3c 78 40 00 41 3f 7f 44 44 7c 38 00      tTT<x@.A?.DD|8.
     4a8:	38 7c 44 44 6c 28 00 00 30 78 48 49 3f 7f 40 00     8|DDl(..0xHI?.@.
     4b8:	38 7c 54 54 5c 18 00 00 48 7e 7f 49 03 02 00 00     8|TT\...H~.I....
     4c8:	98 bc a4 a4 f8 7c 04 00 41 7f 7f 08 04 7c 78 00     .....|..A....|x.
     4d8:	00 44 7d 7d 40 00 00 00 40 c4 84 fd 7d 00 00 00     .D}}@...@...}...
     4e8:	41 7f 7f 10 38 6c 44 00 00 41 7f 7f 40 00 00 00     A...8lD..A..@...
     4f8:	7c 7c 0c 18 0c 7c 78 00 7c 7c 04 04 7c 78 00 00     ||...|x.||..|x..
     508:	38 7c 44 44 7c 38 00 00 84 fc f8 a4 24 3c 18 00     8|DD|8......$<..
     518:	18 3c 24 a4 f8 fc 84 00 44 7c 78 44 1c 18 00 00     .<$.....D|xD....
     528:	48 5c 54 54 74 24 00 00 00 04 3e 7f 44 24 00 00     H\TTt$....>.D$..
     538:	3c 7c 40 40 3c 7c 40 00 1c 3c 60 60 3c 1c 00 00     <|@@<|@..<``<...
     548:	3c 7c 60 30 60 7c 3c 00 44 6c 38 10 38 6c 44 00     <|`0`|<.Dl8.8lD.
     558:	9c bc a0 a0 fc 7c 00 00 4c 64 74 5c 4c 64 00 00     .....|..Ldt\Ld..
     568:	08 08 3e 77 41 41 00 00 00 00 00 77 77 00 00 00     ..>wAA.....ww...
     578:	41 41 77 3e 08 08 00 00 02 03 01 03 02 03 01 00     AAw>............

00000588 <__ctors_end>:
     588:	11 24       	eor	r1, r1
     58a:	1f be       	out	0x3f, r1	; 63
     58c:	cf ef       	ldi	r28, 0xFF	; 255
     58e:	d4 e0       	ldi	r29, 0x04	; 4
     590:	de bf       	out	0x3e, r29	; 62
     592:	cd bf       	out	0x3d, r28	; 61

00000594 <__do_copy_data>:
     594:	12 e0       	ldi	r17, 0x02	; 2
     596:	a0 e0       	ldi	r26, 0x00	; 0
     598:	b1 e0       	ldi	r27, 0x01	; 1
     59a:	e6 e0       	ldi	r30, 0x06	; 6
     59c:	f8 e1       	ldi	r31, 0x18	; 24
     59e:	02 c0       	rjmp	.+4      	; 0x5a4 <__do_copy_data+0x10>
     5a0:	05 90       	lpm	r0, Z+
     5a2:	0d 92       	st	X+, r0
     5a4:	a4 3c       	cpi	r26, 0xC4	; 196
     5a6:	b1 07       	cpc	r27, r17
     5a8:	d9 f7       	brne	.-10     	; 0x5a0 <__do_copy_data+0xc>

000005aa <__do_clear_bss>:
     5aa:	22 e0       	ldi	r18, 0x02	; 2
     5ac:	a4 ec       	ldi	r26, 0xC4	; 196
     5ae:	b2 e0       	ldi	r27, 0x02	; 2
     5b0:	01 c0       	rjmp	.+2      	; 0x5b4 <.do_clear_bss_start>

000005b2 <.do_clear_bss_loop>:
     5b2:	1d 92       	st	X+, r1

000005b4 <.do_clear_bss_start>:
     5b4:	a0 3e       	cpi	r26, 0xE0	; 224
     5b6:	b2 07       	cpc	r27, r18
     5b8:	e1 f7       	brne	.-8      	; 0x5b2 <.do_clear_bss_loop>
     5ba:	0e 94 26 04 	call	0x84c	; 0x84c <main>
     5be:	0c 94 01 0c 	jmp	0x1802	; 0x1802 <_exit>

000005c2 <__bad_interrupt>:
     5c2:	0c 94 00 00 	jmp	0	; 0x0 <__vectors>

000005c6 <adc_init>:
io_inputs_t calibration;


void adc_init( void ) {
	/* ==== Set the clock ==== */
	DDRD |= (1 << PD5);	// OC1A pin as output
     5c6:	81 b3       	in	r24, 0x11	; 17
     5c8:	80 62       	ori	r24, 0x20	; 32
     5ca:	81 bb       	out	0x11, r24	; 17
	DDRD &= ~(1 << PD3); // PD3 as input
     5cc:	81 b3       	in	r24, 0x11	; 17
     5ce:	87 7f       	andi	r24, 0xF7	; 247
     5d0:	81 bb       	out	0x11, r24	; 17
	
	TCCR1B = (1 << WGM12) | (1 << CS10);  // CTC, no prescaler
     5d2:	89 e0       	ldi	r24, 0x09	; 9
     5d4:	8e bd       	out	0x2e, r24	; 46
	TCCR1A = (1 << COM1A0);				  // Toggle OC1A on compare match
     5d6:	80 e4       	ldi	r24, 0x40	; 64
     5d8:	8f bd       	out	0x2f, r24	; 47
	
	OCR1A = 2;
     5da:	82 e0       	ldi	r24, 0x02	; 2
     5dc:	90 e0       	ldi	r25, 0x00	; 0
     5de:	9b bd       	out	0x2b, r25	; 43
     5e0:	8a bd       	out	0x2a, r24	; 42
	/* ======================= */

	DDRD &= ~(1 << DDD4);
     5e2:	81 b3       	in	r24, 0x11	; 17
     5e4:	8f 7e       	andi	r24, 0xEF	; 239
     5e6:	81 bb       	out	0x11, r24	; 17
     5e8:	08 95       	ret

000005ea <get_io_inputs>:

void inputs_calibrate(void) {
	calibration = get_io_inputs();
}

io_inputs_t get_io_inputs(void) {
     5ea:	cf 93       	push	r28
     5ec:	df 93       	push	r29
     5ee:	fc 01       	movw	r30, r24
	io_inputs_t inputs;
	volatile char * ext_mem = ( char *) ADC_BASE ;
	ext_mem[0] = 0; // Send a write to start a conversion from ADC.
     5f0:	10 92 00 10 	sts	0x1000, r1	; 0x801000 <__bss_end+0xd20>
	#else
		//round up by default
		__ticks_dc = (uint32_t)(ceil(fabs(__tmp)));
	#endif

	__builtin_avr_delay_cycles(__ticks_dc);
     5f4:	00 c0       	rjmp	.+0      	; 0x5f6 <get_io_inputs+0xc>

	DDRD &= ~(1 << DDD4);
}

static inline void wait_conversion_done(void) {
	while (!(PIND & (1 << PD4))) ; // Wait until BUSY=high
     5f6:	84 9b       	sbis	0x10, 4	; 16
     5f8:	fe cf       	rjmp	.-4      	; 0x5f6 <get_io_inputs+0xc>
	io_inputs_t inputs;
	volatile char * ext_mem = ( char *) ADC_BASE ;
	ext_mem[0] = 0; // Send a write to start a conversion from ADC.
	_delay_us(2);  // Wait a bit.
	wait_conversion_done(); // Wait until ADC finished converting.
	inputs.joy_x = ext_mem[0] - calibration.joy_x;
     5fa:	a0 e0       	ldi	r26, 0x00	; 0
     5fc:	b0 e1       	ldi	r27, 0x10	; 16
     5fe:	8c 91       	ld	r24, X
     600:	cd ec       	ldi	r28, 0xCD	; 205
     602:	d2 e0       	ldi	r29, 0x02	; 2
     604:	28 81       	ld	r18, Y
     606:	39 81       	ldd	r19, Y+1	; 0x01
     608:	90 e0       	ldi	r25, 0x00	; 0
     60a:	82 1b       	sub	r24, r18
     60c:	93 0b       	sbc	r25, r19
     60e:	91 83       	std	Z+1, r25	; 0x01
     610:	80 83       	st	Z, r24
	inputs.joy_y = ext_mem[0] - calibration.joy_y;
     612:	8c 91       	ld	r24, X
     614:	2a 81       	ldd	r18, Y+2	; 0x02
     616:	3b 81       	ldd	r19, Y+3	; 0x03
     618:	90 e0       	ldi	r25, 0x00	; 0
     61a:	82 1b       	sub	r24, r18
     61c:	93 0b       	sbc	r25, r19
     61e:	93 83       	std	Z+3, r25	; 0x03
     620:	82 83       	std	Z+2, r24	; 0x02
	inputs.pad_x = ext_mem[0];
     622:	8c 91       	ld	r24, X
     624:	90 e0       	ldi	r25, 0x00	; 0
     626:	95 83       	std	Z+5, r25	; 0x05
     628:	84 83       	std	Z+4, r24	; 0x04
	inputs.pad_y = ext_mem[0];
     62a:	8c 91       	ld	r24, X
     62c:	90 e0       	ldi	r25, 0x00	; 0
     62e:	97 83       	std	Z+7, r25	; 0x07
     630:	86 83       	std	Z+6, r24	; 0x06
	inputs.joy_b = !(PIND & (1 << PD3)); 
     632:	80 b3       	in	r24, 0x10	; 16
     634:	86 95       	lsr	r24
     636:	86 95       	lsr	r24
     638:	86 95       	lsr	r24
     63a:	91 e0       	ldi	r25, 0x01	; 1
     63c:	89 27       	eor	r24, r25
     63e:	81 70       	andi	r24, 0x01	; 1
     640:	80 87       	std	Z+8, r24	; 0x08
     642:	11 86       	std	Z+9, r1	; 0x09

	return inputs;
}
     644:	cf 01       	movw	r24, r30
     646:	df 91       	pop	r29
     648:	cf 91       	pop	r28
     64a:	08 95       	ret

0000064c <inputs_calibrate>:
static inline void wait_conversion_done(void) {
	while (!(PIND & (1 << PD4))) ; // Wait until BUSY=high
}


void inputs_calibrate(void) {
     64c:	cf 93       	push	r28
     64e:	df 93       	push	r29
     650:	cd b7       	in	r28, 0x3d	; 61
     652:	de b7       	in	r29, 0x3e	; 62
     654:	2a 97       	sbiw	r28, 0x0a	; 10
     656:	0f b6       	in	r0, 0x3f	; 63
     658:	f8 94       	cli
     65a:	de bf       	out	0x3e, r29	; 62
     65c:	0f be       	out	0x3f, r0	; 63
     65e:	cd bf       	out	0x3d, r28	; 61
	calibration = get_io_inputs();
     660:	ce 01       	movw	r24, r28
     662:	01 96       	adiw	r24, 0x01	; 1
     664:	0e 94 f5 02 	call	0x5ea	; 0x5ea <get_io_inputs>
     668:	8a e0       	ldi	r24, 0x0A	; 10
     66a:	fe 01       	movw	r30, r28
     66c:	31 96       	adiw	r30, 0x01	; 1
     66e:	ad ec       	ldi	r26, 0xCD	; 205
     670:	b2 e0       	ldi	r27, 0x02	; 2
     672:	01 90       	ld	r0, Z+
     674:	0d 92       	st	X+, r0
     676:	8a 95       	dec	r24
     678:	e1 f7       	brne	.-8      	; 0x672 <inputs_calibrate+0x26>
}
     67a:	2a 96       	adiw	r28, 0x0a	; 10
     67c:	0f b6       	in	r0, 0x3f	; 63
     67e:	f8 94       	cli
     680:	de bf       	out	0x3e, r29	; 62
     682:	0f be       	out	0x3f, r0	; 63
     684:	cd bf       	out	0x3d, r28	; 61
     686:	df 91       	pop	r29
     688:	cf 91       	pop	r28
     68a:	08 95       	ret

0000068c <get_joystick_direction>:
	inputs.joy_b = !(PIND & (1 << PD3)); 

	return inputs;
}

direction get_joystick_direction(io_inputs_t inputs) {
     68c:	0f 93       	push	r16
     68e:	1f 93       	push	r17
     690:	cf 93       	push	r28
     692:	df 93       	push	r29
     694:	cd b7       	in	r28, 0x3d	; 61
     696:	de b7       	in	r29, 0x3e	; 62
     698:	2a 97       	sbiw	r28, 0x0a	; 10
     69a:	0f b6       	in	r0, 0x3f	; 63
     69c:	f8 94       	cli
     69e:	de bf       	out	0x3e, r29	; 62
     6a0:	0f be       	out	0x3f, r0	; 63
     6a2:	cd bf       	out	0x3d, r28	; 61
     6a4:	09 83       	std	Y+1, r16	; 0x01
     6a6:	1a 83       	std	Y+2, r17	; 0x02
     6a8:	2b 83       	std	Y+3, r18	; 0x03
     6aa:	3c 83       	std	Y+4, r19	; 0x04
	if (inputs.joy_y > 10 && inputs.joy_y > inputs.joy_x && inputs.joy_y > -inputs.joy_x) return UP;
     6ac:	8b 81       	ldd	r24, Y+3	; 0x03
     6ae:	9c 81       	ldd	r25, Y+4	; 0x04
     6b0:	8b 30       	cpi	r24, 0x0B	; 11
     6b2:	91 05       	cpc	r25, r1
     6b4:	5c f0       	brlt	.+22     	; 0x6cc <get_joystick_direction+0x40>
     6b6:	29 81       	ldd	r18, Y+1	; 0x01
     6b8:	3a 81       	ldd	r19, Y+2	; 0x02
     6ba:	28 17       	cp	r18, r24
     6bc:	39 07       	cpc	r19, r25
     6be:	34 f4       	brge	.+12     	; 0x6cc <get_joystick_direction+0x40>
     6c0:	31 95       	neg	r19
     6c2:	21 95       	neg	r18
     6c4:	31 09       	sbc	r19, r1
     6c6:	28 17       	cp	r18, r24
     6c8:	39 07       	cpc	r19, r25
     6ca:	6c f1       	brlt	.+90     	; 0x726 <get_joystick_direction+0x9a>
	else if (inputs.joy_y < -10 && inputs.joy_y < inputs.joy_x && inputs.joy_y < -inputs.joy_x) return DOWN;
     6cc:	86 3f       	cpi	r24, 0xF6	; 246
     6ce:	2f ef       	ldi	r18, 0xFF	; 255
     6d0:	92 07       	cpc	r25, r18
     6d2:	5c f4       	brge	.+22     	; 0x6ea <get_joystick_direction+0x5e>
     6d4:	29 81       	ldd	r18, Y+1	; 0x01
     6d6:	3a 81       	ldd	r19, Y+2	; 0x02
     6d8:	82 17       	cp	r24, r18
     6da:	93 07       	cpc	r25, r19
     6dc:	34 f4       	brge	.+12     	; 0x6ea <get_joystick_direction+0x5e>
     6de:	31 95       	neg	r19
     6e0:	21 95       	neg	r18
     6e2:	31 09       	sbc	r19, r1
     6e4:	82 17       	cp	r24, r18
     6e6:	93 07       	cpc	r25, r19
     6e8:	04 f1       	brlt	.+64     	; 0x72a <get_joystick_direction+0x9e>
	else if (inputs.joy_x > 10 && inputs.joy_x >= inputs.joy_y && inputs.joy_x >= -inputs.joy_y) return RIGHT;
     6ea:	29 81       	ldd	r18, Y+1	; 0x01
     6ec:	3a 81       	ldd	r19, Y+2	; 0x02
     6ee:	2b 30       	cpi	r18, 0x0B	; 11
     6f0:	31 05       	cpc	r19, r1
     6f2:	54 f0       	brlt	.+20     	; 0x708 <get_joystick_direction+0x7c>
     6f4:	28 17       	cp	r18, r24
     6f6:	39 07       	cpc	r19, r25
     6f8:	3c f0       	brlt	.+14     	; 0x708 <get_joystick_direction+0x7c>
     6fa:	44 27       	eor	r20, r20
     6fc:	55 27       	eor	r21, r21
     6fe:	48 1b       	sub	r20, r24
     700:	59 0b       	sbc	r21, r25
     702:	24 17       	cp	r18, r20
     704:	35 07       	cpc	r19, r21
     706:	9c f4       	brge	.+38     	; 0x72e <get_joystick_direction+0xa2>
	else if (inputs.joy_x < -10 && inputs.joy_x <= inputs.joy_y && inputs.joy_x <= -inputs.joy_y) return LEFT;
     708:	26 3f       	cpi	r18, 0xF6	; 246
     70a:	4f ef       	ldi	r20, 0xFF	; 255
     70c:	34 07       	cpc	r19, r20
     70e:	8c f4       	brge	.+34     	; 0x732 <get_joystick_direction+0xa6>
     710:	82 17       	cp	r24, r18
     712:	93 07       	cpc	r25, r19
     714:	84 f0       	brlt	.+32     	; 0x736 <get_joystick_direction+0xaa>
     716:	91 95       	neg	r25
     718:	81 95       	neg	r24
     71a:	91 09       	sbc	r25, r1
     71c:	82 17       	cp	r24, r18
     71e:	93 07       	cpc	r25, r19
     720:	64 f4       	brge	.+24     	; 0x73a <get_joystick_direction+0xae>
	else return NEUTRAL;
     722:	84 e0       	ldi	r24, 0x04	; 4
     724:	0b c0       	rjmp	.+22     	; 0x73c <get_joystick_direction+0xb0>

	return inputs;
}

direction get_joystick_direction(io_inputs_t inputs) {
	if (inputs.joy_y > 10 && inputs.joy_y > inputs.joy_x && inputs.joy_y > -inputs.joy_x) return UP;
     726:	82 e0       	ldi	r24, 0x02	; 2
     728:	09 c0       	rjmp	.+18     	; 0x73c <get_joystick_direction+0xb0>
	else if (inputs.joy_y < -10 && inputs.joy_y < inputs.joy_x && inputs.joy_y < -inputs.joy_x) return DOWN;
     72a:	83 e0       	ldi	r24, 0x03	; 3
     72c:	07 c0       	rjmp	.+14     	; 0x73c <get_joystick_direction+0xb0>
	else if (inputs.joy_x > 10 && inputs.joy_x >= inputs.joy_y && inputs.joy_x >= -inputs.joy_y) return RIGHT;
     72e:	81 e0       	ldi	r24, 0x01	; 1
     730:	05 c0       	rjmp	.+10     	; 0x73c <get_joystick_direction+0xb0>
	else if (inputs.joy_x < -10 && inputs.joy_x <= inputs.joy_y && inputs.joy_x <= -inputs.joy_y) return LEFT;
	else return NEUTRAL;
     732:	84 e0       	ldi	r24, 0x04	; 4
     734:	03 c0       	rjmp	.+6      	; 0x73c <get_joystick_direction+0xb0>
     736:	84 e0       	ldi	r24, 0x04	; 4
     738:	01 c0       	rjmp	.+2      	; 0x73c <get_joystick_direction+0xb0>

direction get_joystick_direction(io_inputs_t inputs) {
	if (inputs.joy_y > 10 && inputs.joy_y > inputs.joy_x && inputs.joy_y > -inputs.joy_x) return UP;
	else if (inputs.joy_y < -10 && inputs.joy_y < inputs.joy_x && inputs.joy_y < -inputs.joy_x) return DOWN;
	else if (inputs.joy_x > 10 && inputs.joy_x >= inputs.joy_y && inputs.joy_x >= -inputs.joy_y) return RIGHT;
	else if (inputs.joy_x < -10 && inputs.joy_x <= inputs.joy_y && inputs.joy_x <= -inputs.joy_y) return LEFT;
     73a:	80 e0       	ldi	r24, 0x00	; 0
	else return NEUTRAL;
}
     73c:	2a 96       	adiw	r28, 0x0a	; 10
     73e:	0f b6       	in	r0, 0x3f	; 63
     740:	f8 94       	cli
     742:	de bf       	out	0x3e, r29	; 62
     744:	0f be       	out	0x3f, r0	; 63
     746:	cd bf       	out	0x3d, r28	; 61
     748:	df 91       	pop	r29
     74a:	cf 91       	pop	r28
     74c:	1f 91       	pop	r17
     74e:	0f 91       	pop	r16
     750:	08 95       	ret

00000752 <can_controller_reset>:

	spi_select_slave(NONE);
}

void can_controller_reset(void) {
	spi_select_slave(CAN);
     752:	80 e0       	ldi	r24, 0x00	; 0
     754:	0e 94 43 08 	call	0x1086	; 0x1086 <spi_select_slave>
	
	spi_write_byte(0xC0); spi_read_byte();
     758:	80 ec       	ldi	r24, 0xC0	; 192
     75a:	0e 94 71 08 	call	0x10e2	; 0x10e2 <spi_write_byte>
     75e:	0e 94 75 08 	call	0x10ea	; 0x10ea <spi_read_byte>
	
	spi_select_slave(NONE);
     762:	83 e0       	ldi	r24, 0x03	; 3
     764:	0e 94 43 08 	call	0x1086	; 0x1086 <spi_select_slave>
     768:	08 95       	ret

0000076a <io_board_init>:
#include "io_board.h"
#include "../SPI/SPI.h"


void io_board_init() {
	spi_init();
     76a:	0e 94 3a 08 	call	0x1074	; 0x1074 <spi_init>
     76e:	08 95       	ret

00000770 <io_board_read_buttons>:
}

buttons_t io_board_read_buttons(){
     770:	cf 93       	push	r28
     772:	df 93       	push	r29
     774:	cd b7       	in	r28, 0x3d	; 61
     776:	de b7       	in	r29, 0x3e	; 62
     778:	2a 97       	sbiw	r28, 0x0a	; 10
     77a:	0f b6       	in	r0, 0x3f	; 63
     77c:	f8 94       	cli
     77e:	de bf       	out	0x3e, r29	; 62
     780:	0f be       	out	0x3f, r0	; 63
     782:	cd bf       	out	0x3d, r28	; 61
	buttons_t buttons; 
	spi_select_slave(IO);
     784:	81 e0       	ldi	r24, 0x01	; 1
     786:	0e 94 43 08 	call	0x1086	; 0x1086 <spi_select_slave>
	spi_write_byte(0x04); spi_read_byte(); 
     78a:	84 e0       	ldi	r24, 0x04	; 4
     78c:	0e 94 71 08 	call	0x10e2	; 0x10e2 <spi_write_byte>
     790:	0e 94 75 08 	call	0x10ea	; 0x10ea <spi_read_byte>
	spi_write_byte(0x00);
     794:	80 e0       	ldi	r24, 0x00	; 0
     796:	0e 94 71 08 	call	0x10e2	; 0x10e2 <spi_write_byte>
	buttons.right = spi_read_byte();
     79a:	0e 94 75 08 	call	0x10ea	; 0x10ea <spi_read_byte>
     79e:	8e 83       	std	Y+6, r24	; 0x06
	spi_write_byte(0x00);
     7a0:	80 e0       	ldi	r24, 0x00	; 0
     7a2:	0e 94 71 08 	call	0x10e2	; 0x10e2 <spi_write_byte>
	buttons.left = spi_read_byte();
     7a6:	0e 94 75 08 	call	0x10ea	; 0x10ea <spi_read_byte>
     7aa:	8f 83       	std	Y+7, r24	; 0x07
	spi_write_byte(0x00);
     7ac:	80 e0       	ldi	r24, 0x00	; 0
     7ae:	0e 94 71 08 	call	0x10e2	; 0x10e2 <spi_write_byte>
	buttons.nav = spi_read_byte();
     7b2:	0e 94 75 08 	call	0x10ea	; 0x10ea <spi_read_byte>
     7b6:	88 87       	std	Y+8, r24	; 0x08
	spi_write_byte(0x02); spi_read_byte();
     7b8:	82 e0       	ldi	r24, 0x02	; 2
     7ba:	0e 94 71 08 	call	0x10e2	; 0x10e2 <spi_write_byte>
     7be:	0e 94 75 08 	call	0x10ea	; 0x10ea <spi_read_byte>
	spi_write_byte(0x00);
     7c2:	80 e0       	ldi	r24, 0x00	; 0
     7c4:	0e 94 71 08 	call	0x10e2	; 0x10e2 <spi_write_byte>
	buttons.slider_x = spi_read_byte();
     7c8:	0e 94 75 08 	call	0x10ea	; 0x10ea <spi_read_byte>
     7cc:	89 87       	std	Y+9, r24	; 0x09
	spi_write_byte(0x00);
     7ce:	80 e0       	ldi	r24, 0x00	; 0
     7d0:	0e 94 71 08 	call	0x10e2	; 0x10e2 <spi_write_byte>
	buttons.slider_size = spi_read_byte();
     7d4:	0e 94 75 08 	call	0x10ea	; 0x10ea <spi_read_byte>
     7d8:	8a 87       	std	Y+10, r24	; 0x0a
	spi_select_slave(NONE);
     7da:	83 e0       	ldi	r24, 0x03	; 3
     7dc:	0e 94 43 08 	call	0x1086	; 0x1086 <spi_select_slave>
	
	return buttons; 
     7e0:	85 e0       	ldi	r24, 0x05	; 5
     7e2:	fe 01       	movw	r30, r28
     7e4:	36 96       	adiw	r30, 0x06	; 6
     7e6:	de 01       	movw	r26, r28
     7e8:	11 96       	adiw	r26, 0x01	; 1
     7ea:	01 90       	ld	r0, Z+
     7ec:	0d 92       	st	X+, r0
     7ee:	8a 95       	dec	r24
     7f0:	e1 f7       	brne	.-8      	; 0x7ea <io_board_read_buttons+0x7a>
     7f2:	29 81       	ldd	r18, Y+1	; 0x01
     7f4:	3a 81       	ldd	r19, Y+2	; 0x02
     7f6:	4b 81       	ldd	r20, Y+3	; 0x03
     7f8:	5c 81       	ldd	r21, Y+4	; 0x04
     7fa:	6d 81       	ldd	r22, Y+5	; 0x05
}
     7fc:	70 e0       	ldi	r23, 0x00	; 0
     7fe:	80 e0       	ldi	r24, 0x00	; 0
     800:	90 e0       	ldi	r25, 0x00	; 0
     802:	2a 96       	adiw	r28, 0x0a	; 10
     804:	0f b6       	in	r0, 0x3f	; 63
     806:	f8 94       	cli
     808:	de bf       	out	0x3e, r29	; 62
     80a:	0f be       	out	0x3f, r0	; 63
     80c:	cd bf       	out	0x3d, r28	; 61
     80e:	df 91       	pop	r29
     810:	cf 91       	pop	r28
     812:	08 95       	ret

00000814 <io_board_set_led>:

void io_board_set_led(uint8_t led, state_t state) {
     814:	cf 93       	push	r28
     816:	df 93       	push	r29
     818:	d8 2f       	mov	r29, r24
     81a:	c6 2f       	mov	r28, r22
	spi_select_slave(IO);
     81c:	81 e0       	ldi	r24, 0x01	; 1
     81e:	0e 94 43 08 	call	0x1086	; 0x1086 <spi_select_slave>
	spi_write_byte(0x05); spi_read_byte();
     822:	85 e0       	ldi	r24, 0x05	; 5
     824:	0e 94 71 08 	call	0x10e2	; 0x10e2 <spi_write_byte>
     828:	0e 94 75 08 	call	0x10ea	; 0x10ea <spi_read_byte>
	spi_write_byte(led); spi_read_byte();
     82c:	8d 2f       	mov	r24, r29
     82e:	0e 94 71 08 	call	0x10e2	; 0x10e2 <spi_write_byte>
     832:	0e 94 75 08 	call	0x10ea	; 0x10ea <spi_read_byte>
	spi_write_byte(state); spi_read_byte();
     836:	8c 2f       	mov	r24, r28
     838:	0e 94 71 08 	call	0x10e2	; 0x10e2 <spi_write_byte>
     83c:	0e 94 75 08 	call	0x10ea	; 0x10ea <spi_read_byte>
	spi_select_slave(NONE);
     840:	83 e0       	ldi	r24, 0x03	; 3
     842:	0e 94 43 08 	call	0x1086	; 0x1086 <spi_select_slave>
}
     846:	df 91       	pop	r29
     848:	cf 91       	pop	r28
     84a:	08 95       	ret

0000084c <main>:
#include "oled/oled.h"
#include "can/can.h"
#include "IO_BOARD/io_board.h"


int main(void) {
     84c:	cf 93       	push	r28
     84e:	df 93       	push	r29
     850:	cd b7       	in	r28, 0x3d	; 61
     852:	de b7       	in	r29, 0x3e	; 62
     854:	2f 97       	sbiw	r28, 0x0f	; 15
     856:	0f b6       	in	r0, 0x3f	; 63
     858:	f8 94       	cli
     85a:	de bf       	out	0x3e, r29	; 62
     85c:	0f be       	out	0x3f, r0	; 63
     85e:	cd bf       	out	0x3d, r28	; 61
	

	uart_init(9600);
     860:	60 e8       	ldi	r22, 0x80	; 128
     862:	75 e2       	ldi	r23, 0x25	; 37
     864:	80 e0       	ldi	r24, 0x00	; 0
     866:	90 e0       	ldi	r25, 0x00	; 0
     868:	0e 94 a4 08 	call	0x1148	; 0x1148 <uart_init>
	xmem_init();
     86c:	0e 94 bb 08 	call	0x1176	; 0x1176 <xmem_init>
	adc_init();
     870:	0e 94 e3 02 	call	0x5c6	; 0x5c6 <adc_init>
	oled_init();
     874:	0e 94 b0 04 	call	0x960	; 0x960 <oled_init>
	io_board_init(); 
     878:	0e 94 b5 03 	call	0x76a	; 0x76a <io_board_init>
	inputs_calibrate();
     87c:	0e 94 26 03 	call	0x64c	; 0x64c <inputs_calibrate>
	
	can_controller_reset();
     880:	0e 94 a9 03 	call	0x752	; 0x752 <can_controller_reset>

	
	
	doublebuf_init();
     884:	0e 94 40 05 	call	0xa80	; 0xa80 <doublebuf_init>
	//request_buffer_swap();
	//printf("before delay\n");
	//_delay_ms(100);
	//printf("after delay\n");
		
	draw_menu_to_buffer();
     888:	0e 94 d2 06 	call	0xda4	; 0xda4 <draw_menu_to_buffer>
	
	io_board_set_led(2, ON);
     88c:	61 e0       	ldi	r22, 0x01	; 1
     88e:	82 e0       	ldi	r24, 0x02	; 2
     890:	0e 94 0a 04 	call	0x814	; 0x814 <io_board_set_led>
	io_board_set_led(4, ON);
     894:	61 e0       	ldi	r22, 0x01	; 1
     896:	84 e0       	ldi	r24, 0x04	; 4
     898:	0e 94 0a 04 	call	0x814	; 0x814 <io_board_set_led>
	
	direction prev_dir = NEUTRAL;
     89c:	68 94       	set
     89e:	ff 24       	eor	r15, r15
     8a0:	f2 f8       	bld	r15, 2
	while (1) {
		printf("getting inputs\n");
     8a2:	8f e0       	ldi	r24, 0x0F	; 15
     8a4:	91 e0       	ldi	r25, 0x01	; 1
     8a6:	0e 94 09 09 	call	0x1212	; 0x1212 <puts>
		const io_inputs_t in = get_io_inputs();
     8aa:	ce 01       	movw	r24, r28
     8ac:	01 96       	adiw	r24, 0x01	; 1
     8ae:	0e 94 f5 02 	call	0x5ea	; 0x5ea <get_io_inputs>
		printf("getting directions\n");
     8b2:	8e e1       	ldi	r24, 0x1E	; 30
     8b4:	91 e0       	ldi	r25, 0x01	; 1
     8b6:	0e 94 09 09 	call	0x1212	; 0x1212 <puts>
		const direction dir = get_joystick_direction(in);
     8ba:	09 81       	ldd	r16, Y+1	; 0x01
     8bc:	1a 81       	ldd	r17, Y+2	; 0x02
     8be:	2b 81       	ldd	r18, Y+3	; 0x03
     8c0:	3c 81       	ldd	r19, Y+4	; 0x04
     8c2:	4d 81       	ldd	r20, Y+5	; 0x05
     8c4:	5e 81       	ldd	r21, Y+6	; 0x06
     8c6:	6f 81       	ldd	r22, Y+7	; 0x07
     8c8:	78 85       	ldd	r23, Y+8	; 0x08
     8ca:	89 85       	ldd	r24, Y+9	; 0x09
     8cc:	9a 85       	ldd	r25, Y+10	; 0x0a
     8ce:	0e 94 46 03 	call	0x68c	; 0x68c <get_joystick_direction>
     8d2:	18 2f       	mov	r17, r24
		if (dir != prev_dir) {
     8d4:	f8 16       	cp	r15, r24
     8d6:	c1 f1       	breq	.+112    	; 0x948 <main+0xfc>
			if (dir == UP && main_menu.selected > 0) {
     8d8:	82 30       	cpi	r24, 0x02	; 2
     8da:	51 f4       	brne	.+20     	; 0x8f0 <main+0xa4>
     8dc:	80 91 d7 02 	lds	r24, 0x02D7	; 0x8002d7 <main_menu>
     8e0:	88 23       	and	r24, r24
     8e2:	31 f0       	breq	.+12     	; 0x8f0 <main+0xa4>
				main_menu.selected--;
     8e4:	81 50       	subi	r24, 0x01	; 1
     8e6:	80 93 d7 02 	sts	0x02D7, r24	; 0x8002d7 <main_menu>
				draw_menu_to_buffer();
     8ea:	0e 94 d2 06 	call	0xda4	; 0xda4 <draw_menu_to_buffer>
     8ee:	2c c0       	rjmp	.+88     	; 0x948 <main+0xfc>
				} else if (dir == DOWN && main_menu.selected < main_menu.max) {
     8f0:	13 30       	cpi	r17, 0x03	; 3
     8f2:	61 f4       	brne	.+24     	; 0x90c <main+0xc0>
     8f4:	e7 ed       	ldi	r30, 0xD7	; 215
     8f6:	f2 e0       	ldi	r31, 0x02	; 2
     8f8:	80 81       	ld	r24, Z
     8fa:	91 81       	ldd	r25, Z+1	; 0x01
     8fc:	89 17       	cp	r24, r25
     8fe:	30 f4       	brcc	.+12     	; 0x90c <main+0xc0>
				main_menu.selected++;
     900:	8f 5f       	subi	r24, 0xFF	; 255
     902:	80 93 d7 02 	sts	0x02D7, r24	; 0x8002d7 <main_menu>
				draw_menu_to_buffer();
     906:	0e 94 d2 06 	call	0xda4	; 0xda4 <draw_menu_to_buffer>
     90a:	1e c0       	rjmp	.+60     	; 0x948 <main+0xfc>
				} else if (dir == RIGHT && main_menu.selected < main_menu.max - 1) {
     90c:	11 30       	cpi	r17, 0x01	; 1
     90e:	89 f4       	brne	.+34     	; 0x932 <main+0xe6>
     910:	e7 ed       	ldi	r30, 0xD7	; 215
     912:	f2 e0       	ldi	r31, 0x02	; 2
     914:	20 81       	ld	r18, Z
     916:	42 2f       	mov	r20, r18
     918:	50 e0       	ldi	r21, 0x00	; 0
     91a:	81 81       	ldd	r24, Z+1	; 0x01
     91c:	90 e0       	ldi	r25, 0x00	; 0
     91e:	01 97       	sbiw	r24, 0x01	; 1
     920:	48 17       	cp	r20, r24
     922:	59 07       	cpc	r21, r25
     924:	34 f4       	brge	.+12     	; 0x932 <main+0xe6>
				main_menu.selected += 2;
     926:	2e 5f       	subi	r18, 0xFE	; 254
     928:	20 93 d7 02 	sts	0x02D7, r18	; 0x8002d7 <main_menu>
				draw_menu_to_buffer();
     92c:	0e 94 d2 06 	call	0xda4	; 0xda4 <draw_menu_to_buffer>
     930:	0b c0       	rjmp	.+22     	; 0x948 <main+0xfc>
				} else if (dir == LEFT && main_menu.selected > 1) {
     932:	11 11       	cpse	r17, r1
     934:	09 c0       	rjmp	.+18     	; 0x948 <main+0xfc>
     936:	80 91 d7 02 	lds	r24, 0x02D7	; 0x8002d7 <main_menu>
     93a:	82 30       	cpi	r24, 0x02	; 2
     93c:	28 f0       	brcs	.+10     	; 0x948 <main+0xfc>
				main_menu.selected -= 2;
     93e:	82 50       	subi	r24, 0x02	; 2
     940:	80 93 d7 02 	sts	0x02D7, r24	; 0x8002d7 <main_menu>
				draw_menu_to_buffer();
     944:	0e 94 d2 06 	call	0xda4	; 0xda4 <draw_menu_to_buffer>
			}
		}

		prev_dir = dir;
		
		if(in.joy_b) {
     948:	89 85       	ldd	r24, Y+9	; 0x09
     94a:	9a 85       	ldd	r25, Y+10	; 0x0a
     94c:	89 2b       	or	r24, r25
     94e:	21 f0       	breq	.+8      	; 0x958 <main+0x10c>
			printf("PRESSED\n");
     950:	81 e3       	ldi	r24, 0x31	; 49
     952:	91 e0       	ldi	r25, 0x01	; 1
     954:	0e 94 09 09 	call	0x1212	; 0x1212 <puts>
		}
		
		const buttons_t buttons = io_board_read_buttons();
     958:	0e 94 b8 03 	call	0x770	; 0x770 <io_board_read_buttons>
				main_menu.selected -= 2;
				draw_menu_to_buffer();
			}
		}

		prev_dir = dir;
     95c:	f1 2e       	mov	r15, r17
		
		const buttons_t buttons = io_board_read_buttons();
		//printf("L1:%d,L2:%d,L3:%d,L4:%d,L5:%d,L6:%d,L7:%d,R1:%d,R2:%d,R3:%d,R4:%d,R5:%d,R6:%d,nav=%d\n",
		//buttons.left&1, buttons.left&(1<<1), buttons.left&(1<<2), buttons.left&(1<<3), buttons.left&(1<<4), buttons.left&(1<<5), buttons.left&(1<<6),
		//buttons.right&1, buttons.right&(1<<1), buttons.right&(1<<2), buttons.right&(1<<3),buttons.right&(1<<4),buttons.right&(1<<5), buttons.nav);
	}
     95e:	a1 cf       	rjmp	.-190    	; 0x8a2 <main+0x56>

00000960 <oled_init>:
	oled_goto(page, x);
	spi_select_slave(DISP);
	PORTB |= (1 << PB1); 
	spi_write_byte(on ? bit : 0x00); spi_read_byte();
	spi_select_slave(NONE);
}
     960:	e7 ed       	ldi	r30, 0xD7	; 215
     962:	f2 e0       	ldi	r31, 0x02	; 2
     964:	10 82       	st	Z, r1
     966:	82 e0       	ldi	r24, 0x02	; 2
     968:	81 83       	std	Z+1, r24	; 0x01
     96a:	0e 94 3a 08 	call	0x1074	; 0x1074 <spi_init>
     96e:	87 b3       	in	r24, 0x17	; 23
     970:	82 60       	ori	r24, 0x02	; 2
     972:	87 bb       	out	0x17, r24	; 23
     974:	82 e0       	ldi	r24, 0x02	; 2
     976:	0e 94 43 08 	call	0x1086	; 0x1086 <spi_select_slave>
     97a:	88 b3       	in	r24, 0x18	; 24
     97c:	8d 7f       	andi	r24, 0xFD	; 253
     97e:	88 bb       	out	0x18, r24	; 24
     980:	8e ea       	ldi	r24, 0xAE	; 174
     982:	0e 94 71 08 	call	0x10e2	; 0x10e2 <spi_write_byte>
     986:	0e 94 75 08 	call	0x10ea	; 0x10ea <spi_read_byte>
     98a:	81 ea       	ldi	r24, 0xA1	; 161
     98c:	0e 94 71 08 	call	0x10e2	; 0x10e2 <spi_write_byte>
     990:	0e 94 75 08 	call	0x10ea	; 0x10ea <spi_read_byte>
     994:	8a ed       	ldi	r24, 0xDA	; 218
     996:	0e 94 71 08 	call	0x10e2	; 0x10e2 <spi_write_byte>
     99a:	0e 94 75 08 	call	0x10ea	; 0x10ea <spi_read_byte>
     99e:	82 e1       	ldi	r24, 0x12	; 18
     9a0:	0e 94 71 08 	call	0x10e2	; 0x10e2 <spi_write_byte>
     9a4:	0e 94 75 08 	call	0x10ea	; 0x10ea <spi_read_byte>
     9a8:	88 ec       	ldi	r24, 0xC8	; 200
     9aa:	0e 94 71 08 	call	0x10e2	; 0x10e2 <spi_write_byte>
     9ae:	0e 94 75 08 	call	0x10ea	; 0x10ea <spi_read_byte>
     9b2:	88 ea       	ldi	r24, 0xA8	; 168
     9b4:	0e 94 71 08 	call	0x10e2	; 0x10e2 <spi_write_byte>
     9b8:	0e 94 75 08 	call	0x10ea	; 0x10ea <spi_read_byte>
     9bc:	8f e3       	ldi	r24, 0x3F	; 63
     9be:	0e 94 71 08 	call	0x10e2	; 0x10e2 <spi_write_byte>
     9c2:	0e 94 75 08 	call	0x10ea	; 0x10ea <spi_read_byte>
     9c6:	85 ed       	ldi	r24, 0xD5	; 213
     9c8:	0e 94 71 08 	call	0x10e2	; 0x10e2 <spi_write_byte>
     9cc:	0e 94 75 08 	call	0x10ea	; 0x10ea <spi_read_byte>
     9d0:	80 e8       	ldi	r24, 0x80	; 128
     9d2:	0e 94 71 08 	call	0x10e2	; 0x10e2 <spi_write_byte>
     9d6:	0e 94 75 08 	call	0x10ea	; 0x10ea <spi_read_byte>
     9da:	81 e8       	ldi	r24, 0x81	; 129
     9dc:	0e 94 71 08 	call	0x10e2	; 0x10e2 <spi_write_byte>
     9e0:	0e 94 75 08 	call	0x10ea	; 0x10ea <spi_read_byte>
     9e4:	80 e5       	ldi	r24, 0x50	; 80
     9e6:	0e 94 71 08 	call	0x10e2	; 0x10e2 <spi_write_byte>
     9ea:	0e 94 75 08 	call	0x10ea	; 0x10ea <spi_read_byte>
     9ee:	89 ed       	ldi	r24, 0xD9	; 217
     9f0:	0e 94 71 08 	call	0x10e2	; 0x10e2 <spi_write_byte>
     9f4:	0e 94 75 08 	call	0x10ea	; 0x10ea <spi_read_byte>
     9f8:	81 e2       	ldi	r24, 0x21	; 33
     9fa:	0e 94 71 08 	call	0x10e2	; 0x10e2 <spi_write_byte>
     9fe:	0e 94 75 08 	call	0x10ea	; 0x10ea <spi_read_byte>
     a02:	80 e2       	ldi	r24, 0x20	; 32
     a04:	0e 94 71 08 	call	0x10e2	; 0x10e2 <spi_write_byte>
     a08:	0e 94 75 08 	call	0x10ea	; 0x10ea <spi_read_byte>
     a0c:	82 e0       	ldi	r24, 0x02	; 2
     a0e:	0e 94 71 08 	call	0x10e2	; 0x10e2 <spi_write_byte>
     a12:	0e 94 75 08 	call	0x10ea	; 0x10ea <spi_read_byte>
     a16:	8b ed       	ldi	r24, 0xDB	; 219
     a18:	0e 94 71 08 	call	0x10e2	; 0x10e2 <spi_write_byte>
     a1c:	0e 94 75 08 	call	0x10ea	; 0x10ea <spi_read_byte>
     a20:	84 e3       	ldi	r24, 0x34	; 52
     a22:	0e 94 71 08 	call	0x10e2	; 0x10e2 <spi_write_byte>
     a26:	0e 94 75 08 	call	0x10ea	; 0x10ea <spi_read_byte>
     a2a:	84 ea       	ldi	r24, 0xA4	; 164
     a2c:	0e 94 71 08 	call	0x10e2	; 0x10e2 <spi_write_byte>
     a30:	0e 94 75 08 	call	0x10ea	; 0x10ea <spi_read_byte>
     a34:	86 ea       	ldi	r24, 0xA6	; 166
     a36:	0e 94 71 08 	call	0x10e2	; 0x10e2 <spi_write_byte>
     a3a:	0e 94 75 08 	call	0x10ea	; 0x10ea <spi_read_byte>
     a3e:	8f ea       	ldi	r24, 0xAF	; 175
     a40:	0e 94 71 08 	call	0x10e2	; 0x10e2 <spi_write_byte>
     a44:	0e 94 75 08 	call	0x10ea	; 0x10ea <spi_read_byte>
     a48:	83 e0       	ldi	r24, 0x03	; 3
     a4a:	0e 94 43 08 	call	0x1086	; 0x1086 <spi_select_slave>
     a4e:	08 95       	ret

00000a50 <start_timer_transfer>:
     a50:	ea e8       	ldi	r30, 0x8A	; 138
     a52:	f0 e0       	ldi	r31, 0x00	; 0
     a54:	10 82       	st	Z, r1
     a56:	80 81       	ld	r24, Z
     a58:	88 60       	ori	r24, 0x08	; 8
     a5a:	80 83       	st	Z, r24
     a5c:	8d e1       	ldi	r24, 0x1D	; 29
     a5e:	90 e0       	ldi	r25, 0x00	; 0
     a60:	90 93 87 00 	sts	0x0087, r25	; 0x800087 <__TEXT_REGION_LENGTH__+0x7fc087>
     a64:	80 93 86 00 	sts	0x0086, r24	; 0x800086 <__TEXT_REGION_LENGTH__+0x7fc086>
     a68:	80 81       	ld	r24, Z
     a6a:	8d 7f       	andi	r24, 0xFD	; 253
     a6c:	80 83       	st	Z, r24
     a6e:	80 81       	ld	r24, Z
     a70:	85 60       	ori	r24, 0x05	; 5
     a72:	80 83       	st	Z, r24
     a74:	ed e7       	ldi	r30, 0x7D	; 125
     a76:	f0 e0       	ldi	r31, 0x00	; 0
     a78:	80 81       	ld	r24, Z
     a7a:	80 61       	ori	r24, 0x10	; 16
     a7c:	80 83       	st	Z, r24
     a7e:	08 95       	ret

00000a80 <doublebuf_init>:
     a80:	cf 93       	push	r28
     a82:	df 93       	push	r29
     a84:	0e 94 b0 04 	call	0x960	; 0x960 <oled_init>
     a88:	0e 94 bb 08 	call	0x1176	; 0x1176 <xmem_init>
     a8c:	c0 e0       	ldi	r28, 0x00	; 0
     a8e:	d0 e0       	ldi	r29, 0x00	; 0
     a90:	05 c0       	rjmp	.+10     	; 0xa9c <doublebuf_init+0x1c>
     a92:	be 01       	movw	r22, r28
     a94:	80 e0       	ldi	r24, 0x00	; 0
     a96:	0e 94 c2 08 	call	0x1184	; 0x1184 <xmem_write>
     a9a:	21 96       	adiw	r28, 0x01	; 1
     a9c:	c1 15       	cp	r28, r1
     a9e:	88 e0       	ldi	r24, 0x08	; 8
     aa0:	d8 07       	cpc	r29, r24
     aa2:	b8 f3       	brcs	.-18     	; 0xa92 <doublebuf_init+0x12>
     aa4:	10 92 cb 02 	sts	0x02CB, r1	; 0x8002cb <front_buf>
     aa8:	81 e0       	ldi	r24, 0x01	; 1
     aaa:	80 93 00 01 	sts	0x0100, r24	; 0x800100 <__DATA_REGION_ORIGIN__>
     aae:	10 92 ca 02 	sts	0x02CA, r1	; 0x8002ca <swap_requested>
     ab2:	10 92 c9 02 	sts	0x02C9, r1	; 0x8002c9 <swap_pending>
     ab6:	10 92 c8 02 	sts	0x02C8, r1	; 0x8002c8 <transfer_pos+0x1>
     aba:	10 92 c7 02 	sts	0x02C7, r1	; 0x8002c7 <transfer_pos>
     abe:	10 92 c4 02 	sts	0x02C4, r1	; 0x8002c4 <__data_end>
     ac2:	0e 94 28 05 	call	0xa50	; 0xa50 <start_timer_transfer>
     ac6:	78 94       	sei
     ac8:	df 91       	pop	r29
     aca:	cf 91       	pop	r28
     acc:	08 95       	ret

00000ace <request_buffer_swap>:
     ace:	f8 94       	cli
     ad0:	81 e0       	ldi	r24, 0x01	; 1
     ad2:	80 93 ca 02 	sts	0x02CA, r24	; 0x8002ca <swap_requested>
     ad6:	78 94       	sei
     ad8:	08 95       	ret

00000ada <draw_char_normal_to_buffer>:
     ada:	ef 92       	push	r14
     adc:	ff 92       	push	r15
     ade:	0f 93       	push	r16
     ae0:	1f 93       	push	r17
     ae2:	cf 93       	push	r28
     ae4:	df 93       	push	r29
     ae6:	f8 2e       	mov	r15, r24
     ae8:	e6 2e       	mov	r14, r22
     aea:	00 ee       	ldi	r16, 0xE0	; 224
     aec:	04 0f       	add	r16, r20
     aee:	80 91 00 01 	lds	r24, 0x0100	; 0x800100 <__DATA_REGION_ORIGIN__>
     af2:	81 11       	cpse	r24, r1
     af4:	03 c0       	rjmp	.+6      	; 0xafc <draw_char_normal_to_buffer+0x22>
     af6:	c0 e0       	ldi	r28, 0x00	; 0
     af8:	d0 e0       	ldi	r29, 0x00	; 0
     afa:	02 c0       	rjmp	.+4      	; 0xb00 <draw_char_normal_to_buffer+0x26>
     afc:	c0 e0       	ldi	r28, 0x00	; 0
     afe:	d4 e0       	ldi	r29, 0x04	; 4
     b00:	80 91 00 01 	lds	r24, 0x0100	; 0x800100 <__DATA_REGION_ORIGIN__>
     b04:	1f 92       	push	r1
     b06:	4f 93       	push	r20
     b08:	1f 92       	push	r1
     b0a:	8f 93       	push	r24
     b0c:	85 e4       	ldi	r24, 0x45	; 69
     b0e:	92 e0       	ldi	r25, 0x02	; 2
     b10:	9f 93       	push	r25
     b12:	8f 93       	push	r24
     b14:	0e 94 ec 08 	call	0x11d8	; 0x11d8 <printf>
     b18:	0f 90       	pop	r0
     b1a:	0f 90       	pop	r0
     b1c:	0f 90       	pop	r0
     b1e:	0f 90       	pop	r0
     b20:	0f 90       	pop	r0
     b22:	0f 90       	pop	r0
     b24:	10 e0       	ldi	r17, 0x00	; 0
     b26:	1d c0       	rjmp	.+58     	; 0xb62 <draw_char_normal_to_buffer+0x88>
     b28:	80 2f       	mov	r24, r16
     b2a:	90 e0       	ldi	r25, 0x00	; 0
     b2c:	61 2f       	mov	r22, r17
     b2e:	70 e0       	ldi	r23, 0x00	; 0
     b30:	fc 01       	movw	r30, r24
     b32:	ee 0f       	add	r30, r30
     b34:	ff 1f       	adc	r31, r31
     b36:	ee 0f       	add	r30, r30
     b38:	ff 1f       	adc	r31, r31
     b3a:	e8 0f       	add	r30, r24
     b3c:	f9 1f       	adc	r31, r25
     b3e:	e6 0f       	add	r30, r22
     b40:	f7 1f       	adc	r31, r23
     b42:	eb 54       	subi	r30, 0x4B	; 75
     b44:	ff 4f       	sbci	r31, 0xFF	; 255
     b46:	84 91       	lpm	r24, Z
     b48:	6e 0d       	add	r22, r14
     b4a:	71 1d       	adc	r23, r1
     b4c:	9e 01       	movw	r18, r28
     b4e:	90 e8       	ldi	r25, 0x80	; 128
     b50:	f9 9e       	mul	r15, r25
     b52:	20 0d       	add	r18, r0
     b54:	31 1d       	adc	r19, r1
     b56:	11 24       	eor	r1, r1
     b58:	62 0f       	add	r22, r18
     b5a:	73 1f       	adc	r23, r19
     b5c:	0e 94 c2 08 	call	0x1184	; 0x1184 <xmem_write>
     b60:	1f 5f       	subi	r17, 0xFF	; 255
     b62:	15 30       	cpi	r17, 0x05	; 5
     b64:	08 f3       	brcs	.-62     	; 0xb28 <draw_char_normal_to_buffer+0x4e>
     b66:	df 91       	pop	r29
     b68:	cf 91       	pop	r28
     b6a:	1f 91       	pop	r17
     b6c:	0f 91       	pop	r16
     b6e:	ff 90       	pop	r15
     b70:	ef 90       	pop	r14
     b72:	08 95       	ret

00000b74 <draw_string_normal_to_buffer>:
     b74:	ff 92       	push	r15
     b76:	0f 93       	push	r16
     b78:	1f 93       	push	r17
     b7a:	cf 93       	push	r28
     b7c:	df 93       	push	r29
     b7e:	f8 2e       	mov	r15, r24
     b80:	d6 2f       	mov	r29, r22
     b82:	8a 01       	movw	r16, r20
     b84:	c0 e0       	ldi	r28, 0x00	; 0
     b86:	0a c0       	rjmp	.+20     	; 0xb9c <draw_string_normal_to_buffer+0x28>
     b88:	8c 2f       	mov	r24, r28
     b8a:	88 0f       	add	r24, r24
     b8c:	8c 0f       	add	r24, r28
     b8e:	68 2f       	mov	r22, r24
     b90:	66 0f       	add	r22, r22
     b92:	6d 0f       	add	r22, r29
     b94:	8f 2d       	mov	r24, r15
     b96:	0e 94 6d 05 	call	0xada	; 0xada <draw_char_normal_to_buffer>
     b9a:	cf 5f       	subi	r28, 0xFF	; 255
     b9c:	f8 01       	movw	r30, r16
     b9e:	ec 0f       	add	r30, r28
     ba0:	f1 1d       	adc	r31, r1
     ba2:	40 81       	ld	r20, Z
     ba4:	41 11       	cpse	r20, r1
     ba6:	f0 cf       	rjmp	.-32     	; 0xb88 <draw_string_normal_to_buffer+0x14>
     ba8:	df 91       	pop	r29
     baa:	cf 91       	pop	r28
     bac:	1f 91       	pop	r17
     bae:	0f 91       	pop	r16
     bb0:	ff 90       	pop	r15
     bb2:	08 95       	ret

00000bb4 <draw_char_big_to_buffer>:
     bb4:	ef 92       	push	r14
     bb6:	ff 92       	push	r15
     bb8:	0f 93       	push	r16
     bba:	1f 93       	push	r17
     bbc:	cf 93       	push	r28
     bbe:	df 93       	push	r29
     bc0:	f8 2e       	mov	r15, r24
     bc2:	e6 2e       	mov	r14, r22
     bc4:	00 ee       	ldi	r16, 0xE0	; 224
     bc6:	04 0f       	add	r16, r20
     bc8:	80 91 00 01 	lds	r24, 0x0100	; 0x800100 <__DATA_REGION_ORIGIN__>
     bcc:	81 11       	cpse	r24, r1
     bce:	03 c0       	rjmp	.+6      	; 0xbd6 <draw_char_big_to_buffer+0x22>
     bd0:	c0 e0       	ldi	r28, 0x00	; 0
     bd2:	d0 e0       	ldi	r29, 0x00	; 0
     bd4:	02 c0       	rjmp	.+4      	; 0xbda <draw_char_big_to_buffer+0x26>
     bd6:	c0 e0       	ldi	r28, 0x00	; 0
     bd8:	d4 e0       	ldi	r29, 0x04	; 4
     bda:	10 e0       	ldi	r17, 0x00	; 0
     bdc:	1c c0       	rjmp	.+56     	; 0xc16 <draw_char_big_to_buffer+0x62>
     bde:	e0 2f       	mov	r30, r16
     be0:	f0 e0       	ldi	r31, 0x00	; 0
     be2:	61 2f       	mov	r22, r17
     be4:	70 e0       	ldi	r23, 0x00	; 0
     be6:	ee 0f       	add	r30, r30
     be8:	ff 1f       	adc	r31, r31
     bea:	ee 0f       	add	r30, r30
     bec:	ff 1f       	adc	r31, r31
     bee:	ee 0f       	add	r30, r30
     bf0:	ff 1f       	adc	r31, r31
     bf2:	e6 0f       	add	r30, r22
     bf4:	f7 1f       	adc	r31, r23
     bf6:	e0 57       	subi	r30, 0x70	; 112
     bf8:	fd 4f       	sbci	r31, 0xFD	; 253
     bfa:	84 91       	lpm	r24, Z
     bfc:	6e 0d       	add	r22, r14
     bfe:	71 1d       	adc	r23, r1
     c00:	9e 01       	movw	r18, r28
     c02:	90 e8       	ldi	r25, 0x80	; 128
     c04:	f9 9e       	mul	r15, r25
     c06:	20 0d       	add	r18, r0
     c08:	31 1d       	adc	r19, r1
     c0a:	11 24       	eor	r1, r1
     c0c:	62 0f       	add	r22, r18
     c0e:	73 1f       	adc	r23, r19
     c10:	0e 94 c2 08 	call	0x1184	; 0x1184 <xmem_write>
     c14:	1f 5f       	subi	r17, 0xFF	; 255
     c16:	18 30       	cpi	r17, 0x08	; 8
     c18:	10 f3       	brcs	.-60     	; 0xbde <draw_char_big_to_buffer+0x2a>
     c1a:	df 91       	pop	r29
     c1c:	cf 91       	pop	r28
     c1e:	1f 91       	pop	r17
     c20:	0f 91       	pop	r16
     c22:	ff 90       	pop	r15
     c24:	ef 90       	pop	r14
     c26:	08 95       	ret

00000c28 <draw_string_big_to_buffer>:
     c28:	ff 92       	push	r15
     c2a:	0f 93       	push	r16
     c2c:	1f 93       	push	r17
     c2e:	cf 93       	push	r28
     c30:	df 93       	push	r29
     c32:	f8 2e       	mov	r15, r24
     c34:	d6 2f       	mov	r29, r22
     c36:	8a 01       	movw	r16, r20
     c38:	c0 e0       	ldi	r28, 0x00	; 0
     c3a:	0a c0       	rjmp	.+20     	; 0xc50 <draw_string_big_to_buffer+0x28>
     c3c:	6c 2f       	mov	r22, r28
     c3e:	66 0f       	add	r22, r22
     c40:	66 0f       	add	r22, r22
     c42:	66 0f       	add	r22, r22
     c44:	6c 1b       	sub	r22, r28
     c46:	6d 0f       	add	r22, r29
     c48:	8f 2d       	mov	r24, r15
     c4a:	0e 94 da 05 	call	0xbb4	; 0xbb4 <draw_char_big_to_buffer>
     c4e:	cf 5f       	subi	r28, 0xFF	; 255
     c50:	f8 01       	movw	r30, r16
     c52:	ec 0f       	add	r30, r28
     c54:	f1 1d       	adc	r31, r1
     c56:	40 81       	ld	r20, Z
     c58:	41 11       	cpse	r20, r1
     c5a:	f0 cf       	rjmp	.-32     	; 0xc3c <draw_string_big_to_buffer+0x14>
     c5c:	df 91       	pop	r29
     c5e:	cf 91       	pop	r28
     c60:	1f 91       	pop	r17
     c62:	0f 91       	pop	r16
     c64:	ff 90       	pop	r15
     c66:	08 95       	ret

00000c68 <draw_raquette_to_buffer>:
     c68:	bf 92       	push	r11
     c6a:	cf 92       	push	r12
     c6c:	df 92       	push	r13
     c6e:	ef 92       	push	r14
     c70:	ff 92       	push	r15
     c72:	0f 93       	push	r16
     c74:	1f 93       	push	r17
     c76:	cf 93       	push	r28
     c78:	df 93       	push	r29
     c7a:	e8 2e       	mov	r14, r24
     c7c:	b6 2e       	mov	r11, r22
     c7e:	80 91 00 01 	lds	r24, 0x0100	; 0x800100 <__DATA_REGION_ORIGIN__>
     c82:	81 11       	cpse	r24, r1
     c84:	03 c0       	rjmp	.+6      	; 0xc8c <draw_raquette_to_buffer+0x24>
     c86:	c1 2c       	mov	r12, r1
     c88:	d1 2c       	mov	r13, r1
     c8a:	04 c0       	rjmp	.+8      	; 0xc94 <draw_raquette_to_buffer+0x2c>
     c8c:	c1 2c       	mov	r12, r1
     c8e:	68 94       	set
     c90:	dd 24       	eor	r13, r13
     c92:	d2 f8       	bld	r13, 2
     c94:	00 e0       	ldi	r16, 0x00	; 0
     c96:	10 e0       	ldi	r17, 0x00	; 0
     c98:	24 c0       	rjmp	.+72     	; 0xce2 <draw_raquette_to_buffer+0x7a>
     c9a:	87 e1       	ldi	r24, 0x17	; 23
     c9c:	80 9f       	mul	r24, r16
     c9e:	f0 01       	movw	r30, r0
     ca0:	81 9f       	mul	r24, r17
     ca2:	f0 0d       	add	r31, r0
     ca4:	11 24       	eor	r1, r1
     ca6:	e0 0f       	add	r30, r16
     ca8:	f1 1f       	adc	r31, r17
     caa:	e0 59       	subi	r30, 0x90	; 144
     cac:	ff 4f       	sbci	r31, 0xFF	; 255
     cae:	84 91       	lpm	r24, Z
     cb0:	b8 01       	movw	r22, r16
     cb2:	6e 0d       	add	r22, r14
     cb4:	71 1d       	adc	r23, r1
     cb6:	76 95       	lsr	r23
     cb8:	76 2f       	mov	r23, r22
     cba:	66 27       	eor	r22, r22
     cbc:	77 95       	ror	r23
     cbe:	67 95       	ror	r22
     cc0:	6c 0d       	add	r22, r12
     cc2:	7d 1d       	adc	r23, r13
     cc4:	9e 01       	movw	r18, r28
     cc6:	2b 0d       	add	r18, r11
     cc8:	31 1d       	adc	r19, r1
     cca:	62 0f       	add	r22, r18
     ccc:	73 1f       	adc	r23, r19
     cce:	0e 94 c2 08 	call	0x1184	; 0x1184 <xmem_write>
     cd2:	21 97       	sbiw	r28, 0x01	; 1
     cd4:	02 c0       	rjmp	.+4      	; 0xcda <draw_raquette_to_buffer+0x72>
     cd6:	c6 e1       	ldi	r28, 0x16	; 22
     cd8:	d0 e0       	ldi	r29, 0x00	; 0
     cda:	dd 23       	and	r29, r29
     cdc:	f4 f6       	brge	.-68     	; 0xc9a <draw_raquette_to_buffer+0x32>
     cde:	0f 5f       	subi	r16, 0xFF	; 255
     ce0:	1f 4f       	sbci	r17, 0xFF	; 255
     ce2:	03 30       	cpi	r16, 0x03	; 3
     ce4:	11 05       	cpc	r17, r1
     ce6:	bc f3       	brlt	.-18     	; 0xcd6 <draw_raquette_to_buffer+0x6e>
     ce8:	f1 2c       	mov	r15, r1
     cea:	e7 01       	movw	r28, r14
     cec:	d6 95       	lsr	r29
     cee:	dc 2f       	mov	r29, r28
     cf0:	cc 27       	eor	r28, r28
     cf2:	d7 95       	ror	r29
     cf4:	c7 95       	ror	r28
     cf6:	cc 0d       	add	r28, r12
     cf8:	dd 1d       	adc	r29, r13
     cfa:	cb 0d       	add	r28, r11
     cfc:	d1 1d       	adc	r29, r1
     cfe:	be 01       	movw	r22, r28
     d00:	62 5e       	subi	r22, 0xE2	; 226
     d02:	7f 4f       	sbci	r23, 0xFF	; 255
     d04:	8e e0       	ldi	r24, 0x0E	; 14
     d06:	0e 94 c2 08 	call	0x1184	; 0x1184 <xmem_write>
     d0a:	be 01       	movw	r22, r28
     d0c:	61 5e       	subi	r22, 0xE1	; 225
     d0e:	7f 4f       	sbci	r23, 0xFF	; 255
     d10:	8f e1       	ldi	r24, 0x1F	; 31
     d12:	0e 94 c2 08 	call	0x1184	; 0x1184 <xmem_write>
     d16:	be 01       	movw	r22, r28
     d18:	60 5e       	subi	r22, 0xE0	; 224
     d1a:	7f 4f       	sbci	r23, 0xFF	; 255
     d1c:	8f e1       	ldi	r24, 0x1F	; 31
     d1e:	0e 94 c2 08 	call	0x1184	; 0x1184 <xmem_write>
     d22:	be 01       	movw	r22, r28
     d24:	6f 5d       	subi	r22, 0xDF	; 223
     d26:	7f 4f       	sbci	r23, 0xFF	; 255
     d28:	8f e1       	ldi	r24, 0x1F	; 31
     d2a:	0e 94 c2 08 	call	0x1184	; 0x1184 <xmem_write>
     d2e:	be 01       	movw	r22, r28
     d30:	6e 5d       	subi	r22, 0xDE	; 222
     d32:	7f 4f       	sbci	r23, 0xFF	; 255
     d34:	8e e0       	ldi	r24, 0x0E	; 14
     d36:	0e 94 c2 08 	call	0x1184	; 0x1184 <xmem_write>
     d3a:	00 e0       	ldi	r16, 0x00	; 0
     d3c:	10 e0       	ldi	r17, 0x00	; 0
     d3e:	25 c0       	rjmp	.+74     	; 0xd8a <draw_raquette_to_buffer+0x122>
     d40:	87 e1       	ldi	r24, 0x17	; 23
     d42:	80 9f       	mul	r24, r16
     d44:	f0 01       	movw	r30, r0
     d46:	81 9f       	mul	r24, r17
     d48:	f0 0d       	add	r31, r0
     d4a:	11 24       	eor	r1, r1
     d4c:	e0 0f       	add	r30, r16
     d4e:	f1 1f       	adc	r31, r17
     d50:	e0 59       	subi	r30, 0x90	; 144
     d52:	ff 4f       	sbci	r31, 0xFF	; 255
     d54:	84 91       	lpm	r24, Z
     d56:	b8 01       	movw	r22, r16
     d58:	6e 0d       	add	r22, r14
     d5a:	7f 1d       	adc	r23, r15
     d5c:	76 95       	lsr	r23
     d5e:	76 2f       	mov	r23, r22
     d60:	66 27       	eor	r22, r22
     d62:	77 95       	ror	r23
     d64:	67 95       	ror	r22
     d66:	6c 0d       	add	r22, r12
     d68:	7d 1d       	adc	r23, r13
     d6a:	9e 01       	movw	r18, r28
     d6c:	2b 0d       	add	r18, r11
     d6e:	31 1d       	adc	r19, r1
     d70:	62 0f       	add	r22, r18
     d72:	73 1f       	adc	r23, r19
     d74:	0e 94 c2 08 	call	0x1184	; 0x1184 <xmem_write>
     d78:	21 96       	adiw	r28, 0x01	; 1
     d7a:	02 c0       	rjmp	.+4      	; 0xd80 <draw_raquette_to_buffer+0x118>
     d7c:	c0 e0       	ldi	r28, 0x00	; 0
     d7e:	d0 e0       	ldi	r29, 0x00	; 0
     d80:	c7 31       	cpi	r28, 0x17	; 23
     d82:	d1 05       	cpc	r29, r1
     d84:	ec f2       	brlt	.-70     	; 0xd40 <draw_raquette_to_buffer+0xd8>
     d86:	0f 5f       	subi	r16, 0xFF	; 255
     d88:	1f 4f       	sbci	r17, 0xFF	; 255
     d8a:	03 30       	cpi	r16, 0x03	; 3
     d8c:	11 05       	cpc	r17, r1
     d8e:	b4 f3       	brlt	.-20     	; 0xd7c <draw_raquette_to_buffer+0x114>
     d90:	df 91       	pop	r29
     d92:	cf 91       	pop	r28
     d94:	1f 91       	pop	r17
     d96:	0f 91       	pop	r16
     d98:	ff 90       	pop	r15
     d9a:	ef 90       	pop	r14
     d9c:	df 90       	pop	r13
     d9e:	cf 90       	pop	r12
     da0:	bf 90       	pop	r11
     da2:	08 95       	ret

00000da4 <draw_menu_to_buffer>:
     da4:	80 91 00 01 	lds	r24, 0x0100	; 0x800100 <__DATA_REGION_ORIGIN__>
     da8:	81 11       	cpse	r24, r1
     daa:	03 c0       	rjmp	.+6      	; 0xdb2 <draw_menu_to_buffer+0xe>
     dac:	20 e0       	ldi	r18, 0x00	; 0
     dae:	30 e0       	ldi	r19, 0x00	; 0
     db0:	02 c0       	rjmp	.+4      	; 0xdb6 <draw_menu_to_buffer+0x12>
     db2:	20 e0       	ldi	r18, 0x00	; 0
     db4:	34 e0       	ldi	r19, 0x04	; 4
     db6:	80 91 cb 02 	lds	r24, 0x02CB	; 0x8002cb <front_buf>
     dba:	81 11       	cpse	r24, r1
     dbc:	02 c0       	rjmp	.+4      	; 0xdc2 <draw_menu_to_buffer+0x1e>
     dbe:	90 e0       	ldi	r25, 0x00	; 0
     dc0:	02 c0       	rjmp	.+4      	; 0xdc6 <draw_menu_to_buffer+0x22>
     dc2:	80 e0       	ldi	r24, 0x00	; 0
     dc4:	94 e0       	ldi	r25, 0x04	; 4
     dc6:	3f 93       	push	r19
     dc8:	2f 93       	push	r18
     dca:	9f 93       	push	r25
     dcc:	8f 93       	push	r24
     dce:	86 e6       	ldi	r24, 0x66	; 102
     dd0:	92 e0       	ldi	r25, 0x02	; 2
     dd2:	9f 93       	push	r25
     dd4:	8f 93       	push	r24
     dd6:	0e 94 ec 08 	call	0x11d8	; 0x11d8 <printf>
     dda:	45 e8       	ldi	r20, 0x85	; 133
     ddc:	52 e0       	ldi	r21, 0x02	; 2
     dde:	60 e0       	ldi	r22, 0x00	; 0
     de0:	80 e0       	ldi	r24, 0x00	; 0
     de2:	0e 94 14 06 	call	0xc28	; 0xc28 <draw_string_big_to_buffer>
     de6:	44 e9       	ldi	r20, 0x94	; 148
     de8:	52 e0       	ldi	r21, 0x02	; 2
     dea:	60 e0       	ldi	r22, 0x00	; 0
     dec:	82 e0       	ldi	r24, 0x02	; 2
     dee:	0e 94 ba 05 	call	0xb74	; 0xb74 <draw_string_normal_to_buffer>
     df2:	4b e9       	ldi	r20, 0x9B	; 155
     df4:	52 e0       	ldi	r21, 0x02	; 2
     df6:	64 e3       	ldi	r22, 0x34	; 52
     df8:	82 e0       	ldi	r24, 0x02	; 2
     dfa:	0e 94 ba 05 	call	0xb74	; 0xb74 <draw_string_normal_to_buffer>
     dfe:	45 ea       	ldi	r20, 0xA5	; 165
     e00:	52 e0       	ldi	r21, 0x02	; 2
     e02:	60 e0       	ldi	r22, 0x00	; 0
     e04:	83 e0       	ldi	r24, 0x03	; 3
     e06:	0e 94 ba 05 	call	0xb74	; 0xb74 <draw_string_normal_to_buffer>
     e0a:	80 91 d7 02 	lds	r24, 0x02D7	; 0x8002d7 <main_menu>
     e0e:	0f 90       	pop	r0
     e10:	0f 90       	pop	r0
     e12:	0f 90       	pop	r0
     e14:	0f 90       	pop	r0
     e16:	0f 90       	pop	r0
     e18:	0f 90       	pop	r0
     e1a:	81 11       	cpse	r24, r1
     e1c:	06 c0       	rjmp	.+12     	; 0xe2a <draw_menu_to_buffer+0x86>
     e1e:	4e e3       	ldi	r20, 0x3E	; 62
     e20:	60 e0       	ldi	r22, 0x00	; 0
     e22:	82 e0       	ldi	r24, 0x02	; 2
     e24:	0e 94 6d 05 	call	0xada	; 0xada <draw_char_normal_to_buffer>
     e28:	0d c0       	rjmp	.+26     	; 0xe44 <draw_menu_to_buffer+0xa0>
     e2a:	81 30       	cpi	r24, 0x01	; 1
     e2c:	31 f4       	brne	.+12     	; 0xe3a <draw_menu_to_buffer+0x96>
     e2e:	4e e3       	ldi	r20, 0x3E	; 62
     e30:	60 e0       	ldi	r22, 0x00	; 0
     e32:	83 e0       	ldi	r24, 0x03	; 3
     e34:	0e 94 6d 05 	call	0xada	; 0xada <draw_char_normal_to_buffer>
     e38:	05 c0       	rjmp	.+10     	; 0xe44 <draw_menu_to_buffer+0xa0>
     e3a:	4e e3       	ldi	r20, 0x3E	; 62
     e3c:	64 e3       	ldi	r22, 0x34	; 52
     e3e:	82 e0       	ldi	r24, 0x02	; 2
     e40:	0e 94 6d 05 	call	0xada	; 0xada <draw_char_normal_to_buffer>
     e44:	6c e1       	ldi	r22, 0x1C	; 28
     e46:	85 e0       	ldi	r24, 0x05	; 5
     e48:	0e 94 34 06 	call	0xc68	; 0xc68 <draw_raquette_to_buffer>
     e4c:	0e 94 67 05 	call	0xace	; 0xace <request_buffer_swap>
     e50:	08 95       	ret

00000e52 <oled_goto>:
     e52:	cf 93       	push	r28
     e54:	df 93       	push	r29
     e56:	d8 2f       	mov	r29, r24
     e58:	c6 2f       	mov	r28, r22
     e5a:	88 b3       	in	r24, 0x18	; 24
     e5c:	8d 7f       	andi	r24, 0xFD	; 253
     e5e:	88 bb       	out	0x18, r24	; 24
     e60:	82 e0       	ldi	r24, 0x02	; 2
     e62:	0e 94 43 08 	call	0x1086	; 0x1086 <spi_select_slave>
     e66:	8d 2f       	mov	r24, r29
     e68:	8f 70       	andi	r24, 0x0F	; 15
     e6a:	80 6b       	ori	r24, 0xB0	; 176
     e6c:	0e 94 71 08 	call	0x10e2	; 0x10e2 <spi_write_byte>
     e70:	0e 94 75 08 	call	0x10ea	; 0x10ea <spi_read_byte>
     e74:	8c 2f       	mov	r24, r28
     e76:	8f 70       	andi	r24, 0x0F	; 15
     e78:	0e 94 71 08 	call	0x10e2	; 0x10e2 <spi_write_byte>
     e7c:	0e 94 75 08 	call	0x10ea	; 0x10ea <spi_read_byte>
     e80:	8c 2f       	mov	r24, r28
     e82:	82 95       	swap	r24
     e84:	8f 70       	andi	r24, 0x0F	; 15
     e86:	80 61       	ori	r24, 0x10	; 16
     e88:	0e 94 71 08 	call	0x10e2	; 0x10e2 <spi_write_byte>
     e8c:	0e 94 75 08 	call	0x10ea	; 0x10ea <spi_read_byte>
     e90:	83 e0       	ldi	r24, 0x03	; 3
     e92:	0e 94 43 08 	call	0x1086	; 0x1086 <spi_select_slave>
     e96:	df 91       	pop	r29
     e98:	cf 91       	pop	r28
     e9a:	08 95       	ret

00000e9c <oled_set_val>:


void oled_set_val(uint8_t val) {
     e9c:	cf 93       	push	r28
     e9e:	c8 2f       	mov	r28, r24
	spi_select_slave(DISP);
     ea0:	82 e0       	ldi	r24, 0x02	; 2
     ea2:	0e 94 43 08 	call	0x1086	; 0x1086 <spi_select_slave>
	PORTB |= (1 << PB1);
     ea6:	88 b3       	in	r24, 0x18	; 24
     ea8:	82 60       	ori	r24, 0x02	; 2
     eaa:	88 bb       	out	0x18, r24	; 24
	spi_write_byte(val); spi_read_byte();
     eac:	8c 2f       	mov	r24, r28
     eae:	0e 94 71 08 	call	0x10e2	; 0x10e2 <spi_write_byte>
     eb2:	0e 94 75 08 	call	0x10ea	; 0x10ea <spi_read_byte>
	spi_select_slave(NONE);
     eb6:	83 e0       	ldi	r24, 0x03	; 3
     eb8:	0e 94 43 08 	call	0x1086	; 0x1086 <spi_select_slave>
}
     ebc:	cf 91       	pop	r28
     ebe:	08 95       	ret

00000ec0 <__vector_7>:

static inline uint16_t buf_base_of(uint8_t bufnum) {
	return (bufnum == 0) ? BUF0_BASE : BUF1_BASE;
}

ISR(TIMER3_COMPA_vect) {
     ec0:	1f 92       	push	r1
     ec2:	0f 92       	push	r0
     ec4:	0f b6       	in	r0, 0x3f	; 63
     ec6:	0f 92       	push	r0
     ec8:	11 24       	eor	r1, r1
     eca:	0f 93       	push	r16
     ecc:	1f 93       	push	r17
     ece:	2f 93       	push	r18
     ed0:	3f 93       	push	r19
     ed2:	4f 93       	push	r20
     ed4:	5f 93       	push	r21
     ed6:	6f 93       	push	r22
     ed8:	7f 93       	push	r23
     eda:	8f 93       	push	r24
     edc:	9f 93       	push	r25
     ede:	af 93       	push	r26
     ee0:	bf 93       	push	r27
     ee2:	cf 93       	push	r28
     ee4:	df 93       	push	r29
     ee6:	ef 93       	push	r30
     ee8:	ff 93       	push	r31
	if (transfer_in_progress == false) {
     eea:	80 91 c4 02 	lds	r24, 0x02C4	; 0x8002c4 <__data_end>
     eee:	81 11       	cpse	r24, r1
     ef0:	11 c0       	rjmp	.+34     	; 0xf14 <__vector_7+0x54>
		transfer_in_progress = true;
     ef2:	81 e0       	ldi	r24, 0x01	; 1
     ef4:	80 93 c4 02 	sts	0x02C4, r24	; 0x8002c4 <__data_end>
		transfer_pos = 0;
     ef8:	10 92 c8 02 	sts	0x02C8, r1	; 0x8002c8 <transfer_pos+0x1>
     efc:	10 92 c7 02 	sts	0x02C7, r1	; 0x8002c7 <transfer_pos>
		transfer_page = 0;
     f00:	10 92 c6 02 	sts	0x02C6, r1	; 0x8002c6 <transfer_page>
		transfer_col = 0;
     f04:	10 92 c5 02 	sts	0x02C5, r1	; 0x8002c5 <transfer_col>

		oled_goto(transfer_page, transfer_col);
     f08:	60 91 c5 02 	lds	r22, 0x02C5	; 0x8002c5 <transfer_col>
     f0c:	80 91 c6 02 	lds	r24, 0x02C6	; 0x8002c6 <transfer_page>
     f10:	0e 94 29 07 	call	0xe52	; 0xe52 <oled_goto>
	}
	
	uint16_t bytes_left = BUFFER_SIZE - transfer_pos;
     f14:	80 91 c7 02 	lds	r24, 0x02C7	; 0x8002c7 <transfer_pos>
     f18:	90 91 c8 02 	lds	r25, 0x02C8	; 0x8002c8 <transfer_pos+0x1>
	uint16_t to_send = (bytes_left > CHUNK_SIZE) ? CHUNK_SIZE : bytes_left;
     f1c:	00 e0       	ldi	r16, 0x00	; 0
     f1e:	14 e0       	ldi	r17, 0x04	; 4
     f20:	08 1b       	sub	r16, r24
     f22:	19 0b       	sbc	r17, r25
     f24:	01 34       	cpi	r16, 0x41	; 65
     f26:	11 05       	cpc	r17, r1
     f28:	10 f0       	brcs	.+4      	; 0xf2e <__vector_7+0x6e>
     f2a:	00 e4       	ldi	r16, 0x40	; 64
     f2c:	10 e0       	ldi	r17, 0x00	; 0
	
	//printf("bl=%d, ts=%d, tpos=%d, tpage=%d, tcol=%d, ab=%d, fb=%d\n", bytes_left, to_send, transfer_pos, transfer_page, transfer_pos, active_buf, front_buf);
	
	for (uint16_t i = 0; i < to_send; ++i) {
     f2e:	c0 e0       	ldi	r28, 0x00	; 0
     f30:	d0 e0       	ldi	r29, 0x00	; 0
     f32:	30 c0       	rjmp	.+96     	; 0xf94 <__vector_7+0xd4>
		uint16_t off = buf_base_of(front_buf) + transfer_pos + i;
     f34:	80 91 cb 02 	lds	r24, 0x02CB	; 0x8002cb <front_buf>
	TCCR3B |= (1 << CS32) | (1 << CS30);
	ETIMSK |= (1 << OCIE3A); // Enable compare A interrupt
}

static inline uint16_t buf_base_of(uint8_t bufnum) {
	return (bufnum == 0) ? BUF0_BASE : BUF1_BASE;
     f38:	81 11       	cpse	r24, r1
     f3a:	03 c0       	rjmp	.+6      	; 0xf42 <__vector_7+0x82>
     f3c:	20 e0       	ldi	r18, 0x00	; 0
     f3e:	30 e0       	ldi	r19, 0x00	; 0
     f40:	02 c0       	rjmp	.+4      	; 0xf46 <__vector_7+0x86>
     f42:	20 e0       	ldi	r18, 0x00	; 0
     f44:	34 e0       	ldi	r19, 0x04	; 4
	uint16_t to_send = (bytes_left > CHUNK_SIZE) ? CHUNK_SIZE : bytes_left;
	
	//printf("bl=%d, ts=%d, tpos=%d, tpage=%d, tcol=%d, ab=%d, fb=%d\n", bytes_left, to_send, transfer_pos, transfer_page, transfer_pos, active_buf, front_buf);
	
	for (uint16_t i = 0; i < to_send; ++i) {
		uint16_t off = buf_base_of(front_buf) + transfer_pos + i;
     f46:	80 91 c7 02 	lds	r24, 0x02C7	; 0x8002c7 <transfer_pos>
     f4a:	90 91 c8 02 	lds	r25, 0x02C8	; 0x8002c8 <transfer_pos+0x1>
     f4e:	82 0f       	add	r24, r18
     f50:	93 1f       	adc	r25, r19
		uint8_t b = xmem_read(off);
     f52:	8c 0f       	add	r24, r28
     f54:	9d 1f       	adc	r25, r29
     f56:	0e 94 c6 08 	call	0x118c	; 0x118c <xmem_read>
		oled_set_val(b);
     f5a:	0e 94 4e 07 	call	0xe9c	; 0xe9c <oled_set_val>
		
		transfer_col++;
     f5e:	80 91 c5 02 	lds	r24, 0x02C5	; 0x8002c5 <transfer_col>
     f62:	8f 5f       	subi	r24, 0xFF	; 255
     f64:	80 93 c5 02 	sts	0x02C5, r24	; 0x8002c5 <transfer_col>
		if (transfer_col >= WIDTH) {
     f68:	80 91 c5 02 	lds	r24, 0x02C5	; 0x8002c5 <transfer_col>
     f6c:	88 23       	and	r24, r24
     f6e:	8c f4       	brge	.+34     	; 0xf92 <__vector_7+0xd2>
			// Finished one page -> go to next page.
			transfer_col = 0;
     f70:	10 92 c5 02 	sts	0x02C5, r1	; 0x8002c5 <transfer_col>
			transfer_page++;
     f74:	80 91 c6 02 	lds	r24, 0x02C6	; 0x8002c6 <transfer_page>
     f78:	8f 5f       	subi	r24, 0xFF	; 255
     f7a:	80 93 c6 02 	sts	0x02C6, r24	; 0x8002c6 <transfer_page>
			if (transfer_page < 8) {
     f7e:	80 91 c6 02 	lds	r24, 0x02C6	; 0x8002c6 <transfer_page>
     f82:	88 30       	cpi	r24, 0x08	; 8
     f84:	30 f4       	brcc	.+12     	; 0xf92 <__vector_7+0xd2>
				oled_goto(transfer_page, transfer_col);
     f86:	60 91 c5 02 	lds	r22, 0x02C5	; 0x8002c5 <transfer_col>
     f8a:	80 91 c6 02 	lds	r24, 0x02C6	; 0x8002c6 <transfer_page>
     f8e:	0e 94 29 07 	call	0xe52	; 0xe52 <oled_goto>
	uint16_t bytes_left = BUFFER_SIZE - transfer_pos;
	uint16_t to_send = (bytes_left > CHUNK_SIZE) ? CHUNK_SIZE : bytes_left;
	
	//printf("bl=%d, ts=%d, tpos=%d, tpage=%d, tcol=%d, ab=%d, fb=%d\n", bytes_left, to_send, transfer_pos, transfer_page, transfer_pos, active_buf, front_buf);
	
	for (uint16_t i = 0; i < to_send; ++i) {
     f92:	21 96       	adiw	r28, 0x01	; 1
     f94:	c0 17       	cp	r28, r16
     f96:	d1 07       	cpc	r29, r17
     f98:	68 f2       	brcs	.-102    	; 0xf34 <__vector_7+0x74>
				oled_goto(transfer_page, transfer_col);
			}
		}
	}
	
	transfer_pos += to_send;
     f9a:	80 91 c7 02 	lds	r24, 0x02C7	; 0x8002c7 <transfer_pos>
     f9e:	90 91 c8 02 	lds	r25, 0x02C8	; 0x8002c8 <transfer_pos+0x1>
     fa2:	08 0f       	add	r16, r24
     fa4:	19 1f       	adc	r17, r25
     fa6:	10 93 c8 02 	sts	0x02C8, r17	; 0x8002c8 <transfer_pos+0x1>
     faa:	00 93 c7 02 	sts	0x02C7, r16	; 0x8002c7 <transfer_pos>

	if (transfer_pos >= BUFFER_SIZE) {
     fae:	80 91 c7 02 	lds	r24, 0x02C7	; 0x8002c7 <transfer_pos>
     fb2:	90 91 c8 02 	lds	r25, 0x02C8	; 0x8002c8 <transfer_pos+0x1>
     fb6:	81 15       	cp	r24, r1
     fb8:	94 40       	sbci	r25, 0x04	; 4
     fba:	08 f4       	brcc	.+2      	; 0xfbe <__vector_7+0xfe>
     fbc:	46 c0       	rjmp	.+140    	; 0x104a <__vector_7+0x18a>
		// Finished full buffer
		transfer_in_progress = false;
     fbe:	10 92 c4 02 	sts	0x02C4, r1	; 0x8002c4 <__data_end>

		// If a swap was requested, flip the buffers now (safe point)
		if (swap_requested) {
     fc2:	80 91 ca 02 	lds	r24, 0x02CA	; 0x8002ca <swap_requested>
     fc6:	88 23       	and	r24, r24
     fc8:	09 f4       	brne	.+2      	; 0xfcc <__vector_7+0x10c>
     fca:	3f c0       	rjmp	.+126    	; 0x104a <__vector_7+0x18a>
			cli();
     fcc:	f8 94       	cli
			printf("doing\n");
     fce:	8e eb       	ldi	r24, 0xBE	; 190
     fd0:	92 e0       	ldi	r25, 0x02	; 2
     fd2:	0e 94 09 09 	call	0x1212	; 0x1212 <puts>
			swap_requested = false;
     fd6:	10 92 ca 02 	sts	0x02CA, r1	; 0x8002ca <swap_requested>
			printf("fb=%d, ab=%d\n", front_buf, active_buf);
     fda:	90 91 00 01 	lds	r25, 0x0100	; 0x800100 <__DATA_REGION_ORIGIN__>
     fde:	80 91 cb 02 	lds	r24, 0x02CB	; 0x8002cb <front_buf>
     fe2:	1f 92       	push	r1
     fe4:	9f 93       	push	r25
     fe6:	1f 92       	push	r1
     fe8:	8f 93       	push	r24
     fea:	8b ea       	ldi	r24, 0xAB	; 171
     fec:	92 e0       	ldi	r25, 0x02	; 2
     fee:	9f 93       	push	r25
     ff0:	8f 93       	push	r24
     ff2:	0e 94 ec 08 	call	0x11d8	; 0x11d8 <printf>
			
			front_buf = active_buf;
     ff6:	80 91 00 01 	lds	r24, 0x0100	; 0x800100 <__DATA_REGION_ORIGIN__>
     ffa:	80 93 cb 02 	sts	0x02CB, r24	; 0x8002cb <front_buf>
			active_buf = (active_buf == 0) ? 1 : 0;
     ffe:	90 91 00 01 	lds	r25, 0x0100	; 0x800100 <__DATA_REGION_ORIGIN__>
    1002:	81 e0       	ldi	r24, 0x01	; 1
    1004:	0f 90       	pop	r0
    1006:	0f 90       	pop	r0
    1008:	0f 90       	pop	r0
    100a:	0f 90       	pop	r0
    100c:	0f 90       	pop	r0
    100e:	0f 90       	pop	r0
    1010:	91 11       	cpse	r25, r1
    1012:	80 e0       	ldi	r24, 0x00	; 0
    1014:	80 93 00 01 	sts	0x0100, r24	; 0x800100 <__DATA_REGION_ORIGIN__>
			
			printf("fb=%d, ab=%d\n", front_buf, active_buf);
    1018:	90 91 00 01 	lds	r25, 0x0100	; 0x800100 <__DATA_REGION_ORIGIN__>
    101c:	80 91 cb 02 	lds	r24, 0x02CB	; 0x8002cb <front_buf>
    1020:	1f 92       	push	r1
    1022:	9f 93       	push	r25
    1024:	1f 92       	push	r1
    1026:	8f 93       	push	r24
    1028:	8b ea       	ldi	r24, 0xAB	; 171
    102a:	92 e0       	ldi	r25, 0x02	; 2
    102c:	9f 93       	push	r25
    102e:	8f 93       	push	r24
    1030:	0e 94 ec 08 	call	0x11d8	; 0x11d8 <printf>
			
			// Reseting buffer (optional)
			//uint16_t base = buf_base_of(active_buf);
			//for (uint16_t i = 0; i < BUFFER_SIZE; ++i) xmem_write(0x00, base + i);
			
			sei();
    1034:	78 94       	sei
			printf("done doing\n");
    1036:	89 eb       	ldi	r24, 0xB9	; 185
    1038:	92 e0       	ldi	r25, 0x02	; 2
    103a:	0e 94 09 09 	call	0x1212	; 0x1212 <puts>
    103e:	0f 90       	pop	r0
    1040:	0f 90       	pop	r0
    1042:	0f 90       	pop	r0
    1044:	0f 90       	pop	r0
    1046:	0f 90       	pop	r0
    1048:	0f 90       	pop	r0
		}
	}
}
    104a:	ff 91       	pop	r31
    104c:	ef 91       	pop	r30
    104e:	df 91       	pop	r29
    1050:	cf 91       	pop	r28
    1052:	bf 91       	pop	r27
    1054:	af 91       	pop	r26
    1056:	9f 91       	pop	r25
    1058:	8f 91       	pop	r24
    105a:	7f 91       	pop	r23
    105c:	6f 91       	pop	r22
    105e:	5f 91       	pop	r21
    1060:	4f 91       	pop	r20
    1062:	3f 91       	pop	r19
    1064:	2f 91       	pop	r18
    1066:	1f 91       	pop	r17
    1068:	0f 91       	pop	r16
    106a:	0f 90       	pop	r0
    106c:	0f be       	out	0x3f, r0	; 63
    106e:	0f 90       	pop	r0
    1070:	1f 90       	pop	r1
    1072:	18 95       	reti

00001074 <spi_init>:
#include "spi.h"
#include <avr/io.h>
#include <stdlib.h>

void spi_init(void) {
	DDRB |= (1<<PB2) | (1<<PB3) | (1<<PB4) | (1<<PB5) | (1<<PB7); // output : CS_DISP CS_CAN CS_IO MOSI SCK
    1074:	87 b3       	in	r24, 0x17	; 23
    1076:	8c 6b       	ori	r24, 0xBC	; 188
    1078:	87 bb       	out	0x17, r24	; 23
	DDRB &= ~(1<<PB6);
    107a:	87 b3       	in	r24, 0x17	; 23
    107c:	8f 7b       	andi	r24, 0xBF	; 191
    107e:	87 bb       	out	0x17, r24	; 23
	
	SPCR = (1<<SPE) | (1<<MSTR);
    1080:	80 e5       	ldi	r24, 0x50	; 80
    1082:	8d b9       	out	0x0d, r24	; 13
    1084:	08 95       	ret

00001086 <spi_select_slave>:
}

void spi_select_slave(slave s) {
	if(s == CAN) {
    1086:	81 11       	cpse	r24, r1
    1088:	0a c0       	rjmp	.+20     	; 0x109e <spi_select_slave+0x18>
		PORTB &= ~(1<<PB3);
    108a:	88 b3       	in	r24, 0x18	; 24
    108c:	87 7f       	andi	r24, 0xF7	; 247
    108e:	88 bb       	out	0x18, r24	; 24
		PORTB |= (1<<PB2);
    1090:	88 b3       	in	r24, 0x18	; 24
    1092:	84 60       	ori	r24, 0x04	; 4
    1094:	88 bb       	out	0x18, r24	; 24
		PORTB |= (1<<PB4);
    1096:	88 b3       	in	r24, 0x18	; 24
    1098:	80 61       	ori	r24, 0x10	; 16
    109a:	88 bb       	out	0x18, r24	; 24
    109c:	08 95       	ret
	}
	else if (s == IO) {
    109e:	81 30       	cpi	r24, 0x01	; 1
    10a0:	51 f4       	brne	.+20     	; 0x10b6 <spi_select_slave+0x30>
		PORTB &= ~(1<<PB4);
    10a2:	88 b3       	in	r24, 0x18	; 24
    10a4:	8f 7e       	andi	r24, 0xEF	; 239
    10a6:	88 bb       	out	0x18, r24	; 24
		PORTB |= (1<<PB2);
    10a8:	88 b3       	in	r24, 0x18	; 24
    10aa:	84 60       	ori	r24, 0x04	; 4
    10ac:	88 bb       	out	0x18, r24	; 24
		PORTB |= (1<<PB3);
    10ae:	88 b3       	in	r24, 0x18	; 24
    10b0:	88 60       	ori	r24, 0x08	; 8
    10b2:	88 bb       	out	0x18, r24	; 24
    10b4:	08 95       	ret
	}
	else if (s == DISP) {
    10b6:	82 30       	cpi	r24, 0x02	; 2
    10b8:	51 f4       	brne	.+20     	; 0x10ce <spi_select_slave+0x48>
		PORTB &= ~(1<<PB2);
    10ba:	88 b3       	in	r24, 0x18	; 24
    10bc:	8b 7f       	andi	r24, 0xFB	; 251
    10be:	88 bb       	out	0x18, r24	; 24
		PORTB |= (1<<PB3);
    10c0:	88 b3       	in	r24, 0x18	; 24
    10c2:	88 60       	ori	r24, 0x08	; 8
    10c4:	88 bb       	out	0x18, r24	; 24
		PORTB |= (1<<PB4);
    10c6:	88 b3       	in	r24, 0x18	; 24
    10c8:	80 61       	ori	r24, 0x10	; 16
    10ca:	88 bb       	out	0x18, r24	; 24
    10cc:	08 95       	ret
	}
	else {
		PORTB |= (1<<PB3);
    10ce:	88 b3       	in	r24, 0x18	; 24
    10d0:	88 60       	ori	r24, 0x08	; 8
    10d2:	88 bb       	out	0x18, r24	; 24
		PORTB |= (1<<PB2);
    10d4:	88 b3       	in	r24, 0x18	; 24
    10d6:	84 60       	ori	r24, 0x04	; 4
    10d8:	88 bb       	out	0x18, r24	; 24
		PORTB |= (1<<PB4);
    10da:	88 b3       	in	r24, 0x18	; 24
    10dc:	80 61       	ori	r24, 0x10	; 16
    10de:	88 bb       	out	0x18, r24	; 24
    10e0:	08 95       	ret

000010e2 <spi_write_byte>:
	}
}

void spi_write_byte(uint8_t byte) {
	SPDR = byte; 
    10e2:	8f b9       	out	0x0f, r24	; 15
	while(!(SPSR & (1<<SPIF))); 
    10e4:	77 9b       	sbis	0x0e, 7	; 14
    10e6:	fe cf       	rjmp	.-4      	; 0x10e4 <spi_write_byte+0x2>
}
    10e8:	08 95       	ret

000010ea <spi_read_byte>:

uint8_t spi_read_byte(void) {
	while(!(SPSR & (1<<SPIF))); 
    10ea:	77 9b       	sbis	0x0e, 7	; 14
    10ec:	fe cf       	rjmp	.-4      	; 0x10ea <spi_read_byte>
	return SPDR; 
    10ee:	8f b1       	in	r24, 0x0f	; 15
}
    10f0:	08 95       	ret

000010f2 <__vector_19>:
		*data = uart_rx_data;
		uart_rx_flag = 0;
		return 1; // success
	}
	return 0; // no data
}
    10f2:	1f 92       	push	r1
    10f4:	0f 92       	push	r0
    10f6:	0f b6       	in	r0, 0x3f	; 63
    10f8:	0f 92       	push	r0
    10fa:	11 24       	eor	r1, r1
    10fc:	8f 93       	push	r24
    10fe:	8c b1       	in	r24, 0x0c	; 12
    1100:	80 93 d9 02 	sts	0x02D9, r24	; 0x8002d9 <uart_rx_data>
    1104:	81 e0       	ldi	r24, 0x01	; 1
    1106:	80 93 cc 02 	sts	0x02CC, r24	; 0x8002cc <uart_rx_flag>
    110a:	8f 91       	pop	r24
    110c:	0f 90       	pop	r0
    110e:	0f be       	out	0x3f, r0	; 63
    1110:	0f 90       	pop	r0
    1112:	1f 90       	pop	r1
    1114:	18 95       	reti

00001116 <uart_send_byte>:
    1116:	5d 9b       	sbis	0x0b, 5	; 11
    1118:	fe cf       	rjmp	.-4      	; 0x1116 <uart_send_byte>
    111a:	8c b9       	out	0x0c, r24	; 12
    111c:	08 95       	ret

0000111e <uart_putchar>:
    111e:	cf 93       	push	r28
    1120:	c8 2f       	mov	r28, r24
    1122:	8a 30       	cpi	r24, 0x0A	; 10
    1124:	19 f4       	brne	.+6      	; 0x112c <uart_putchar+0xe>
    1126:	8d e0       	ldi	r24, 0x0D	; 13
    1128:	0e 94 8b 08 	call	0x1116	; 0x1116 <uart_send_byte>
    112c:	8c 2f       	mov	r24, r28
    112e:	0e 94 8b 08 	call	0x1116	; 0x1116 <uart_send_byte>
    1132:	80 e0       	ldi	r24, 0x00	; 0
    1134:	90 e0       	ldi	r25, 0x00	; 0
    1136:	cf 91       	pop	r28
    1138:	08 95       	ret

0000113a <uart_printf_init>:
	uart_send_byte(c);
	return 0;
}

void uart_printf_init() {
	stdout = &uart_output; // redirect printf to UART
    113a:	81 e0       	ldi	r24, 0x01	; 1
    113c:	91 e0       	ldi	r25, 0x01	; 1
    113e:	90 93 dd 02 	sts	0x02DD, r25	; 0x8002dd <__iob+0x3>
    1142:	80 93 dc 02 	sts	0x02DC, r24	; 0x8002dc <__iob+0x2>
    1146:	08 95       	ret

00001148 <uart_init>:
ISR(USART0_RXC_vect) {
	uart_rx_data = UDR0; // Read receive byte
	uart_rx_flag = 1;    // used by main program to check if data was received
}

void uart_init(uint32_t baudrate) {
    1148:	9b 01       	movw	r18, r22
    114a:	ac 01       	movw	r20, r24
	uint16_t ubrr = F_CPU/16/baudrate - 1;
    114c:	60 e0       	ldi	r22, 0x00	; 0
    114e:	70 eb       	ldi	r23, 0xB0	; 176
    1150:	84 e0       	ldi	r24, 0x04	; 4
    1152:	90 e0       	ldi	r25, 0x00	; 0
    1154:	0e 94 ca 08 	call	0x1194	; 0x1194 <__udivmodsi4>
    1158:	21 50       	subi	r18, 0x01	; 1
    115a:	31 09       	sbc	r19, r1
	UBRR0H = (uint8_t)(ubrr >> 8);
    115c:	30 bd       	out	0x20, r19	; 32
	UBRR0L = (uint8_t)(ubrr & 0xFF);
    115e:	29 b9       	out	0x09, r18	; 9
	
	UCSR0B = (1 << RXEN0) | (1 << TXEN0) | (1 << RXCIE0); // Enable Rx, Tx, and Rx interrupt
    1160:	88 e9       	ldi	r24, 0x98	; 152
    1162:	8a b9       	out	0x0a, r24	; 10
	UCSR0C = (1 << URSEL0) | (1 << UCSZ01) | (1 << UCSZ00); // Set length of data to 8 bits, no parity, one stop bit
    1164:	86 e8       	ldi	r24, 0x86	; 134
    1166:	80 bd       	out	0x20, r24	; 32
	
	uart_printf_init();
    1168:	0e 94 9d 08 	call	0x113a	; 0x113a <uart_printf_init>
	printf("\n");
    116c:	8a e0       	ldi	r24, 0x0A	; 10
    116e:	90 e0       	ldi	r25, 0x00	; 0
    1170:	0e 94 02 09 	call	0x1204	; 0x1204 <putchar>
    1174:	08 95       	ret

00001176 <xmem_init>:
#include "xmem.h"

#define BASE_ADDRESS 0x1400

void xmem_init(void) {
	MCUCR |= (1 << SRE);	// Enable XMEM
    1176:	85 b7       	in	r24, 0x35	; 53
    1178:	80 68       	ori	r24, 0x80	; 128
    117a:	85 bf       	out	0x35, r24	; 53
	SFIOR |= (1 << XMM0);   // mask bits to reduce bus width (leaving JTAG alone)
    117c:	80 b7       	in	r24, 0x30	; 48
    117e:	88 60       	ori	r24, 0x08	; 8
    1180:	80 bf       	out	0x30, r24	; 48
    1182:	08 95       	ret

00001184 <xmem_write>:
}

void xmem_write(uint8_t data, uint16_t addr) {
	volatile char *ext_mem = (char *) BASE_ADDRESS;
	ext_mem[addr] = data;
    1184:	fb 01       	movw	r30, r22
    1186:	fc 5e       	subi	r31, 0xEC	; 236
    1188:	80 83       	st	Z, r24
    118a:	08 95       	ret

0000118c <xmem_read>:
}

uint8_t xmem_read(uint16_t addr) {
	volatile char * ext_mem = ( char *) BASE_ADDRESS ;
	uint8_t ret_val = ext_mem [ addr ];
    118c:	9c 5e       	subi	r25, 0xEC	; 236
    118e:	fc 01       	movw	r30, r24
    1190:	80 81       	ld	r24, Z
	return ret_val ;
    1192:	08 95       	ret

00001194 <__udivmodsi4>:
    1194:	a1 e2       	ldi	r26, 0x21	; 33
    1196:	1a 2e       	mov	r1, r26
    1198:	aa 1b       	sub	r26, r26
    119a:	bb 1b       	sub	r27, r27
    119c:	fd 01       	movw	r30, r26
    119e:	0d c0       	rjmp	.+26     	; 0x11ba <__udivmodsi4_ep>

000011a0 <__udivmodsi4_loop>:
    11a0:	aa 1f       	adc	r26, r26
    11a2:	bb 1f       	adc	r27, r27
    11a4:	ee 1f       	adc	r30, r30
    11a6:	ff 1f       	adc	r31, r31
    11a8:	a2 17       	cp	r26, r18
    11aa:	b3 07       	cpc	r27, r19
    11ac:	e4 07       	cpc	r30, r20
    11ae:	f5 07       	cpc	r31, r21
    11b0:	20 f0       	brcs	.+8      	; 0x11ba <__udivmodsi4_ep>
    11b2:	a2 1b       	sub	r26, r18
    11b4:	b3 0b       	sbc	r27, r19
    11b6:	e4 0b       	sbc	r30, r20
    11b8:	f5 0b       	sbc	r31, r21

000011ba <__udivmodsi4_ep>:
    11ba:	66 1f       	adc	r22, r22
    11bc:	77 1f       	adc	r23, r23
    11be:	88 1f       	adc	r24, r24
    11c0:	99 1f       	adc	r25, r25
    11c2:	1a 94       	dec	r1
    11c4:	69 f7       	brne	.-38     	; 0x11a0 <__udivmodsi4_loop>
    11c6:	60 95       	com	r22
    11c8:	70 95       	com	r23
    11ca:	80 95       	com	r24
    11cc:	90 95       	com	r25
    11ce:	9b 01       	movw	r18, r22
    11d0:	ac 01       	movw	r20, r24
    11d2:	bd 01       	movw	r22, r26
    11d4:	cf 01       	movw	r24, r30
    11d6:	08 95       	ret

000011d8 <printf>:
    11d8:	a0 e0       	ldi	r26, 0x00	; 0
    11da:	b0 e0       	ldi	r27, 0x00	; 0
    11dc:	e2 ef       	ldi	r30, 0xF2	; 242
    11de:	f8 e0       	ldi	r31, 0x08	; 8
    11e0:	0c 94 da 0b 	jmp	0x17b4	; 0x17b4 <__prologue_saves__+0x20>
    11e4:	ae 01       	movw	r20, r28
    11e6:	4b 5f       	subi	r20, 0xFB	; 251
    11e8:	5f 4f       	sbci	r21, 0xFF	; 255
    11ea:	fa 01       	movw	r30, r20
    11ec:	61 91       	ld	r22, Z+
    11ee:	71 91       	ld	r23, Z+
    11f0:	af 01       	movw	r20, r30
    11f2:	80 91 dc 02 	lds	r24, 0x02DC	; 0x8002dc <__iob+0x2>
    11f6:	90 91 dd 02 	lds	r25, 0x02DD	; 0x8002dd <__iob+0x3>
    11fa:	0e 94 39 09 	call	0x1272	; 0x1272 <vfprintf>
    11fe:	e2 e0       	ldi	r30, 0x02	; 2
    1200:	0c 94 f6 0b 	jmp	0x17ec	; 0x17ec <__epilogue_restores__+0x20>

00001204 <putchar>:
    1204:	60 91 dc 02 	lds	r22, 0x02DC	; 0x8002dc <__iob+0x2>
    1208:	70 91 dd 02 	lds	r23, 0x02DD	; 0x8002dd <__iob+0x3>
    120c:	0e 94 30 0b 	call	0x1660	; 0x1660 <fputc>
    1210:	08 95       	ret

00001212 <puts>:
    1212:	0f 93       	push	r16
    1214:	1f 93       	push	r17
    1216:	cf 93       	push	r28
    1218:	df 93       	push	r29
    121a:	e0 91 dc 02 	lds	r30, 0x02DC	; 0x8002dc <__iob+0x2>
    121e:	f0 91 dd 02 	lds	r31, 0x02DD	; 0x8002dd <__iob+0x3>
    1222:	23 81       	ldd	r18, Z+3	; 0x03
    1224:	21 ff       	sbrs	r18, 1
    1226:	1b c0       	rjmp	.+54     	; 0x125e <puts+0x4c>
    1228:	8c 01       	movw	r16, r24
    122a:	d0 e0       	ldi	r29, 0x00	; 0
    122c:	c0 e0       	ldi	r28, 0x00	; 0
    122e:	f8 01       	movw	r30, r16
    1230:	81 91       	ld	r24, Z+
    1232:	8f 01       	movw	r16, r30
    1234:	60 91 dc 02 	lds	r22, 0x02DC	; 0x8002dc <__iob+0x2>
    1238:	70 91 dd 02 	lds	r23, 0x02DD	; 0x8002dd <__iob+0x3>
    123c:	db 01       	movw	r26, r22
    123e:	18 96       	adiw	r26, 0x08	; 8
    1240:	ed 91       	ld	r30, X+
    1242:	fc 91       	ld	r31, X
    1244:	19 97       	sbiw	r26, 0x09	; 9
    1246:	88 23       	and	r24, r24
    1248:	31 f0       	breq	.+12     	; 0x1256 <puts+0x44>
    124a:	09 95       	icall
    124c:	89 2b       	or	r24, r25
    124e:	79 f3       	breq	.-34     	; 0x122e <puts+0x1c>
    1250:	df ef       	ldi	r29, 0xFF	; 255
    1252:	cf ef       	ldi	r28, 0xFF	; 255
    1254:	ec cf       	rjmp	.-40     	; 0x122e <puts+0x1c>
    1256:	8a e0       	ldi	r24, 0x0A	; 10
    1258:	09 95       	icall
    125a:	89 2b       	or	r24, r25
    125c:	19 f0       	breq	.+6      	; 0x1264 <puts+0x52>
    125e:	8f ef       	ldi	r24, 0xFF	; 255
    1260:	9f ef       	ldi	r25, 0xFF	; 255
    1262:	02 c0       	rjmp	.+4      	; 0x1268 <puts+0x56>
    1264:	8d 2f       	mov	r24, r29
    1266:	9c 2f       	mov	r25, r28
    1268:	df 91       	pop	r29
    126a:	cf 91       	pop	r28
    126c:	1f 91       	pop	r17
    126e:	0f 91       	pop	r16
    1270:	08 95       	ret

00001272 <vfprintf>:
    1272:	ab e0       	ldi	r26, 0x0B	; 11
    1274:	b0 e0       	ldi	r27, 0x00	; 0
    1276:	ef e3       	ldi	r30, 0x3F	; 63
    1278:	f9 e0       	ldi	r31, 0x09	; 9
    127a:	0c 94 ca 0b 	jmp	0x1794	; 0x1794 <__prologue_saves__>
    127e:	6c 01       	movw	r12, r24
    1280:	7b 01       	movw	r14, r22
    1282:	8a 01       	movw	r16, r20
    1284:	fc 01       	movw	r30, r24
    1286:	17 82       	std	Z+7, r1	; 0x07
    1288:	16 82       	std	Z+6, r1	; 0x06
    128a:	83 81       	ldd	r24, Z+3	; 0x03
    128c:	81 ff       	sbrs	r24, 1
    128e:	cc c1       	rjmp	.+920    	; 0x1628 <vfprintf+0x3b6>
    1290:	ce 01       	movw	r24, r28
    1292:	01 96       	adiw	r24, 0x01	; 1
    1294:	3c 01       	movw	r6, r24
    1296:	f6 01       	movw	r30, r12
    1298:	93 81       	ldd	r25, Z+3	; 0x03
    129a:	f7 01       	movw	r30, r14
    129c:	93 fd       	sbrc	r25, 3
    129e:	85 91       	lpm	r24, Z+
    12a0:	93 ff       	sbrs	r25, 3
    12a2:	81 91       	ld	r24, Z+
    12a4:	7f 01       	movw	r14, r30
    12a6:	88 23       	and	r24, r24
    12a8:	09 f4       	brne	.+2      	; 0x12ac <vfprintf+0x3a>
    12aa:	ba c1       	rjmp	.+884    	; 0x1620 <vfprintf+0x3ae>
    12ac:	85 32       	cpi	r24, 0x25	; 37
    12ae:	39 f4       	brne	.+14     	; 0x12be <vfprintf+0x4c>
    12b0:	93 fd       	sbrc	r25, 3
    12b2:	85 91       	lpm	r24, Z+
    12b4:	93 ff       	sbrs	r25, 3
    12b6:	81 91       	ld	r24, Z+
    12b8:	7f 01       	movw	r14, r30
    12ba:	85 32       	cpi	r24, 0x25	; 37
    12bc:	29 f4       	brne	.+10     	; 0x12c8 <vfprintf+0x56>
    12be:	b6 01       	movw	r22, r12
    12c0:	90 e0       	ldi	r25, 0x00	; 0
    12c2:	0e 94 30 0b 	call	0x1660	; 0x1660 <fputc>
    12c6:	e7 cf       	rjmp	.-50     	; 0x1296 <vfprintf+0x24>
    12c8:	91 2c       	mov	r9, r1
    12ca:	21 2c       	mov	r2, r1
    12cc:	31 2c       	mov	r3, r1
    12ce:	ff e1       	ldi	r31, 0x1F	; 31
    12d0:	f3 15       	cp	r31, r3
    12d2:	d8 f0       	brcs	.+54     	; 0x130a <vfprintf+0x98>
    12d4:	8b 32       	cpi	r24, 0x2B	; 43
    12d6:	79 f0       	breq	.+30     	; 0x12f6 <vfprintf+0x84>
    12d8:	38 f4       	brcc	.+14     	; 0x12e8 <vfprintf+0x76>
    12da:	80 32       	cpi	r24, 0x20	; 32
    12dc:	79 f0       	breq	.+30     	; 0x12fc <vfprintf+0x8a>
    12de:	83 32       	cpi	r24, 0x23	; 35
    12e0:	a1 f4       	brne	.+40     	; 0x130a <vfprintf+0x98>
    12e2:	23 2d       	mov	r18, r3
    12e4:	20 61       	ori	r18, 0x10	; 16
    12e6:	1d c0       	rjmp	.+58     	; 0x1322 <vfprintf+0xb0>
    12e8:	8d 32       	cpi	r24, 0x2D	; 45
    12ea:	61 f0       	breq	.+24     	; 0x1304 <vfprintf+0x92>
    12ec:	80 33       	cpi	r24, 0x30	; 48
    12ee:	69 f4       	brne	.+26     	; 0x130a <vfprintf+0x98>
    12f0:	23 2d       	mov	r18, r3
    12f2:	21 60       	ori	r18, 0x01	; 1
    12f4:	16 c0       	rjmp	.+44     	; 0x1322 <vfprintf+0xb0>
    12f6:	83 2d       	mov	r24, r3
    12f8:	82 60       	ori	r24, 0x02	; 2
    12fa:	38 2e       	mov	r3, r24
    12fc:	e3 2d       	mov	r30, r3
    12fe:	e4 60       	ori	r30, 0x04	; 4
    1300:	3e 2e       	mov	r3, r30
    1302:	2a c0       	rjmp	.+84     	; 0x1358 <vfprintf+0xe6>
    1304:	f3 2d       	mov	r31, r3
    1306:	f8 60       	ori	r31, 0x08	; 8
    1308:	1d c0       	rjmp	.+58     	; 0x1344 <vfprintf+0xd2>
    130a:	37 fc       	sbrc	r3, 7
    130c:	2d c0       	rjmp	.+90     	; 0x1368 <vfprintf+0xf6>
    130e:	20 ed       	ldi	r18, 0xD0	; 208
    1310:	28 0f       	add	r18, r24
    1312:	2a 30       	cpi	r18, 0x0A	; 10
    1314:	40 f0       	brcs	.+16     	; 0x1326 <vfprintf+0xb4>
    1316:	8e 32       	cpi	r24, 0x2E	; 46
    1318:	b9 f4       	brne	.+46     	; 0x1348 <vfprintf+0xd6>
    131a:	36 fc       	sbrc	r3, 6
    131c:	81 c1       	rjmp	.+770    	; 0x1620 <vfprintf+0x3ae>
    131e:	23 2d       	mov	r18, r3
    1320:	20 64       	ori	r18, 0x40	; 64
    1322:	32 2e       	mov	r3, r18
    1324:	19 c0       	rjmp	.+50     	; 0x1358 <vfprintf+0xe6>
    1326:	36 fe       	sbrs	r3, 6
    1328:	06 c0       	rjmp	.+12     	; 0x1336 <vfprintf+0xc4>
    132a:	8a e0       	ldi	r24, 0x0A	; 10
    132c:	98 9e       	mul	r9, r24
    132e:	20 0d       	add	r18, r0
    1330:	11 24       	eor	r1, r1
    1332:	92 2e       	mov	r9, r18
    1334:	11 c0       	rjmp	.+34     	; 0x1358 <vfprintf+0xe6>
    1336:	ea e0       	ldi	r30, 0x0A	; 10
    1338:	2e 9e       	mul	r2, r30
    133a:	20 0d       	add	r18, r0
    133c:	11 24       	eor	r1, r1
    133e:	22 2e       	mov	r2, r18
    1340:	f3 2d       	mov	r31, r3
    1342:	f0 62       	ori	r31, 0x20	; 32
    1344:	3f 2e       	mov	r3, r31
    1346:	08 c0       	rjmp	.+16     	; 0x1358 <vfprintf+0xe6>
    1348:	8c 36       	cpi	r24, 0x6C	; 108
    134a:	21 f4       	brne	.+8      	; 0x1354 <vfprintf+0xe2>
    134c:	83 2d       	mov	r24, r3
    134e:	80 68       	ori	r24, 0x80	; 128
    1350:	38 2e       	mov	r3, r24
    1352:	02 c0       	rjmp	.+4      	; 0x1358 <vfprintf+0xe6>
    1354:	88 36       	cpi	r24, 0x68	; 104
    1356:	41 f4       	brne	.+16     	; 0x1368 <vfprintf+0xf6>
    1358:	f7 01       	movw	r30, r14
    135a:	93 fd       	sbrc	r25, 3
    135c:	85 91       	lpm	r24, Z+
    135e:	93 ff       	sbrs	r25, 3
    1360:	81 91       	ld	r24, Z+
    1362:	7f 01       	movw	r14, r30
    1364:	81 11       	cpse	r24, r1
    1366:	b3 cf       	rjmp	.-154    	; 0x12ce <vfprintf+0x5c>
    1368:	98 2f       	mov	r25, r24
    136a:	9f 7d       	andi	r25, 0xDF	; 223
    136c:	95 54       	subi	r25, 0x45	; 69
    136e:	93 30       	cpi	r25, 0x03	; 3
    1370:	28 f4       	brcc	.+10     	; 0x137c <vfprintf+0x10a>
    1372:	0c 5f       	subi	r16, 0xFC	; 252
    1374:	1f 4f       	sbci	r17, 0xFF	; 255
    1376:	9f e3       	ldi	r25, 0x3F	; 63
    1378:	99 83       	std	Y+1, r25	; 0x01
    137a:	0d c0       	rjmp	.+26     	; 0x1396 <vfprintf+0x124>
    137c:	83 36       	cpi	r24, 0x63	; 99
    137e:	31 f0       	breq	.+12     	; 0x138c <vfprintf+0x11a>
    1380:	83 37       	cpi	r24, 0x73	; 115
    1382:	71 f0       	breq	.+28     	; 0x13a0 <vfprintf+0x12e>
    1384:	83 35       	cpi	r24, 0x53	; 83
    1386:	09 f0       	breq	.+2      	; 0x138a <vfprintf+0x118>
    1388:	59 c0       	rjmp	.+178    	; 0x143c <vfprintf+0x1ca>
    138a:	21 c0       	rjmp	.+66     	; 0x13ce <vfprintf+0x15c>
    138c:	f8 01       	movw	r30, r16
    138e:	80 81       	ld	r24, Z
    1390:	89 83       	std	Y+1, r24	; 0x01
    1392:	0e 5f       	subi	r16, 0xFE	; 254
    1394:	1f 4f       	sbci	r17, 0xFF	; 255
    1396:	88 24       	eor	r8, r8
    1398:	83 94       	inc	r8
    139a:	91 2c       	mov	r9, r1
    139c:	53 01       	movw	r10, r6
    139e:	13 c0       	rjmp	.+38     	; 0x13c6 <vfprintf+0x154>
    13a0:	28 01       	movw	r4, r16
    13a2:	f2 e0       	ldi	r31, 0x02	; 2
    13a4:	4f 0e       	add	r4, r31
    13a6:	51 1c       	adc	r5, r1
    13a8:	f8 01       	movw	r30, r16
    13aa:	a0 80       	ld	r10, Z
    13ac:	b1 80       	ldd	r11, Z+1	; 0x01
    13ae:	36 fe       	sbrs	r3, 6
    13b0:	03 c0       	rjmp	.+6      	; 0x13b8 <vfprintf+0x146>
    13b2:	69 2d       	mov	r22, r9
    13b4:	70 e0       	ldi	r23, 0x00	; 0
    13b6:	02 c0       	rjmp	.+4      	; 0x13bc <vfprintf+0x14a>
    13b8:	6f ef       	ldi	r22, 0xFF	; 255
    13ba:	7f ef       	ldi	r23, 0xFF	; 255
    13bc:	c5 01       	movw	r24, r10
    13be:	0e 94 25 0b 	call	0x164a	; 0x164a <strnlen>
    13c2:	4c 01       	movw	r8, r24
    13c4:	82 01       	movw	r16, r4
    13c6:	f3 2d       	mov	r31, r3
    13c8:	ff 77       	andi	r31, 0x7F	; 127
    13ca:	3f 2e       	mov	r3, r31
    13cc:	16 c0       	rjmp	.+44     	; 0x13fa <vfprintf+0x188>
    13ce:	28 01       	movw	r4, r16
    13d0:	22 e0       	ldi	r18, 0x02	; 2
    13d2:	42 0e       	add	r4, r18
    13d4:	51 1c       	adc	r5, r1
    13d6:	f8 01       	movw	r30, r16
    13d8:	a0 80       	ld	r10, Z
    13da:	b1 80       	ldd	r11, Z+1	; 0x01
    13dc:	36 fe       	sbrs	r3, 6
    13de:	03 c0       	rjmp	.+6      	; 0x13e6 <vfprintf+0x174>
    13e0:	69 2d       	mov	r22, r9
    13e2:	70 e0       	ldi	r23, 0x00	; 0
    13e4:	02 c0       	rjmp	.+4      	; 0x13ea <vfprintf+0x178>
    13e6:	6f ef       	ldi	r22, 0xFF	; 255
    13e8:	7f ef       	ldi	r23, 0xFF	; 255
    13ea:	c5 01       	movw	r24, r10
    13ec:	0e 94 1a 0b 	call	0x1634	; 0x1634 <strnlen_P>
    13f0:	4c 01       	movw	r8, r24
    13f2:	f3 2d       	mov	r31, r3
    13f4:	f0 68       	ori	r31, 0x80	; 128
    13f6:	3f 2e       	mov	r3, r31
    13f8:	82 01       	movw	r16, r4
    13fa:	33 fc       	sbrc	r3, 3
    13fc:	1b c0       	rjmp	.+54     	; 0x1434 <vfprintf+0x1c2>
    13fe:	82 2d       	mov	r24, r2
    1400:	90 e0       	ldi	r25, 0x00	; 0
    1402:	88 16       	cp	r8, r24
    1404:	99 06       	cpc	r9, r25
    1406:	b0 f4       	brcc	.+44     	; 0x1434 <vfprintf+0x1c2>
    1408:	b6 01       	movw	r22, r12
    140a:	80 e2       	ldi	r24, 0x20	; 32
    140c:	90 e0       	ldi	r25, 0x00	; 0
    140e:	0e 94 30 0b 	call	0x1660	; 0x1660 <fputc>
    1412:	2a 94       	dec	r2
    1414:	f4 cf       	rjmp	.-24     	; 0x13fe <vfprintf+0x18c>
    1416:	f5 01       	movw	r30, r10
    1418:	37 fc       	sbrc	r3, 7
    141a:	85 91       	lpm	r24, Z+
    141c:	37 fe       	sbrs	r3, 7
    141e:	81 91       	ld	r24, Z+
    1420:	5f 01       	movw	r10, r30
    1422:	b6 01       	movw	r22, r12
    1424:	90 e0       	ldi	r25, 0x00	; 0
    1426:	0e 94 30 0b 	call	0x1660	; 0x1660 <fputc>
    142a:	21 10       	cpse	r2, r1
    142c:	2a 94       	dec	r2
    142e:	21 e0       	ldi	r18, 0x01	; 1
    1430:	82 1a       	sub	r8, r18
    1432:	91 08       	sbc	r9, r1
    1434:	81 14       	cp	r8, r1
    1436:	91 04       	cpc	r9, r1
    1438:	71 f7       	brne	.-36     	; 0x1416 <vfprintf+0x1a4>
    143a:	e8 c0       	rjmp	.+464    	; 0x160c <vfprintf+0x39a>
    143c:	84 36       	cpi	r24, 0x64	; 100
    143e:	11 f0       	breq	.+4      	; 0x1444 <vfprintf+0x1d2>
    1440:	89 36       	cpi	r24, 0x69	; 105
    1442:	41 f5       	brne	.+80     	; 0x1494 <vfprintf+0x222>
    1444:	f8 01       	movw	r30, r16
    1446:	37 fe       	sbrs	r3, 7
    1448:	07 c0       	rjmp	.+14     	; 0x1458 <vfprintf+0x1e6>
    144a:	60 81       	ld	r22, Z
    144c:	71 81       	ldd	r23, Z+1	; 0x01
    144e:	82 81       	ldd	r24, Z+2	; 0x02
    1450:	93 81       	ldd	r25, Z+3	; 0x03
    1452:	0c 5f       	subi	r16, 0xFC	; 252
    1454:	1f 4f       	sbci	r17, 0xFF	; 255
    1456:	08 c0       	rjmp	.+16     	; 0x1468 <vfprintf+0x1f6>
    1458:	60 81       	ld	r22, Z
    145a:	71 81       	ldd	r23, Z+1	; 0x01
    145c:	07 2e       	mov	r0, r23
    145e:	00 0c       	add	r0, r0
    1460:	88 0b       	sbc	r24, r24
    1462:	99 0b       	sbc	r25, r25
    1464:	0e 5f       	subi	r16, 0xFE	; 254
    1466:	1f 4f       	sbci	r17, 0xFF	; 255
    1468:	f3 2d       	mov	r31, r3
    146a:	ff 76       	andi	r31, 0x6F	; 111
    146c:	3f 2e       	mov	r3, r31
    146e:	97 ff       	sbrs	r25, 7
    1470:	09 c0       	rjmp	.+18     	; 0x1484 <vfprintf+0x212>
    1472:	90 95       	com	r25
    1474:	80 95       	com	r24
    1476:	70 95       	com	r23
    1478:	61 95       	neg	r22
    147a:	7f 4f       	sbci	r23, 0xFF	; 255
    147c:	8f 4f       	sbci	r24, 0xFF	; 255
    147e:	9f 4f       	sbci	r25, 0xFF	; 255
    1480:	f0 68       	ori	r31, 0x80	; 128
    1482:	3f 2e       	mov	r3, r31
    1484:	2a e0       	ldi	r18, 0x0A	; 10
    1486:	30 e0       	ldi	r19, 0x00	; 0
    1488:	a3 01       	movw	r20, r6
    148a:	0e 94 6c 0b 	call	0x16d8	; 0x16d8 <__ultoa_invert>
    148e:	88 2e       	mov	r8, r24
    1490:	86 18       	sub	r8, r6
    1492:	45 c0       	rjmp	.+138    	; 0x151e <vfprintf+0x2ac>
    1494:	85 37       	cpi	r24, 0x75	; 117
    1496:	31 f4       	brne	.+12     	; 0x14a4 <vfprintf+0x232>
    1498:	23 2d       	mov	r18, r3
    149a:	2f 7e       	andi	r18, 0xEF	; 239
    149c:	b2 2e       	mov	r11, r18
    149e:	2a e0       	ldi	r18, 0x0A	; 10
    14a0:	30 e0       	ldi	r19, 0x00	; 0
    14a2:	25 c0       	rjmp	.+74     	; 0x14ee <vfprintf+0x27c>
    14a4:	93 2d       	mov	r25, r3
    14a6:	99 7f       	andi	r25, 0xF9	; 249
    14a8:	b9 2e       	mov	r11, r25
    14aa:	8f 36       	cpi	r24, 0x6F	; 111
    14ac:	c1 f0       	breq	.+48     	; 0x14de <vfprintf+0x26c>
    14ae:	18 f4       	brcc	.+6      	; 0x14b6 <vfprintf+0x244>
    14b0:	88 35       	cpi	r24, 0x58	; 88
    14b2:	79 f0       	breq	.+30     	; 0x14d2 <vfprintf+0x260>
    14b4:	b5 c0       	rjmp	.+362    	; 0x1620 <vfprintf+0x3ae>
    14b6:	80 37       	cpi	r24, 0x70	; 112
    14b8:	19 f0       	breq	.+6      	; 0x14c0 <vfprintf+0x24e>
    14ba:	88 37       	cpi	r24, 0x78	; 120
    14bc:	21 f0       	breq	.+8      	; 0x14c6 <vfprintf+0x254>
    14be:	b0 c0       	rjmp	.+352    	; 0x1620 <vfprintf+0x3ae>
    14c0:	e9 2f       	mov	r30, r25
    14c2:	e0 61       	ori	r30, 0x10	; 16
    14c4:	be 2e       	mov	r11, r30
    14c6:	b4 fe       	sbrs	r11, 4
    14c8:	0d c0       	rjmp	.+26     	; 0x14e4 <vfprintf+0x272>
    14ca:	fb 2d       	mov	r31, r11
    14cc:	f4 60       	ori	r31, 0x04	; 4
    14ce:	bf 2e       	mov	r11, r31
    14d0:	09 c0       	rjmp	.+18     	; 0x14e4 <vfprintf+0x272>
    14d2:	34 fe       	sbrs	r3, 4
    14d4:	0a c0       	rjmp	.+20     	; 0x14ea <vfprintf+0x278>
    14d6:	29 2f       	mov	r18, r25
    14d8:	26 60       	ori	r18, 0x06	; 6
    14da:	b2 2e       	mov	r11, r18
    14dc:	06 c0       	rjmp	.+12     	; 0x14ea <vfprintf+0x278>
    14de:	28 e0       	ldi	r18, 0x08	; 8
    14e0:	30 e0       	ldi	r19, 0x00	; 0
    14e2:	05 c0       	rjmp	.+10     	; 0x14ee <vfprintf+0x27c>
    14e4:	20 e1       	ldi	r18, 0x10	; 16
    14e6:	30 e0       	ldi	r19, 0x00	; 0
    14e8:	02 c0       	rjmp	.+4      	; 0x14ee <vfprintf+0x27c>
    14ea:	20 e1       	ldi	r18, 0x10	; 16
    14ec:	32 e0       	ldi	r19, 0x02	; 2
    14ee:	f8 01       	movw	r30, r16
    14f0:	b7 fe       	sbrs	r11, 7
    14f2:	07 c0       	rjmp	.+14     	; 0x1502 <vfprintf+0x290>
    14f4:	60 81       	ld	r22, Z
    14f6:	71 81       	ldd	r23, Z+1	; 0x01
    14f8:	82 81       	ldd	r24, Z+2	; 0x02
    14fa:	93 81       	ldd	r25, Z+3	; 0x03
    14fc:	0c 5f       	subi	r16, 0xFC	; 252
    14fe:	1f 4f       	sbci	r17, 0xFF	; 255
    1500:	06 c0       	rjmp	.+12     	; 0x150e <vfprintf+0x29c>
    1502:	60 81       	ld	r22, Z
    1504:	71 81       	ldd	r23, Z+1	; 0x01
    1506:	80 e0       	ldi	r24, 0x00	; 0
    1508:	90 e0       	ldi	r25, 0x00	; 0
    150a:	0e 5f       	subi	r16, 0xFE	; 254
    150c:	1f 4f       	sbci	r17, 0xFF	; 255
    150e:	a3 01       	movw	r20, r6
    1510:	0e 94 6c 0b 	call	0x16d8	; 0x16d8 <__ultoa_invert>
    1514:	88 2e       	mov	r8, r24
    1516:	86 18       	sub	r8, r6
    1518:	fb 2d       	mov	r31, r11
    151a:	ff 77       	andi	r31, 0x7F	; 127
    151c:	3f 2e       	mov	r3, r31
    151e:	36 fe       	sbrs	r3, 6
    1520:	0d c0       	rjmp	.+26     	; 0x153c <vfprintf+0x2ca>
    1522:	23 2d       	mov	r18, r3
    1524:	2e 7f       	andi	r18, 0xFE	; 254
    1526:	a2 2e       	mov	r10, r18
    1528:	89 14       	cp	r8, r9
    152a:	58 f4       	brcc	.+22     	; 0x1542 <vfprintf+0x2d0>
    152c:	34 fe       	sbrs	r3, 4
    152e:	0b c0       	rjmp	.+22     	; 0x1546 <vfprintf+0x2d4>
    1530:	32 fc       	sbrc	r3, 2
    1532:	09 c0       	rjmp	.+18     	; 0x1546 <vfprintf+0x2d4>
    1534:	83 2d       	mov	r24, r3
    1536:	8e 7e       	andi	r24, 0xEE	; 238
    1538:	a8 2e       	mov	r10, r24
    153a:	05 c0       	rjmp	.+10     	; 0x1546 <vfprintf+0x2d4>
    153c:	b8 2c       	mov	r11, r8
    153e:	a3 2c       	mov	r10, r3
    1540:	03 c0       	rjmp	.+6      	; 0x1548 <vfprintf+0x2d6>
    1542:	b8 2c       	mov	r11, r8
    1544:	01 c0       	rjmp	.+2      	; 0x1548 <vfprintf+0x2d6>
    1546:	b9 2c       	mov	r11, r9
    1548:	a4 fe       	sbrs	r10, 4
    154a:	0f c0       	rjmp	.+30     	; 0x156a <vfprintf+0x2f8>
    154c:	fe 01       	movw	r30, r28
    154e:	e8 0d       	add	r30, r8
    1550:	f1 1d       	adc	r31, r1
    1552:	80 81       	ld	r24, Z
    1554:	80 33       	cpi	r24, 0x30	; 48
    1556:	21 f4       	brne	.+8      	; 0x1560 <vfprintf+0x2ee>
    1558:	9a 2d       	mov	r25, r10
    155a:	99 7e       	andi	r25, 0xE9	; 233
    155c:	a9 2e       	mov	r10, r25
    155e:	09 c0       	rjmp	.+18     	; 0x1572 <vfprintf+0x300>
    1560:	a2 fe       	sbrs	r10, 2
    1562:	06 c0       	rjmp	.+12     	; 0x1570 <vfprintf+0x2fe>
    1564:	b3 94       	inc	r11
    1566:	b3 94       	inc	r11
    1568:	04 c0       	rjmp	.+8      	; 0x1572 <vfprintf+0x300>
    156a:	8a 2d       	mov	r24, r10
    156c:	86 78       	andi	r24, 0x86	; 134
    156e:	09 f0       	breq	.+2      	; 0x1572 <vfprintf+0x300>
    1570:	b3 94       	inc	r11
    1572:	a3 fc       	sbrc	r10, 3
    1574:	11 c0       	rjmp	.+34     	; 0x1598 <vfprintf+0x326>
    1576:	a0 fe       	sbrs	r10, 0
    1578:	06 c0       	rjmp	.+12     	; 0x1586 <vfprintf+0x314>
    157a:	b2 14       	cp	r11, r2
    157c:	88 f4       	brcc	.+34     	; 0x15a0 <vfprintf+0x32e>
    157e:	28 0c       	add	r2, r8
    1580:	92 2c       	mov	r9, r2
    1582:	9b 18       	sub	r9, r11
    1584:	0e c0       	rjmp	.+28     	; 0x15a2 <vfprintf+0x330>
    1586:	b2 14       	cp	r11, r2
    1588:	60 f4       	brcc	.+24     	; 0x15a2 <vfprintf+0x330>
    158a:	b6 01       	movw	r22, r12
    158c:	80 e2       	ldi	r24, 0x20	; 32
    158e:	90 e0       	ldi	r25, 0x00	; 0
    1590:	0e 94 30 0b 	call	0x1660	; 0x1660 <fputc>
    1594:	b3 94       	inc	r11
    1596:	f7 cf       	rjmp	.-18     	; 0x1586 <vfprintf+0x314>
    1598:	b2 14       	cp	r11, r2
    159a:	18 f4       	brcc	.+6      	; 0x15a2 <vfprintf+0x330>
    159c:	2b 18       	sub	r2, r11
    159e:	02 c0       	rjmp	.+4      	; 0x15a4 <vfprintf+0x332>
    15a0:	98 2c       	mov	r9, r8
    15a2:	21 2c       	mov	r2, r1
    15a4:	a4 fe       	sbrs	r10, 4
    15a6:	10 c0       	rjmp	.+32     	; 0x15c8 <vfprintf+0x356>
    15a8:	b6 01       	movw	r22, r12
    15aa:	80 e3       	ldi	r24, 0x30	; 48
    15ac:	90 e0       	ldi	r25, 0x00	; 0
    15ae:	0e 94 30 0b 	call	0x1660	; 0x1660 <fputc>
    15b2:	a2 fe       	sbrs	r10, 2
    15b4:	17 c0       	rjmp	.+46     	; 0x15e4 <vfprintf+0x372>
    15b6:	a1 fc       	sbrc	r10, 1
    15b8:	03 c0       	rjmp	.+6      	; 0x15c0 <vfprintf+0x34e>
    15ba:	88 e7       	ldi	r24, 0x78	; 120
    15bc:	90 e0       	ldi	r25, 0x00	; 0
    15be:	02 c0       	rjmp	.+4      	; 0x15c4 <vfprintf+0x352>
    15c0:	88 e5       	ldi	r24, 0x58	; 88
    15c2:	90 e0       	ldi	r25, 0x00	; 0
    15c4:	b6 01       	movw	r22, r12
    15c6:	0c c0       	rjmp	.+24     	; 0x15e0 <vfprintf+0x36e>
    15c8:	8a 2d       	mov	r24, r10
    15ca:	86 78       	andi	r24, 0x86	; 134
    15cc:	59 f0       	breq	.+22     	; 0x15e4 <vfprintf+0x372>
    15ce:	a1 fe       	sbrs	r10, 1
    15d0:	02 c0       	rjmp	.+4      	; 0x15d6 <vfprintf+0x364>
    15d2:	8b e2       	ldi	r24, 0x2B	; 43
    15d4:	01 c0       	rjmp	.+2      	; 0x15d8 <vfprintf+0x366>
    15d6:	80 e2       	ldi	r24, 0x20	; 32
    15d8:	a7 fc       	sbrc	r10, 7
    15da:	8d e2       	ldi	r24, 0x2D	; 45
    15dc:	b6 01       	movw	r22, r12
    15de:	90 e0       	ldi	r25, 0x00	; 0
    15e0:	0e 94 30 0b 	call	0x1660	; 0x1660 <fputc>
    15e4:	89 14       	cp	r8, r9
    15e6:	38 f4       	brcc	.+14     	; 0x15f6 <vfprintf+0x384>
    15e8:	b6 01       	movw	r22, r12
    15ea:	80 e3       	ldi	r24, 0x30	; 48
    15ec:	90 e0       	ldi	r25, 0x00	; 0
    15ee:	0e 94 30 0b 	call	0x1660	; 0x1660 <fputc>
    15f2:	9a 94       	dec	r9
    15f4:	f7 cf       	rjmp	.-18     	; 0x15e4 <vfprintf+0x372>
    15f6:	8a 94       	dec	r8
    15f8:	f3 01       	movw	r30, r6
    15fa:	e8 0d       	add	r30, r8
    15fc:	f1 1d       	adc	r31, r1
    15fe:	80 81       	ld	r24, Z
    1600:	b6 01       	movw	r22, r12
    1602:	90 e0       	ldi	r25, 0x00	; 0
    1604:	0e 94 30 0b 	call	0x1660	; 0x1660 <fputc>
    1608:	81 10       	cpse	r8, r1
    160a:	f5 cf       	rjmp	.-22     	; 0x15f6 <vfprintf+0x384>
    160c:	22 20       	and	r2, r2
    160e:	09 f4       	brne	.+2      	; 0x1612 <vfprintf+0x3a0>
    1610:	42 ce       	rjmp	.-892    	; 0x1296 <vfprintf+0x24>
    1612:	b6 01       	movw	r22, r12
    1614:	80 e2       	ldi	r24, 0x20	; 32
    1616:	90 e0       	ldi	r25, 0x00	; 0
    1618:	0e 94 30 0b 	call	0x1660	; 0x1660 <fputc>
    161c:	2a 94       	dec	r2
    161e:	f6 cf       	rjmp	.-20     	; 0x160c <vfprintf+0x39a>
    1620:	f6 01       	movw	r30, r12
    1622:	86 81       	ldd	r24, Z+6	; 0x06
    1624:	97 81       	ldd	r25, Z+7	; 0x07
    1626:	02 c0       	rjmp	.+4      	; 0x162c <vfprintf+0x3ba>
    1628:	8f ef       	ldi	r24, 0xFF	; 255
    162a:	9f ef       	ldi	r25, 0xFF	; 255
    162c:	2b 96       	adiw	r28, 0x0b	; 11
    162e:	e2 e1       	ldi	r30, 0x12	; 18
    1630:	0c 94 e6 0b 	jmp	0x17cc	; 0x17cc <__epilogue_restores__>

00001634 <strnlen_P>:
    1634:	fc 01       	movw	r30, r24
    1636:	05 90       	lpm	r0, Z+
    1638:	61 50       	subi	r22, 0x01	; 1
    163a:	70 40       	sbci	r23, 0x00	; 0
    163c:	01 10       	cpse	r0, r1
    163e:	d8 f7       	brcc	.-10     	; 0x1636 <strnlen_P+0x2>
    1640:	80 95       	com	r24
    1642:	90 95       	com	r25
    1644:	8e 0f       	add	r24, r30
    1646:	9f 1f       	adc	r25, r31
    1648:	08 95       	ret

0000164a <strnlen>:
    164a:	fc 01       	movw	r30, r24
    164c:	61 50       	subi	r22, 0x01	; 1
    164e:	70 40       	sbci	r23, 0x00	; 0
    1650:	01 90       	ld	r0, Z+
    1652:	01 10       	cpse	r0, r1
    1654:	d8 f7       	brcc	.-10     	; 0x164c <strnlen+0x2>
    1656:	80 95       	com	r24
    1658:	90 95       	com	r25
    165a:	8e 0f       	add	r24, r30
    165c:	9f 1f       	adc	r25, r31
    165e:	08 95       	ret

00001660 <fputc>:
    1660:	0f 93       	push	r16
    1662:	1f 93       	push	r17
    1664:	cf 93       	push	r28
    1666:	df 93       	push	r29
    1668:	fb 01       	movw	r30, r22
    166a:	23 81       	ldd	r18, Z+3	; 0x03
    166c:	21 fd       	sbrc	r18, 1
    166e:	03 c0       	rjmp	.+6      	; 0x1676 <fputc+0x16>
    1670:	8f ef       	ldi	r24, 0xFF	; 255
    1672:	9f ef       	ldi	r25, 0xFF	; 255
    1674:	2c c0       	rjmp	.+88     	; 0x16ce <fputc+0x6e>
    1676:	22 ff       	sbrs	r18, 2
    1678:	16 c0       	rjmp	.+44     	; 0x16a6 <fputc+0x46>
    167a:	46 81       	ldd	r20, Z+6	; 0x06
    167c:	57 81       	ldd	r21, Z+7	; 0x07
    167e:	24 81       	ldd	r18, Z+4	; 0x04
    1680:	35 81       	ldd	r19, Z+5	; 0x05
    1682:	42 17       	cp	r20, r18
    1684:	53 07       	cpc	r21, r19
    1686:	44 f4       	brge	.+16     	; 0x1698 <fputc+0x38>
    1688:	a0 81       	ld	r26, Z
    168a:	b1 81       	ldd	r27, Z+1	; 0x01
    168c:	9d 01       	movw	r18, r26
    168e:	2f 5f       	subi	r18, 0xFF	; 255
    1690:	3f 4f       	sbci	r19, 0xFF	; 255
    1692:	31 83       	std	Z+1, r19	; 0x01
    1694:	20 83       	st	Z, r18
    1696:	8c 93       	st	X, r24
    1698:	26 81       	ldd	r18, Z+6	; 0x06
    169a:	37 81       	ldd	r19, Z+7	; 0x07
    169c:	2f 5f       	subi	r18, 0xFF	; 255
    169e:	3f 4f       	sbci	r19, 0xFF	; 255
    16a0:	37 83       	std	Z+7, r19	; 0x07
    16a2:	26 83       	std	Z+6, r18	; 0x06
    16a4:	14 c0       	rjmp	.+40     	; 0x16ce <fputc+0x6e>
    16a6:	8b 01       	movw	r16, r22
    16a8:	ec 01       	movw	r28, r24
    16aa:	fb 01       	movw	r30, r22
    16ac:	00 84       	ldd	r0, Z+8	; 0x08
    16ae:	f1 85       	ldd	r31, Z+9	; 0x09
    16b0:	e0 2d       	mov	r30, r0
    16b2:	09 95       	icall
    16b4:	89 2b       	or	r24, r25
    16b6:	e1 f6       	brne	.-72     	; 0x1670 <fputc+0x10>
    16b8:	d8 01       	movw	r26, r16
    16ba:	16 96       	adiw	r26, 0x06	; 6
    16bc:	8d 91       	ld	r24, X+
    16be:	9c 91       	ld	r25, X
    16c0:	17 97       	sbiw	r26, 0x07	; 7
    16c2:	01 96       	adiw	r24, 0x01	; 1
    16c4:	17 96       	adiw	r26, 0x07	; 7
    16c6:	9c 93       	st	X, r25
    16c8:	8e 93       	st	-X, r24
    16ca:	16 97       	sbiw	r26, 0x06	; 6
    16cc:	ce 01       	movw	r24, r28
    16ce:	df 91       	pop	r29
    16d0:	cf 91       	pop	r28
    16d2:	1f 91       	pop	r17
    16d4:	0f 91       	pop	r16
    16d6:	08 95       	ret

000016d8 <__ultoa_invert>:
    16d8:	fa 01       	movw	r30, r20
    16da:	aa 27       	eor	r26, r26
    16dc:	28 30       	cpi	r18, 0x08	; 8
    16de:	51 f1       	breq	.+84     	; 0x1734 <__ultoa_invert+0x5c>
    16e0:	20 31       	cpi	r18, 0x10	; 16
    16e2:	81 f1       	breq	.+96     	; 0x1744 <__ultoa_invert+0x6c>
    16e4:	e8 94       	clt
    16e6:	6f 93       	push	r22
    16e8:	6e 7f       	andi	r22, 0xFE	; 254
    16ea:	6e 5f       	subi	r22, 0xFE	; 254
    16ec:	7f 4f       	sbci	r23, 0xFF	; 255
    16ee:	8f 4f       	sbci	r24, 0xFF	; 255
    16f0:	9f 4f       	sbci	r25, 0xFF	; 255
    16f2:	af 4f       	sbci	r26, 0xFF	; 255
    16f4:	b1 e0       	ldi	r27, 0x01	; 1
    16f6:	3e d0       	rcall	.+124    	; 0x1774 <__ultoa_invert+0x9c>
    16f8:	b4 e0       	ldi	r27, 0x04	; 4
    16fa:	3c d0       	rcall	.+120    	; 0x1774 <__ultoa_invert+0x9c>
    16fc:	67 0f       	add	r22, r23
    16fe:	78 1f       	adc	r23, r24
    1700:	89 1f       	adc	r24, r25
    1702:	9a 1f       	adc	r25, r26
    1704:	a1 1d       	adc	r26, r1
    1706:	68 0f       	add	r22, r24
    1708:	79 1f       	adc	r23, r25
    170a:	8a 1f       	adc	r24, r26
    170c:	91 1d       	adc	r25, r1
    170e:	a1 1d       	adc	r26, r1
    1710:	6a 0f       	add	r22, r26
    1712:	71 1d       	adc	r23, r1
    1714:	81 1d       	adc	r24, r1
    1716:	91 1d       	adc	r25, r1
    1718:	a1 1d       	adc	r26, r1
    171a:	20 d0       	rcall	.+64     	; 0x175c <__ultoa_invert+0x84>
    171c:	09 f4       	brne	.+2      	; 0x1720 <__ultoa_invert+0x48>
    171e:	68 94       	set
    1720:	3f 91       	pop	r19
    1722:	2a e0       	ldi	r18, 0x0A	; 10
    1724:	26 9f       	mul	r18, r22
    1726:	11 24       	eor	r1, r1
    1728:	30 19       	sub	r19, r0
    172a:	30 5d       	subi	r19, 0xD0	; 208
    172c:	31 93       	st	Z+, r19
    172e:	de f6       	brtc	.-74     	; 0x16e6 <__ultoa_invert+0xe>
    1730:	cf 01       	movw	r24, r30
    1732:	08 95       	ret
    1734:	46 2f       	mov	r20, r22
    1736:	47 70       	andi	r20, 0x07	; 7
    1738:	40 5d       	subi	r20, 0xD0	; 208
    173a:	41 93       	st	Z+, r20
    173c:	b3 e0       	ldi	r27, 0x03	; 3
    173e:	0f d0       	rcall	.+30     	; 0x175e <__ultoa_invert+0x86>
    1740:	c9 f7       	brne	.-14     	; 0x1734 <__ultoa_invert+0x5c>
    1742:	f6 cf       	rjmp	.-20     	; 0x1730 <__ultoa_invert+0x58>
    1744:	46 2f       	mov	r20, r22
    1746:	4f 70       	andi	r20, 0x0F	; 15
    1748:	40 5d       	subi	r20, 0xD0	; 208
    174a:	4a 33       	cpi	r20, 0x3A	; 58
    174c:	18 f0       	brcs	.+6      	; 0x1754 <__ultoa_invert+0x7c>
    174e:	49 5d       	subi	r20, 0xD9	; 217
    1750:	31 fd       	sbrc	r19, 1
    1752:	40 52       	subi	r20, 0x20	; 32
    1754:	41 93       	st	Z+, r20
    1756:	02 d0       	rcall	.+4      	; 0x175c <__ultoa_invert+0x84>
    1758:	a9 f7       	brne	.-22     	; 0x1744 <__ultoa_invert+0x6c>
    175a:	ea cf       	rjmp	.-44     	; 0x1730 <__ultoa_invert+0x58>
    175c:	b4 e0       	ldi	r27, 0x04	; 4
    175e:	a6 95       	lsr	r26
    1760:	97 95       	ror	r25
    1762:	87 95       	ror	r24
    1764:	77 95       	ror	r23
    1766:	67 95       	ror	r22
    1768:	ba 95       	dec	r27
    176a:	c9 f7       	brne	.-14     	; 0x175e <__ultoa_invert+0x86>
    176c:	00 97       	sbiw	r24, 0x00	; 0
    176e:	61 05       	cpc	r22, r1
    1770:	71 05       	cpc	r23, r1
    1772:	08 95       	ret
    1774:	9b 01       	movw	r18, r22
    1776:	ac 01       	movw	r20, r24
    1778:	0a 2e       	mov	r0, r26
    177a:	06 94       	lsr	r0
    177c:	57 95       	ror	r21
    177e:	47 95       	ror	r20
    1780:	37 95       	ror	r19
    1782:	27 95       	ror	r18
    1784:	ba 95       	dec	r27
    1786:	c9 f7       	brne	.-14     	; 0x177a <__ultoa_invert+0xa2>
    1788:	62 0f       	add	r22, r18
    178a:	73 1f       	adc	r23, r19
    178c:	84 1f       	adc	r24, r20
    178e:	95 1f       	adc	r25, r21
    1790:	a0 1d       	adc	r26, r0
    1792:	08 95       	ret

00001794 <__prologue_saves__>:
    1794:	2f 92       	push	r2
    1796:	3f 92       	push	r3
    1798:	4f 92       	push	r4
    179a:	5f 92       	push	r5
    179c:	6f 92       	push	r6
    179e:	7f 92       	push	r7
    17a0:	8f 92       	push	r8
    17a2:	9f 92       	push	r9
    17a4:	af 92       	push	r10
    17a6:	bf 92       	push	r11
    17a8:	cf 92       	push	r12
    17aa:	df 92       	push	r13
    17ac:	ef 92       	push	r14
    17ae:	ff 92       	push	r15
    17b0:	0f 93       	push	r16
    17b2:	1f 93       	push	r17
    17b4:	cf 93       	push	r28
    17b6:	df 93       	push	r29
    17b8:	cd b7       	in	r28, 0x3d	; 61
    17ba:	de b7       	in	r29, 0x3e	; 62
    17bc:	ca 1b       	sub	r28, r26
    17be:	db 0b       	sbc	r29, r27
    17c0:	0f b6       	in	r0, 0x3f	; 63
    17c2:	f8 94       	cli
    17c4:	de bf       	out	0x3e, r29	; 62
    17c6:	0f be       	out	0x3f, r0	; 63
    17c8:	cd bf       	out	0x3d, r28	; 61
    17ca:	09 94       	ijmp

000017cc <__epilogue_restores__>:
    17cc:	2a 88       	ldd	r2, Y+18	; 0x12
    17ce:	39 88       	ldd	r3, Y+17	; 0x11
    17d0:	48 88       	ldd	r4, Y+16	; 0x10
    17d2:	5f 84       	ldd	r5, Y+15	; 0x0f
    17d4:	6e 84       	ldd	r6, Y+14	; 0x0e
    17d6:	7d 84       	ldd	r7, Y+13	; 0x0d
    17d8:	8c 84       	ldd	r8, Y+12	; 0x0c
    17da:	9b 84       	ldd	r9, Y+11	; 0x0b
    17dc:	aa 84       	ldd	r10, Y+10	; 0x0a
    17de:	b9 84       	ldd	r11, Y+9	; 0x09
    17e0:	c8 84       	ldd	r12, Y+8	; 0x08
    17e2:	df 80       	ldd	r13, Y+7	; 0x07
    17e4:	ee 80       	ldd	r14, Y+6	; 0x06
    17e6:	fd 80       	ldd	r15, Y+5	; 0x05
    17e8:	0c 81       	ldd	r16, Y+4	; 0x04
    17ea:	1b 81       	ldd	r17, Y+3	; 0x03
    17ec:	aa 81       	ldd	r26, Y+2	; 0x02
    17ee:	b9 81       	ldd	r27, Y+1	; 0x01
    17f0:	ce 0f       	add	r28, r30
    17f2:	d1 1d       	adc	r29, r1
    17f4:	0f b6       	in	r0, 0x3f	; 63
    17f6:	f8 94       	cli
    17f8:	de bf       	out	0x3e, r29	; 62
    17fa:	0f be       	out	0x3f, r0	; 63
    17fc:	cd bf       	out	0x3d, r28	; 61
    17fe:	ed 01       	movw	r28, r26
    1800:	08 95       	ret

00001802 <_exit>:
    1802:	f8 94       	cli

00001804 <__stop_program>:
    1804:	ff cf       	rjmp	.-2      	; 0x1804 <__stop_program>
