
pingpong.elf:     file format elf32-avr

Sections:
Idx Name          Size      VMA       LMA       File off  Algn
  0 .data         0000000e  00800100  00000478  0000050c  2**0
                  CONTENTS, ALLOC, LOAD, DATA
  1 .text         00000478  00000000  00000000  00000094  2**1
                  CONTENTS, ALLOC, LOAD, READONLY, CODE
  2 .bss          00000010  0080010e  0080010e  0000051a  2**0
                  ALLOC
  3 .comment      00000030  00000000  00000000  0000051a  2**0
                  CONTENTS, READONLY
  4 .note.gnu.avr.deviceinfo 0000003c  00000000  00000000  0000054c  2**2
                  CONTENTS, READONLY
  5 .debug_aranges 00000170  00000000  00000000  00000588  2**0
                  CONTENTS, READONLY, DEBUGGING
  6 .debug_info   00001752  00000000  00000000  000006f8  2**0
                  CONTENTS, READONLY, DEBUGGING
  7 .debug_abbrev 00000dbe  00000000  00000000  00001e4a  2**0
                  CONTENTS, READONLY, DEBUGGING
  8 .debug_line   00000d0a  00000000  00000000  00002c08  2**0
                  CONTENTS, READONLY, DEBUGGING
  9 .debug_frame  00000358  00000000  00000000  00003914  2**2
                  CONTENTS, READONLY, DEBUGGING
 10 .debug_str    00000705  00000000  00000000  00003c6c  2**0
                  CONTENTS, READONLY, DEBUGGING
 11 .debug_loc    0000090c  00000000  00000000  00004371  2**0
                  CONTENTS, READONLY, DEBUGGING
 12 .debug_ranges 00000158  00000000  00000000  00004c7d  2**0
                  CONTENTS, READONLY, DEBUGGING

Disassembly of section .text:

00000000 <__vectors>:
   0:	0c 94 38 00 	jmp	0x70	; 0x70 <__ctors_end>
   4:	0c 94 55 00 	jmp	0xaa	; 0xaa <__bad_interrupt>
   8:	0c 94 55 00 	jmp	0xaa	; 0xaa <__bad_interrupt>
   c:	0c 94 55 00 	jmp	0xaa	; 0xaa <__bad_interrupt>
  10:	0c 94 55 00 	jmp	0xaa	; 0xaa <__bad_interrupt>
  14:	0c 94 55 00 	jmp	0xaa	; 0xaa <__bad_interrupt>
  18:	0c 94 55 00 	jmp	0xaa	; 0xaa <__bad_interrupt>
  1c:	0c 94 55 00 	jmp	0xaa	; 0xaa <__bad_interrupt>
  20:	0c 94 55 00 	jmp	0xaa	; 0xaa <__bad_interrupt>
  24:	0c 94 55 00 	jmp	0xaa	; 0xaa <__bad_interrupt>
  28:	0c 94 55 00 	jmp	0xaa	; 0xaa <__bad_interrupt>
  2c:	0c 94 55 00 	jmp	0xaa	; 0xaa <__bad_interrupt>
  30:	0c 94 55 00 	jmp	0xaa	; 0xaa <__bad_interrupt>
  34:	0c 94 55 00 	jmp	0xaa	; 0xaa <__bad_interrupt>
  38:	0c 94 55 00 	jmp	0xaa	; 0xaa <__bad_interrupt>
  3c:	0c 94 55 00 	jmp	0xaa	; 0xaa <__bad_interrupt>
  40:	0c 94 55 00 	jmp	0xaa	; 0xaa <__bad_interrupt>
  44:	0c 94 55 00 	jmp	0xaa	; 0xaa <__bad_interrupt>
  48:	0c 94 55 00 	jmp	0xaa	; 0xaa <__bad_interrupt>
  4c:	0c 94 d3 01 	jmp	0x3a6	; 0x3a6 <__vector_19>
  50:	0c 94 55 00 	jmp	0xaa	; 0xaa <__bad_interrupt>
  54:	0c 94 55 00 	jmp	0xaa	; 0xaa <__bad_interrupt>
  58:	0c 94 55 00 	jmp	0xaa	; 0xaa <__bad_interrupt>
  5c:	0c 94 55 00 	jmp	0xaa	; 0xaa <__bad_interrupt>
  60:	0c 94 55 00 	jmp	0xaa	; 0xaa <__bad_interrupt>
  64:	0c 94 55 00 	jmp	0xaa	; 0xaa <__bad_interrupt>
  68:	0c 94 55 00 	jmp	0xaa	; 0xaa <__bad_interrupt>
  6c:	0c 94 55 00 	jmp	0xaa	; 0xaa <__bad_interrupt>

00000070 <__ctors_end>:
  70:	11 24       	eor	r1, r1
  72:	1f be       	out	0x3f, r1	; 63
  74:	cf ef       	ldi	r28, 0xFF	; 255
  76:	d4 e0       	ldi	r29, 0x04	; 4
  78:	de bf       	out	0x3e, r29	; 62
  7a:	cd bf       	out	0x3d, r28	; 61

0000007c <__do_copy_data>:
  7c:	11 e0       	ldi	r17, 0x01	; 1
  7e:	a0 e0       	ldi	r26, 0x00	; 0
  80:	b1 e0       	ldi	r27, 0x01	; 1
  82:	e8 e7       	ldi	r30, 0x78	; 120
  84:	f4 e0       	ldi	r31, 0x04	; 4
  86:	02 c0       	rjmp	.+4      	; 0x8c <__do_copy_data+0x10>
  88:	05 90       	lpm	r0, Z+
  8a:	0d 92       	st	X+, r0
  8c:	ae 30       	cpi	r26, 0x0E	; 14
  8e:	b1 07       	cpc	r27, r17
  90:	d9 f7       	brne	.-10     	; 0x88 <__do_copy_data+0xc>

00000092 <__do_clear_bss>:
  92:	21 e0       	ldi	r18, 0x01	; 1
  94:	ae e0       	ldi	r26, 0x0E	; 14
  96:	b1 e0       	ldi	r27, 0x01	; 1
  98:	01 c0       	rjmp	.+2      	; 0x9c <.do_clear_bss_start>

0000009a <.do_clear_bss_loop>:
  9a:	1d 92       	st	X+, r1

0000009c <.do_clear_bss_start>:
  9c:	ae 31       	cpi	r26, 0x1E	; 30
  9e:	b2 07       	cpc	r27, r18
  a0:	e1 f7       	brne	.-8      	; 0x9a <.do_clear_bss_loop>
  a2:	0e 94 bb 00 	call	0x176	; 0x176 <main>
  a6:	0c 94 3a 02 	jmp	0x474	; 0x474 <_exit>

000000aa <__bad_interrupt>:
  aa:	0c 94 00 00 	jmp	0	; 0x0 <__vectors>

000000ae <adc_init>:
  ae:	81 b3       	in	r24, 0x11	; 17
  b0:	80 62       	ori	r24, 0x20	; 32
  b2:	81 bb       	out	0x11, r24	; 17
  b4:	89 e0       	ldi	r24, 0x09	; 9
  b6:	8e bd       	out	0x2e, r24	; 46
  b8:	80 e4       	ldi	r24, 0x40	; 64
  ba:	8f bd       	out	0x2f, r24	; 47
  bc:	82 e0       	ldi	r24, 0x02	; 2
  be:	90 e0       	ldi	r25, 0x00	; 0
  c0:	9b bd       	out	0x2b, r25	; 43
  c2:	8a bd       	out	0x2a, r24	; 42
  c4:	81 b3       	in	r24, 0x11	; 17
  c6:	8f 7e       	andi	r24, 0xEF	; 239
  c8:	81 bb       	out	0x11, r24	; 17
  ca:	08 95       	ret

000000cc <get_io_inputs>:
  cc:	cf 93       	push	r28
  ce:	df 93       	push	r29
  d0:	cd b7       	in	r28, 0x3d	; 61
  d2:	de b7       	in	r29, 0x3e	; 62
  d4:	60 97       	sbiw	r28, 0x10	; 16
  d6:	0f b6       	in	r0, 0x3f	; 63
  d8:	f8 94       	cli
  da:	de bf       	out	0x3e, r29	; 62
  dc:	0f be       	out	0x3f, r0	; 63
  de:	cd bf       	out	0x3d, r28	; 61
  e0:	10 92 00 10 	sts	0x1000, r1	; 0x801000 <__bss_end+0xee2>
	#else
		//round up by default
		__ticks_dc = (uint32_t)(ceil(fabs(__tmp)));
	#endif

	__builtin_avr_delay_cycles(__ticks_dc);
  e4:	00 c0       	rjmp	.+0      	; 0xe6 <get_io_inputs+0x1a>
  e6:	84 9b       	sbis	0x10, 4	; 16
  e8:	fe cf       	rjmp	.-4      	; 0xe6 <get_io_inputs+0x1a>
  ea:	e0 e0       	ldi	r30, 0x00	; 0
  ec:	f0 e1       	ldi	r31, 0x10	; 16
  ee:	80 81       	ld	r24, Z
  f0:	af e0       	ldi	r26, 0x0F	; 15
  f2:	b1 e0       	ldi	r27, 0x01	; 1
  f4:	2d 91       	ld	r18, X+
  f6:	3c 91       	ld	r19, X
  f8:	11 97       	sbiw	r26, 0x01	; 1
  fa:	90 e0       	ldi	r25, 0x00	; 0
  fc:	82 1b       	sub	r24, r18
  fe:	93 0b       	sbc	r25, r19
 100:	9a 87       	std	Y+10, r25	; 0x0a
 102:	89 87       	std	Y+9, r24	; 0x09
 104:	80 81       	ld	r24, Z
 106:	12 96       	adiw	r26, 0x02	; 2
 108:	2d 91       	ld	r18, X+
 10a:	3c 91       	ld	r19, X
 10c:	13 97       	sbiw	r26, 0x03	; 3
 10e:	90 e0       	ldi	r25, 0x00	; 0
 110:	82 1b       	sub	r24, r18
 112:	93 0b       	sbc	r25, r19
 114:	9c 87       	std	Y+12, r25	; 0x0c
 116:	8b 87       	std	Y+11, r24	; 0x0b
 118:	80 81       	ld	r24, Z
 11a:	90 e0       	ldi	r25, 0x00	; 0
 11c:	9e 87       	std	Y+14, r25	; 0x0e
 11e:	8d 87       	std	Y+13, r24	; 0x0d
 120:	80 81       	ld	r24, Z
 122:	90 e0       	ldi	r25, 0x00	; 0
 124:	98 8b       	std	Y+16, r25	; 0x10
 126:	8f 87       	std	Y+15, r24	; 0x0f
 128:	88 e0       	ldi	r24, 0x08	; 8
 12a:	fe 01       	movw	r30, r28
 12c:	39 96       	adiw	r30, 0x09	; 9
 12e:	de 01       	movw	r26, r28
 130:	11 96       	adiw	r26, 0x01	; 1
 132:	01 90       	ld	r0, Z+
 134:	0d 92       	st	X+, r0
 136:	8a 95       	dec	r24
 138:	e1 f7       	brne	.-8      	; 0x132 <get_io_inputs+0x66>
 13a:	29 81       	ldd	r18, Y+1	; 0x01
 13c:	3a 81       	ldd	r19, Y+2	; 0x02
 13e:	4b 81       	ldd	r20, Y+3	; 0x03
 140:	5c 81       	ldd	r21, Y+4	; 0x04
 142:	6d 81       	ldd	r22, Y+5	; 0x05
 144:	7e 81       	ldd	r23, Y+6	; 0x06
 146:	8f 81       	ldd	r24, Y+7	; 0x07
 148:	98 85       	ldd	r25, Y+8	; 0x08
 14a:	60 96       	adiw	r28, 0x10	; 16
 14c:	0f b6       	in	r0, 0x3f	; 63
 14e:	f8 94       	cli
 150:	de bf       	out	0x3e, r29	; 62
 152:	0f be       	out	0x3f, r0	; 63
 154:	cd bf       	out	0x3d, r28	; 61
 156:	df 91       	pop	r29
 158:	cf 91       	pop	r28
 15a:	08 95       	ret

0000015c <inputs_calibrate>:
 15c:	0e 94 66 00 	call	0xcc	; 0xcc <get_io_inputs>
 160:	ef e0       	ldi	r30, 0x0F	; 15
 162:	f1 e0       	ldi	r31, 0x01	; 1
 164:	20 83       	st	Z, r18
 166:	31 83       	std	Z+1, r19	; 0x01
 168:	42 83       	std	Z+2, r20	; 0x02
 16a:	53 83       	std	Z+3, r21	; 0x03
 16c:	64 83       	std	Z+4, r22	; 0x04
 16e:	75 83       	std	Z+5, r23	; 0x05
 170:	86 83       	std	Z+6, r24	; 0x06
 172:	97 83       	std	Z+7, r25	; 0x07
 174:	08 95       	ret

00000176 <main>:
#include "adc/adc.h"
//#include "spi/spi.h"
#include "oled/oled.h"
#include <avr/interrupt.h>

int main(void) {
 176:	0f 93       	push	r16
 178:	1f 93       	push	r17
 17a:	cf 93       	push	r28
 17c:	df 93       	push	r29
	

	uart_init(9600);
 17e:	60 e8       	ldi	r22, 0x80	; 128
 180:	75 e2       	ldi	r23, 0x25	; 37
 182:	80 e0       	ldi	r24, 0x00	; 0
 184:	90 e0       	ldi	r25, 0x00	; 0
 186:	0e 94 fe 01 	call	0x3fc	; 0x3fc <uart_init>
	xmem_init();
 18a:	0e 94 11 02 	call	0x422	; 0x422 <xmem_init>
	adc_init();
 18e:	0e 94 57 00 	call	0xae	; 0xae <adc_init>
	oled_init();
 192:	0e 94 ea 00 	call	0x1d4	; 0x1d4 <oled_init>
	inputs_calibrate();
 196:	0e 94 ae 00 	call	0x15c	; 0x15c <inputs_calibrate>
		
	//}
	
	//oled_draw_pixel(20, 20, 1);
	
	for (int p = 0; p < 8; p++) {	
 19a:	00 e0       	ldi	r16, 0x00	; 0
 19c:	10 e0       	ldi	r17, 0x00	; 0
 19e:	10 c0       	rjmp	.+32     	; 0x1c0 <main+0x4a>
		for (int c = 0; c < 128; c++) {
			oled_goto(p, c);
 1a0:	6c 2f       	mov	r22, r28
 1a2:	80 2f       	mov	r24, r16
 1a4:	0e 94 5d 01 	call	0x2ba	; 0x2ba <oled_goto>
			oled_set_val(0x00);
 1a8:	80 e0       	ldi	r24, 0x00	; 0
 1aa:	0e 94 82 01 	call	0x304	; 0x304 <oled_set_val>
	//}
	
	//oled_draw_pixel(20, 20, 1);
	
	for (int p = 0; p < 8; p++) {	
		for (int c = 0; c < 128; c++) {
 1ae:	21 96       	adiw	r28, 0x01	; 1
 1b0:	02 c0       	rjmp	.+4      	; 0x1b6 <main+0x40>
 1b2:	c0 e0       	ldi	r28, 0x00	; 0
 1b4:	d0 e0       	ldi	r29, 0x00	; 0
 1b6:	c0 38       	cpi	r28, 0x80	; 128
 1b8:	d1 05       	cpc	r29, r1
 1ba:	94 f3       	brlt	.-28     	; 0x1a0 <main+0x2a>
		
	//}
	
	//oled_draw_pixel(20, 20, 1);
	
	for (int p = 0; p < 8; p++) {	
 1bc:	0f 5f       	subi	r16, 0xFF	; 255
 1be:	1f 4f       	sbci	r17, 0xFF	; 255
 1c0:	08 30       	cpi	r16, 0x08	; 8
 1c2:	11 05       	cpc	r17, r1
 1c4:	b4 f3       	brlt	.-20     	; 0x1b2 <main+0x3c>
		}
	}
	*/
	

}
 1c6:	80 e0       	ldi	r24, 0x00	; 0
 1c8:	90 e0       	ldi	r25, 0x00	; 0
 1ca:	df 91       	pop	r29
 1cc:	cf 91       	pop	r28
 1ce:	1f 91       	pop	r17
 1d0:	0f 91       	pop	r16
 1d2:	08 95       	ret

000001d4 <oled_init>:
	oled_goto(page, x);
	spi_select_slave(DISP);
	PORTB |= (1 << PB1); 
	spi_write_byte(color ? bit : 0x00); spi_read_byte();
	spi_select_slave(NONE);
}
 1d4:	0e 94 94 01 	call	0x328	; 0x328 <spi_init>
 1d8:	87 b3       	in	r24, 0x17	; 23
 1da:	82 60       	ori	r24, 0x02	; 2
 1dc:	87 bb       	out	0x17, r24	; 23
 1de:	82 e0       	ldi	r24, 0x02	; 2
 1e0:	0e 94 9d 01 	call	0x33a	; 0x33a <spi_select_slave>
 1e4:	88 b3       	in	r24, 0x18	; 24
 1e6:	8d 7f       	andi	r24, 0xFD	; 253
 1e8:	88 bb       	out	0x18, r24	; 24
 1ea:	8e ea       	ldi	r24, 0xAE	; 174
 1ec:	0e 94 cb 01 	call	0x396	; 0x396 <spi_write_byte>
 1f0:	0e 94 cf 01 	call	0x39e	; 0x39e <spi_read_byte>
 1f4:	81 ea       	ldi	r24, 0xA1	; 161
 1f6:	0e 94 cb 01 	call	0x396	; 0x396 <spi_write_byte>
 1fa:	0e 94 cf 01 	call	0x39e	; 0x39e <spi_read_byte>
 1fe:	8a ed       	ldi	r24, 0xDA	; 218
 200:	0e 94 cb 01 	call	0x396	; 0x396 <spi_write_byte>
 204:	0e 94 cf 01 	call	0x39e	; 0x39e <spi_read_byte>
 208:	82 e1       	ldi	r24, 0x12	; 18
 20a:	0e 94 cb 01 	call	0x396	; 0x396 <spi_write_byte>
 20e:	0e 94 cf 01 	call	0x39e	; 0x39e <spi_read_byte>
 212:	88 ec       	ldi	r24, 0xC8	; 200
 214:	0e 94 cb 01 	call	0x396	; 0x396 <spi_write_byte>
 218:	0e 94 cf 01 	call	0x39e	; 0x39e <spi_read_byte>
 21c:	88 ea       	ldi	r24, 0xA8	; 168
 21e:	0e 94 cb 01 	call	0x396	; 0x396 <spi_write_byte>
 222:	0e 94 cf 01 	call	0x39e	; 0x39e <spi_read_byte>
 226:	8f e3       	ldi	r24, 0x3F	; 63
 228:	0e 94 cb 01 	call	0x396	; 0x396 <spi_write_byte>
 22c:	0e 94 cf 01 	call	0x39e	; 0x39e <spi_read_byte>
 230:	85 ed       	ldi	r24, 0xD5	; 213
 232:	0e 94 cb 01 	call	0x396	; 0x396 <spi_write_byte>
 236:	0e 94 cf 01 	call	0x39e	; 0x39e <spi_read_byte>
 23a:	80 e8       	ldi	r24, 0x80	; 128
 23c:	0e 94 cb 01 	call	0x396	; 0x396 <spi_write_byte>
 240:	0e 94 cf 01 	call	0x39e	; 0x39e <spi_read_byte>
 244:	81 e8       	ldi	r24, 0x81	; 129
 246:	0e 94 cb 01 	call	0x396	; 0x396 <spi_write_byte>
 24a:	0e 94 cf 01 	call	0x39e	; 0x39e <spi_read_byte>
 24e:	80 e5       	ldi	r24, 0x50	; 80
 250:	0e 94 cb 01 	call	0x396	; 0x396 <spi_write_byte>
 254:	0e 94 cf 01 	call	0x39e	; 0x39e <spi_read_byte>
 258:	89 ed       	ldi	r24, 0xD9	; 217
 25a:	0e 94 cb 01 	call	0x396	; 0x396 <spi_write_byte>
 25e:	0e 94 cf 01 	call	0x39e	; 0x39e <spi_read_byte>
 262:	81 e2       	ldi	r24, 0x21	; 33
 264:	0e 94 cb 01 	call	0x396	; 0x396 <spi_write_byte>
 268:	0e 94 cf 01 	call	0x39e	; 0x39e <spi_read_byte>
 26c:	80 e2       	ldi	r24, 0x20	; 32
 26e:	0e 94 cb 01 	call	0x396	; 0x396 <spi_write_byte>
 272:	0e 94 cf 01 	call	0x39e	; 0x39e <spi_read_byte>
 276:	82 e0       	ldi	r24, 0x02	; 2
 278:	0e 94 cb 01 	call	0x396	; 0x396 <spi_write_byte>
 27c:	0e 94 cf 01 	call	0x39e	; 0x39e <spi_read_byte>
 280:	8b ed       	ldi	r24, 0xDB	; 219
 282:	0e 94 cb 01 	call	0x396	; 0x396 <spi_write_byte>
 286:	0e 94 cf 01 	call	0x39e	; 0x39e <spi_read_byte>
 28a:	84 e3       	ldi	r24, 0x34	; 52
 28c:	0e 94 cb 01 	call	0x396	; 0x396 <spi_write_byte>
 290:	0e 94 cf 01 	call	0x39e	; 0x39e <spi_read_byte>
 294:	84 ea       	ldi	r24, 0xA4	; 164
 296:	0e 94 cb 01 	call	0x396	; 0x396 <spi_write_byte>
 29a:	0e 94 cf 01 	call	0x39e	; 0x39e <spi_read_byte>
 29e:	86 ea       	ldi	r24, 0xA6	; 166
 2a0:	0e 94 cb 01 	call	0x396	; 0x396 <spi_write_byte>
 2a4:	0e 94 cf 01 	call	0x39e	; 0x39e <spi_read_byte>
 2a8:	8f ea       	ldi	r24, 0xAF	; 175
 2aa:	0e 94 cb 01 	call	0x396	; 0x396 <spi_write_byte>
 2ae:	0e 94 cf 01 	call	0x39e	; 0x39e <spi_read_byte>
 2b2:	83 e0       	ldi	r24, 0x03	; 3
 2b4:	0e 94 9d 01 	call	0x33a	; 0x33a <spi_select_slave>
 2b8:	08 95       	ret

000002ba <oled_goto>:
 2ba:	cf 93       	push	r28
 2bc:	df 93       	push	r29
 2be:	d8 2f       	mov	r29, r24
 2c0:	c6 2f       	mov	r28, r22
 2c2:	88 b3       	in	r24, 0x18	; 24
 2c4:	8d 7f       	andi	r24, 0xFD	; 253
 2c6:	88 bb       	out	0x18, r24	; 24
 2c8:	82 e0       	ldi	r24, 0x02	; 2
 2ca:	0e 94 9d 01 	call	0x33a	; 0x33a <spi_select_slave>
 2ce:	8d 2f       	mov	r24, r29
 2d0:	8f 70       	andi	r24, 0x0F	; 15
 2d2:	80 6b       	ori	r24, 0xB0	; 176
 2d4:	0e 94 cb 01 	call	0x396	; 0x396 <spi_write_byte>
 2d8:	0e 94 cf 01 	call	0x39e	; 0x39e <spi_read_byte>
 2dc:	8c 2f       	mov	r24, r28
 2de:	8f 70       	andi	r24, 0x0F	; 15
 2e0:	0e 94 cb 01 	call	0x396	; 0x396 <spi_write_byte>
 2e4:	0e 94 cf 01 	call	0x39e	; 0x39e <spi_read_byte>
 2e8:	8c 2f       	mov	r24, r28
 2ea:	82 95       	swap	r24
 2ec:	8f 70       	andi	r24, 0x0F	; 15
 2ee:	80 61       	ori	r24, 0x10	; 16
 2f0:	0e 94 cb 01 	call	0x396	; 0x396 <spi_write_byte>
 2f4:	0e 94 cf 01 	call	0x39e	; 0x39e <spi_read_byte>
 2f8:	83 e0       	ldi	r24, 0x03	; 3
 2fa:	0e 94 9d 01 	call	0x33a	; 0x33a <spi_select_slave>
 2fe:	df 91       	pop	r29
 300:	cf 91       	pop	r28
 302:	08 95       	ret

00000304 <oled_set_val>:

void oled_set_val(uint8_t val) {
 304:	cf 93       	push	r28
 306:	c8 2f       	mov	r28, r24
	spi_select_slave(DISP);
 308:	82 e0       	ldi	r24, 0x02	; 2
 30a:	0e 94 9d 01 	call	0x33a	; 0x33a <spi_select_slave>
	PORTB |= (1 << PB1);
 30e:	88 b3       	in	r24, 0x18	; 24
 310:	82 60       	ori	r24, 0x02	; 2
 312:	88 bb       	out	0x18, r24	; 24
	spi_write_byte(val); spi_read_byte();
 314:	8c 2f       	mov	r24, r28
 316:	0e 94 cb 01 	call	0x396	; 0x396 <spi_write_byte>
 31a:	0e 94 cf 01 	call	0x39e	; 0x39e <spi_read_byte>
	spi_select_slave(NONE);
 31e:	83 e0       	ldi	r24, 0x03	; 3
 320:	0e 94 9d 01 	call	0x33a	; 0x33a <spi_select_slave>
}
 324:	cf 91       	pop	r28
 326:	08 95       	ret

00000328 <spi_init>:
#include "spi.h"
#include <avr/io.h>
#include <stdlib.h>

void spi_init(void) {
	DDRB |= (1<<PB2) | (1<<PB3) | (1<<PB4) | (1<<PB5) | (1<<PB7); // output : CS_DISP CS_CAN CS_IO MOSI SCK
 328:	87 b3       	in	r24, 0x17	; 23
 32a:	8c 6b       	ori	r24, 0xBC	; 188
 32c:	87 bb       	out	0x17, r24	; 23
	DDRB &= ~(1<<PB6);
 32e:	87 b3       	in	r24, 0x17	; 23
 330:	8f 7b       	andi	r24, 0xBF	; 191
 332:	87 bb       	out	0x17, r24	; 23
	
	SPCR = (1<<SPE) | (1<<MSTR);
 334:	80 e5       	ldi	r24, 0x50	; 80
 336:	8d b9       	out	0x0d, r24	; 13
 338:	08 95       	ret

0000033a <spi_select_slave>:
}

void spi_select_slave(slave s) {
	if(s == CAN) {
 33a:	81 11       	cpse	r24, r1
 33c:	0a c0       	rjmp	.+20     	; 0x352 <spi_select_slave+0x18>
		PORTB &= ~(1<<PB3);
 33e:	88 b3       	in	r24, 0x18	; 24
 340:	87 7f       	andi	r24, 0xF7	; 247
 342:	88 bb       	out	0x18, r24	; 24
		PORTB |= (1<<PB2);
 344:	88 b3       	in	r24, 0x18	; 24
 346:	84 60       	ori	r24, 0x04	; 4
 348:	88 bb       	out	0x18, r24	; 24
		PORTB |= (1<<PB4);
 34a:	88 b3       	in	r24, 0x18	; 24
 34c:	80 61       	ori	r24, 0x10	; 16
 34e:	88 bb       	out	0x18, r24	; 24
 350:	08 95       	ret
	}
	else if (s == IO) {
 352:	81 30       	cpi	r24, 0x01	; 1
 354:	51 f4       	brne	.+20     	; 0x36a <spi_select_slave+0x30>
		PORTB &= ~(1<<PB4);
 356:	88 b3       	in	r24, 0x18	; 24
 358:	8f 7e       	andi	r24, 0xEF	; 239
 35a:	88 bb       	out	0x18, r24	; 24
		PORTB |= (1<<PB2);
 35c:	88 b3       	in	r24, 0x18	; 24
 35e:	84 60       	ori	r24, 0x04	; 4
 360:	88 bb       	out	0x18, r24	; 24
		PORTB |= (1<<PB3);
 362:	88 b3       	in	r24, 0x18	; 24
 364:	88 60       	ori	r24, 0x08	; 8
 366:	88 bb       	out	0x18, r24	; 24
 368:	08 95       	ret
	}
	else if (s == DISP) {
 36a:	82 30       	cpi	r24, 0x02	; 2
 36c:	51 f4       	brne	.+20     	; 0x382 <spi_select_slave+0x48>
		PORTB &= ~(1<<PB2);
 36e:	88 b3       	in	r24, 0x18	; 24
 370:	8b 7f       	andi	r24, 0xFB	; 251
 372:	88 bb       	out	0x18, r24	; 24
		PORTB |= (1<<PB3);
 374:	88 b3       	in	r24, 0x18	; 24
 376:	88 60       	ori	r24, 0x08	; 8
 378:	88 bb       	out	0x18, r24	; 24
		PORTB |= (1<<PB4);
 37a:	88 b3       	in	r24, 0x18	; 24
 37c:	80 61       	ori	r24, 0x10	; 16
 37e:	88 bb       	out	0x18, r24	; 24
 380:	08 95       	ret
	}
	else {
		PORTB |= (1<<PB3);
 382:	88 b3       	in	r24, 0x18	; 24
 384:	88 60       	ori	r24, 0x08	; 8
 386:	88 bb       	out	0x18, r24	; 24
		PORTB |= (1<<PB2);
 388:	88 b3       	in	r24, 0x18	; 24
 38a:	84 60       	ori	r24, 0x04	; 4
 38c:	88 bb       	out	0x18, r24	; 24
		PORTB |= (1<<PB4);
 38e:	88 b3       	in	r24, 0x18	; 24
 390:	80 61       	ori	r24, 0x10	; 16
 392:	88 bb       	out	0x18, r24	; 24
 394:	08 95       	ret

00000396 <spi_write_byte>:
	}
}

void spi_write_byte(uint8_t byte) {
	SPDR = byte; 
 396:	8f b9       	out	0x0f, r24	; 15
	while(!(SPSR & (1<<SPIF))); 
 398:	77 9b       	sbis	0x0e, 7	; 14
 39a:	fe cf       	rjmp	.-4      	; 0x398 <spi_write_byte+0x2>
}
 39c:	08 95       	ret

0000039e <spi_read_byte>:

uint8_t spi_read_byte(void) {
	while(!(SPSR & (1<<SPIF))); 
 39e:	77 9b       	sbis	0x0e, 7	; 14
 3a0:	fe cf       	rjmp	.-4      	; 0x39e <spi_read_byte>
	return SPDR; 
 3a2:	8f b1       	in	r24, 0x0f	; 15
}
 3a4:	08 95       	ret

000003a6 <__vector_19>:
		*data = uart_rx_data;
		uart_rx_flag = 0;
		return 1; // success
	}
	return 0; // no data
}
 3a6:	1f 92       	push	r1
 3a8:	0f 92       	push	r0
 3aa:	0f b6       	in	r0, 0x3f	; 63
 3ac:	0f 92       	push	r0
 3ae:	11 24       	eor	r1, r1
 3b0:	8f 93       	push	r24
 3b2:	8c b1       	in	r24, 0x0c	; 12
 3b4:	80 93 17 01 	sts	0x0117, r24	; 0x800117 <uart_rx_data>
 3b8:	81 e0       	ldi	r24, 0x01	; 1
 3ba:	80 93 0e 01 	sts	0x010E, r24	; 0x80010e <__data_end>
 3be:	8f 91       	pop	r24
 3c0:	0f 90       	pop	r0
 3c2:	0f be       	out	0x3f, r0	; 63
 3c4:	0f 90       	pop	r0
 3c6:	1f 90       	pop	r1
 3c8:	18 95       	reti

000003ca <uart_send_byte>:
 3ca:	5d 9b       	sbis	0x0b, 5	; 11
 3cc:	fe cf       	rjmp	.-4      	; 0x3ca <uart_send_byte>
 3ce:	8c b9       	out	0x0c, r24	; 12
 3d0:	08 95       	ret

000003d2 <uart_putchar>:
 3d2:	cf 93       	push	r28
 3d4:	c8 2f       	mov	r28, r24
 3d6:	8a 30       	cpi	r24, 0x0A	; 10
 3d8:	19 f4       	brne	.+6      	; 0x3e0 <uart_putchar+0xe>
 3da:	8d e0       	ldi	r24, 0x0D	; 13
 3dc:	0e 94 e5 01 	call	0x3ca	; 0x3ca <uart_send_byte>
 3e0:	8c 2f       	mov	r24, r28
 3e2:	0e 94 e5 01 	call	0x3ca	; 0x3ca <uart_send_byte>
 3e6:	80 e0       	ldi	r24, 0x00	; 0
 3e8:	90 e0       	ldi	r25, 0x00	; 0
 3ea:	cf 91       	pop	r28
 3ec:	08 95       	ret

000003ee <uart_printf_init>:
	uart_send_byte(c);
	return 0;
}

void uart_printf_init() {
	stdout = &uart_output; // redirect printf to UART
 3ee:	80 e0       	ldi	r24, 0x00	; 0
 3f0:	91 e0       	ldi	r25, 0x01	; 1
 3f2:	90 93 1b 01 	sts	0x011B, r25	; 0x80011b <__iob+0x3>
 3f6:	80 93 1a 01 	sts	0x011A, r24	; 0x80011a <__iob+0x2>
 3fa:	08 95       	ret

000003fc <uart_init>:
ISR(USART0_RXC_vect) {
	uart_rx_data = UDR0; // Read receive byte
	uart_rx_flag = 1;    // used by main program to check if data was received
}

void uart_init(uint32_t baudrate) {
 3fc:	9b 01       	movw	r18, r22
 3fe:	ac 01       	movw	r20, r24
	uint16_t ubrr = F_CPU/16/baudrate - 1;
 400:	60 e0       	ldi	r22, 0x00	; 0
 402:	70 eb       	ldi	r23, 0xB0	; 176
 404:	84 e0       	ldi	r24, 0x04	; 4
 406:	90 e0       	ldi	r25, 0x00	; 0
 408:	0e 94 18 02 	call	0x430	; 0x430 <__udivmodsi4>
 40c:	21 50       	subi	r18, 0x01	; 1
 40e:	31 09       	sbc	r19, r1
	UBRR0H = (uint8_t)(ubrr >> 8);
 410:	30 bd       	out	0x20, r19	; 32
	UBRR0L = (uint8_t)(ubrr & 0xFF);
 412:	29 b9       	out	0x09, r18	; 9
	
	UCSR0B = (1 << RXEN0) | (1 << TXEN0) | (1 << RXCIE0); // Enable Rx, Tx, and Rx interrupt
 414:	88 e9       	ldi	r24, 0x98	; 152
 416:	8a b9       	out	0x0a, r24	; 10
	UCSR0C = (1 << URSEL0) | (1 << UCSZ01) | (1 << UCSZ00); // Set length of data to 8 bits, no parity, one stop bit
 418:	86 e8       	ldi	r24, 0x86	; 134
 41a:	80 bd       	out	0x20, r24	; 32
	
	uart_printf_init();
 41c:	0e 94 f7 01 	call	0x3ee	; 0x3ee <uart_printf_init>
 420:	08 95       	ret

00000422 <xmem_init>:
#include "xmem.h"

#define BASE_ADDRESS 0x1400

void xmem_init(void) {
	MCUCR |= (1 << SRE);	// Enable XMEM
 422:	85 b7       	in	r24, 0x35	; 53
 424:	80 68       	ori	r24, 0x80	; 128
 426:	85 bf       	out	0x35, r24	; 53
	SFIOR |= (1 << XMM0);   // mask bits to reduce bus width (leaving JTAG alone)
 428:	80 b7       	in	r24, 0x30	; 48
 42a:	88 60       	ori	r24, 0x08	; 8
 42c:	80 bf       	out	0x30, r24	; 48
 42e:	08 95       	ret

00000430 <__udivmodsi4>:
 430:	a1 e2       	ldi	r26, 0x21	; 33
 432:	1a 2e       	mov	r1, r26
 434:	aa 1b       	sub	r26, r26
 436:	bb 1b       	sub	r27, r27
 438:	fd 01       	movw	r30, r26
 43a:	0d c0       	rjmp	.+26     	; 0x456 <__udivmodsi4_ep>

0000043c <__udivmodsi4_loop>:
 43c:	aa 1f       	adc	r26, r26
 43e:	bb 1f       	adc	r27, r27
 440:	ee 1f       	adc	r30, r30
 442:	ff 1f       	adc	r31, r31
 444:	a2 17       	cp	r26, r18
 446:	b3 07       	cpc	r27, r19
 448:	e4 07       	cpc	r30, r20
 44a:	f5 07       	cpc	r31, r21
 44c:	20 f0       	brcs	.+8      	; 0x456 <__udivmodsi4_ep>
 44e:	a2 1b       	sub	r26, r18
 450:	b3 0b       	sbc	r27, r19
 452:	e4 0b       	sbc	r30, r20
 454:	f5 0b       	sbc	r31, r21

00000456 <__udivmodsi4_ep>:
 456:	66 1f       	adc	r22, r22
 458:	77 1f       	adc	r23, r23
 45a:	88 1f       	adc	r24, r24
 45c:	99 1f       	adc	r25, r25
 45e:	1a 94       	dec	r1
 460:	69 f7       	brne	.-38     	; 0x43c <__udivmodsi4_loop>
 462:	60 95       	com	r22
 464:	70 95       	com	r23
 466:	80 95       	com	r24
 468:	90 95       	com	r25
 46a:	9b 01       	movw	r18, r22
 46c:	ac 01       	movw	r20, r24
 46e:	bd 01       	movw	r22, r26
 470:	cf 01       	movw	r24, r30
 472:	08 95       	ret

00000474 <_exit>:
 474:	f8 94       	cli

00000476 <__stop_program>:
 476:	ff cf       	rjmp	.-2      	; 0x476 <__stop_program>
