
pingpong.elf:     file format elf32-avr

Sections:
Idx Name          Size      VMA       LMA       File off  Algn
  0 .data         0000009a  00800100  00001fb4  00002048  2**0
                  CONTENTS, ALLOC, LOAD, DATA
  1 .text         00001fb4  00000000  00000000  00000094  2**1
                  CONTENTS, ALLOC, LOAD, READONLY, CODE
  2 .bss          0000001d  0080019a  0080019a  000020e2  2**0
                  ALLOC
  3 .comment      0000005c  00000000  00000000  000020e2  2**0
                  CONTENTS, READONLY
  4 .note.gnu.avr.deviceinfo 0000003c  00000000  00000000  00002140  2**2
                  CONTENTS, READONLY
  5 .debug_aranges 00000308  00000000  00000000  0000217c  2**0
                  CONTENTS, READONLY, DEBUGGING
  6 .debug_info   00004208  00000000  00000000  00002484  2**0
                  CONTENTS, READONLY, DEBUGGING
  7 .debug_abbrev 00001648  00000000  00000000  0000668c  2**0
                  CONTENTS, READONLY, DEBUGGING
  8 .debug_line   00002005  00000000  00000000  00007cd4  2**0
                  CONTENTS, READONLY, DEBUGGING
  9 .debug_frame  00000868  00000000  00000000  00009cdc  2**2
                  CONTENTS, READONLY, DEBUGGING
 10 .debug_str    00000c4d  00000000  00000000  0000a544  2**0
                  CONTENTS, READONLY, DEBUGGING
 11 .debug_loc    00002430  00000000  00000000  0000b191  2**0
                  CONTENTS, READONLY, DEBUGGING
 12 .debug_ranges 000002d0  00000000  00000000  0000d5c1  2**0
                  CONTENTS, READONLY, DEBUGGING

Disassembly of section .text:

00000000 <__vectors>:
       0:	0c 94 c4 02 	jmp	0x588	; 0x588 <__ctors_end>
       4:	0c 94 91 03 	jmp	0x722	; 0x722 <__vector_1>
       8:	0c 94 e1 02 	jmp	0x5c2	; 0x5c2 <__bad_interrupt>
       c:	0c 94 e1 02 	jmp	0x5c2	; 0x5c2 <__bad_interrupt>
      10:	0c 94 e1 02 	jmp	0x5c2	; 0x5c2 <__bad_interrupt>
      14:	0c 94 e1 02 	jmp	0x5c2	; 0x5c2 <__bad_interrupt>
      18:	0c 94 e1 02 	jmp	0x5c2	; 0x5c2 <__bad_interrupt>
      1c:	0c 94 6e 0a 	jmp	0x14dc	; 0x14dc <__vector_7>
      20:	0c 94 e1 02 	jmp	0x5c2	; 0x5c2 <__bad_interrupt>
      24:	0c 94 e1 02 	jmp	0x5c2	; 0x5c2 <__bad_interrupt>
      28:	0c 94 e1 02 	jmp	0x5c2	; 0x5c2 <__bad_interrupt>
      2c:	0c 94 e1 02 	jmp	0x5c2	; 0x5c2 <__bad_interrupt>
      30:	0c 94 e1 02 	jmp	0x5c2	; 0x5c2 <__bad_interrupt>
      34:	0c 94 e1 02 	jmp	0x5c2	; 0x5c2 <__bad_interrupt>
      38:	0c 94 e1 02 	jmp	0x5c2	; 0x5c2 <__bad_interrupt>
      3c:	0c 94 e1 02 	jmp	0x5c2	; 0x5c2 <__bad_interrupt>
      40:	0c 94 e1 02 	jmp	0x5c2	; 0x5c2 <__bad_interrupt>
      44:	0c 94 e1 02 	jmp	0x5c2	; 0x5c2 <__bad_interrupt>
      48:	0c 94 e1 02 	jmp	0x5c2	; 0x5c2 <__bad_interrupt>
      4c:	0c 94 44 0c 	jmp	0x1888	; 0x1888 <__vector_19>
      50:	0c 94 e1 02 	jmp	0x5c2	; 0x5c2 <__bad_interrupt>
      54:	0c 94 e1 02 	jmp	0x5c2	; 0x5c2 <__bad_interrupt>
      58:	0c 94 e1 02 	jmp	0x5c2	; 0x5c2 <__bad_interrupt>
      5c:	0c 94 e1 02 	jmp	0x5c2	; 0x5c2 <__bad_interrupt>
      60:	0c 94 e1 02 	jmp	0x5c2	; 0x5c2 <__bad_interrupt>
      64:	0c 94 e1 02 	jmp	0x5c2	; 0x5c2 <__bad_interrupt>
      68:	0c 94 e1 02 	jmp	0x5c2	; 0x5c2 <__bad_interrupt>
      6c:	0c 94 e1 02 	jmp	0x5c2	; 0x5c2 <__bad_interrupt>

00000070 <__trampolines_end>:
      70:	00 80       	ld	r0, Z
      72:	40 20       	and	r4, r0
      74:	10 08       	sbc	r1, r0
      76:	08 08       	sbc	r0, r8
      78:	04 04       	cpc	r0, r4
      7a:	04 08       	sbc	r0, r4
      7c:	08 10       	cpse	r0, r8
      7e:	60 80       	ld	r6, Z
      80:	00 00       	nop
      82:	00 00       	nop
      84:	00 00       	nop
      86:	00 1c       	adc	r0, r0
      88:	63 80       	ldd	r6, Z+3	; 0x03
	...
      92:	80 40       	sbci	r24, 0x00	; 0
      94:	20 10       	cpse	r2, r0
      96:	09 fe       	.word	0xfe09	; ????
	...
      a0:	00 01       	movw	r0, r0
      a2:	01 02       	muls	r16, r17
      a4:	02 04       	cpc	r0, r2
      a6:	04 06       	cpc	r0, r20
      a8:	05 04       	cpc	r0, r5
      aa:	04 04       	cpc	r0, r4
      ac:	04 08       	sbc	r0, r4
      ae:	11 22       	and	r1, r17
      b0:	44 88       	ldd	r4, Z+20	; 0x14
      b2:	50 20       	and	r5, r0
	...

000000b5 <font5>:
      b5:	00 00 00 00 00 00 00 5f 00 00 00 07 00 07 00 14     ......._........
      c5:	7f 14 7f 14 24 2a 7f 2a 12 23 13 08 64 62 36 49     ....$*.*.#..db6I
      d5:	55 22 50 00 05 03 00 00 00 1c 22 41 00 00 41 22     U"P......."A..A"
      e5:	1c 00 08 2a 1c 2a 08 08 08 3e 08 08 00 50 30 00     ...*.*...>...P0.
      f5:	00 08 08 08 08 08 00 60 60 00 00 20 10 08 04 02     .......``.. ....
     105:	3e 51 49 45 3e 00 42 7f 40 00 42 61 51 49 46 21     >QIE>.B.@.BaQIF!
     115:	41 45 4b 31 18 14 12 7f 10 27 45 45 45 39 3c 4a     AEK1.....'EEE9<J
     125:	49 49 30 01 71 09 05 03 36 49 49 49 36 06 49 49     II0.q...6III6.II
     135:	29 1e 00 36 36 00 00 00 56 36 00 00 00 08 14 22     )..66...V6....."
     145:	41 14 14 14 14 14 41 22 14 08 00 02 01 51 09 06     A.....A".....Q..
     155:	32 49 79 41 3e 7e 11 11 11 7e 7f 49 49 49 36 3e     2IyA>~...~.III6>
     165:	41 41 41 22 7f 41 41 22 1c 7f 49 49 49 41 7f 09     AAA".AA"..IIIA..
     175:	09 01 01 3e 41 41 51 32 7f 08 08 08 7f 00 41 7f     ...>AAQ2......A.
     185:	41 00 20 40 41 3f 01 7f 08 14 22 41 7f 40 40 40     A. @A?...."A.@@@
     195:	40 7f 02 04 02 7f 7f 04 08 10 7f 3e 41 41 41 3e     @..........>AAA>
     1a5:	7f 09 09 09 06 3e 41 51 21 5e 7f 09 19 29 46 46     .....>AQ!^...)FF
     1b5:	49 49 49 31 01 01 7f 01 01 3f 40 40 40 3f 1f 20     III1.....?@@@?. 
     1c5:	40 20 1f 7f 20 18 20 7f 63 14 08 14 63 03 04 78     @ .. . .c...c..x
     1d5:	04 03 61 51 49 45 43 00 00 7f 41 41 02 04 08 10     ..aQIEC...AA....
     1e5:	20 41 41 7f 00 00 04 02 01 02 04 40 40 40 40 40      AA........@@@@@
     1f5:	00 01 02 04 00 20 54 54 54 78 7f 48 44 44 38 38     ..... TTTx.HDD88
     205:	44 44 44 20 38 44 44 48 7f 38 54 54 54 18 08 7e     DDD 8DDH.8TTT..~
     215:	09 01 02 08 14 54 54 3c 7f 08 04 04 78 00 44 7d     .....TT<....x.D}
     225:	40 00 20 40 44 3d 00 00 7f 10 28 44 00 41 7f 40     @. @D=....(D.A.@
     235:	00 7c 04 18 04 78 7c 08 04 04 78 38 44 44 44 38     .|...x|...x8DDD8
     245:	7c 14 14 14 08 08 14 14 18 7c 7c 08 04 04 08 48     |........||....H
     255:	54 54 54 20 04 3f 44 40 20 3c 40 40 20 7c 1c 20     TTT .?D@ <@@ |. 
     265:	40 20 1c 3c 40 30 40 3c 44 28 10 28 44 0c 50 50     @ .<@0@<D(.(D.PP
     275:	50 3c 44 64 54 4c 44 00 08 36 41 00 00 00 7f 00     P<DdTLD..6A.....
     285:	00 00 41 36 08 00 02 01 03 02 01                    ..A6.......

00000290 <font8>:
	...
     298:	00 06 5f 5f 06 00 00 00 00 07 07 00 07 07 00 00     ..__............
     2a8:	14 7f 7f 14 7f 7f 14 00 24 2e 6b 6b 3a 12 00 00     ........$.kk:...
     2b8:	46 66 30 18 0c 66 62 00 30 7a 4f 5d 37 7a 48 00     Ff0..fb.0zO]7zH.
     2c8:	04 07 03 00 00 00 00 00 00 1c 3e 63 41 00 00 00     ..........>cA...
     2d8:	00 41 63 3e 1c 00 00 00 08 2a 3e 1c 1c 3e 2a 08     .Ac>.....*>..>*.
     2e8:	08 08 3e 3e 08 08 00 00 00 a0 e0 60 00 00 00 00     ..>>.......`....
     2f8:	08 08 08 08 08 08 00 00 00 00 60 60 00 00 00 00     ..........``....
     308:	60 30 18 0c 06 03 01 00 3e 7f 59 4d 7f 3e 00 00     `0......>.YM.>..
     318:	42 42 7f 7f 40 40 00 00 62 73 59 49 6f 66 00 00     BB..@@..bsYIof..
     328:	22 63 49 49 7f 36 00 00 18 1c 16 13 7f 7f 10 00     "cII.6..........
     338:	27 67 45 45 7d 39 00 00 3c 7e 4b 49 79 30 00 00     'gEE}9..<~KIy0..
     348:	03 63 71 19 0f 07 00 00 36 7f 49 49 7f 36 00 00     .cq.....6.II.6..
     358:	06 4f 49 69 3f 1e 00 00 00 00 6c 6c 00 00 00 00     .OIi?.....ll....
     368:	00 a0 ec 6c 00 00 00 00 08 1c 36 63 41 00 00 00     ...l......6cA...
     378:	14 14 14 14 14 14 00 00 00 41 63 36 1c 08 00 00     .........Ac6....
     388:	02 03 51 59 0f 06 00 00 3e 7f 41 5d 5d 1f 1e 00     ..QY....>.A]]...
     398:	7c 7e 13 13 7e 7c 00 00 41 7f 7f 49 49 7f 36 00     |~..~|..A..II.6.
     3a8:	1c 3e 63 41 41 63 22 00 41 7f 7f 41 63 7f 1c 00     .>cAAc".A..Ac...
     3b8:	41 7f 7f 49 5d 41 63 00 41 7f 7f 49 1d 01 03 00     A..I]Ac.A..I....
     3c8:	1c 3e 63 41 51 73 72 00 7f 7f 08 08 7f 7f 00 00     .>cAQsr.........
     3d8:	00 41 7f 7f 41 00 00 00 30 70 40 41 7f 3f 01 00     .A..A...0p@A.?..
     3e8:	41 7f 7f 08 1c 77 63 00 41 7f 7f 41 40 60 70 00     A....wc.A..A@`p.
     3f8:	7f 7f 06 0c 06 7f 7f 00 7f 7f 06 0c 18 7f 7f 00     ................
     408:	1c 3e 63 41 63 3e 1c 00 41 7f 7f 49 09 0f 06 00     .>cAc>..A..I....
     418:	1e 3f 21 71 7f 5e 00 00 41 7f 7f 19 39 6f 46 00     .?!q.^..A...9oF.
     428:	26 67 4d 59 7b 32 00 00 03 41 7f 7f 41 03 00 00     &gMY{2...A..A...
     438:	7f 7f 40 40 7f 7f 00 00 1f 3f 60 60 3f 1f 00 00     ..@@.....?``?...
     448:	7f 7f 30 18 30 7f 7f 00 63 77 1c 08 1c 77 63 00     ..0.0...cw...wc.
     458:	07 4f 78 78 4f 07 00 00 67 73 59 4d 47 63 71 00     .OxxO...gsYMGcq.
     468:	00 7f 7f 41 41 00 00 00 01 03 06 0c 18 30 60 00     ...AA........0`.
     478:	00 41 41 7f 7f 00 00 00 08 0c 06 03 06 0c 08 00     .AA.............
     488:	80 80 80 80 80 80 80 80 00 00 03 07 04 00 00 00     ................
     498:	20 74 54 54 3c 78 40 00 41 3f 7f 44 44 7c 38 00      tTT<x@.A?.DD|8.
     4a8:	38 7c 44 44 6c 28 00 00 30 78 48 49 3f 7f 40 00     8|DDl(..0xHI?.@.
     4b8:	38 7c 54 54 5c 18 00 00 48 7e 7f 49 03 02 00 00     8|TT\...H~.I....
     4c8:	98 bc a4 a4 f8 7c 04 00 41 7f 7f 08 04 7c 78 00     .....|..A....|x.
     4d8:	00 44 7d 7d 40 00 00 00 40 c4 84 fd 7d 00 00 00     .D}}@...@...}...
     4e8:	41 7f 7f 10 38 6c 44 00 00 41 7f 7f 40 00 00 00     A...8lD..A..@...
     4f8:	7c 7c 0c 18 0c 7c 78 00 7c 7c 04 04 7c 78 00 00     ||...|x.||..|x..
     508:	38 7c 44 44 7c 38 00 00 84 fc f8 a4 24 3c 18 00     8|DD|8......$<..
     518:	18 3c 24 a4 f8 fc 84 00 44 7c 78 44 1c 18 00 00     .<$.....D|xD....
     528:	48 5c 54 54 74 24 00 00 00 04 3e 7f 44 24 00 00     H\TTt$....>.D$..
     538:	3c 7c 40 40 3c 7c 40 00 1c 3c 60 60 3c 1c 00 00     <|@@<|@..<``<...
     548:	3c 7c 60 30 60 7c 3c 00 44 6c 38 10 38 6c 44 00     <|`0`|<.Dl8.8lD.
     558:	9c bc a0 a0 fc 7c 00 00 4c 64 74 5c 4c 64 00 00     .....|..Ldt\Ld..
     568:	08 08 3e 77 41 41 00 00 00 00 00 77 77 00 00 00     ..>wAA.....ww...
     578:	41 41 77 3e 08 08 00 00 02 03 01 03 02 03 01 00     AAw>............

00000588 <__ctors_end>:
     588:	11 24       	eor	r1, r1
     58a:	1f be       	out	0x3f, r1	; 63
     58c:	cf ef       	ldi	r28, 0xFF	; 255
     58e:	d4 e0       	ldi	r29, 0x04	; 4
     590:	de bf       	out	0x3e, r29	; 62
     592:	cd bf       	out	0x3d, r28	; 61

00000594 <__do_copy_data>:
     594:	11 e0       	ldi	r17, 0x01	; 1
     596:	a0 e0       	ldi	r26, 0x00	; 0
     598:	b1 e0       	ldi	r27, 0x01	; 1
     59a:	e4 eb       	ldi	r30, 0xB4	; 180
     59c:	ff e1       	ldi	r31, 0x1F	; 31
     59e:	02 c0       	rjmp	.+4      	; 0x5a4 <__do_copy_data+0x10>
     5a0:	05 90       	lpm	r0, Z+
     5a2:	0d 92       	st	X+, r0
     5a4:	aa 39       	cpi	r26, 0x9A	; 154
     5a6:	b1 07       	cpc	r27, r17
     5a8:	d9 f7       	brne	.-10     	; 0x5a0 <__do_copy_data+0xc>

000005aa <__do_clear_bss>:
     5aa:	21 e0       	ldi	r18, 0x01	; 1
     5ac:	aa e9       	ldi	r26, 0x9A	; 154
     5ae:	b1 e0       	ldi	r27, 0x01	; 1
     5b0:	01 c0       	rjmp	.+2      	; 0x5b4 <.do_clear_bss_start>

000005b2 <.do_clear_bss_loop>:
     5b2:	1d 92       	st	X+, r1

000005b4 <.do_clear_bss_start>:
     5b4:	a7 3b       	cpi	r26, 0xB7	; 183
     5b6:	b2 07       	cpc	r27, r18
     5b8:	e1 f7       	brne	.-8      	; 0x5b2 <.do_clear_bss_loop>
     5ba:	0e 94 82 05 	call	0xb04	; 0xb04 <main>
     5be:	0c 94 d8 0f 	jmp	0x1fb0	; 0x1fb0 <_exit>

000005c2 <__bad_interrupt>:
     5c2:	0c 94 00 00 	jmp	0	; 0x0 <__vectors>

000005c6 <adc_init>:
#define ADC_RAM(ch) (*(volatile uint8_t*)((ADC_BASE) + ((ch)&0x07)))


void adc_init( void ) {
	/* ==== Set the clock ==== */
	DDRD |= (1 << PD5);	// OC1A pin as output
     5c6:	81 b3       	in	r24, 0x11	; 17
     5c8:	80 62       	ori	r24, 0x20	; 32
     5ca:	81 bb       	out	0x11, r24	; 17
	DDRD &= ~(1 << PD3); // PD3 as input
     5cc:	81 b3       	in	r24, 0x11	; 17
     5ce:	87 7f       	andi	r24, 0xF7	; 247
     5d0:	81 bb       	out	0x11, r24	; 17
	
	TCCR1B = (1 << WGM12) | (1 << CS10);  // CTC, no prescaler
     5d2:	89 e0       	ldi	r24, 0x09	; 9
     5d4:	8e bd       	out	0x2e, r24	; 46
	TCCR1A = (1 << COM1A0);				  // Toggle OC1A on compare match
     5d6:	80 e4       	ldi	r24, 0x40	; 64
     5d8:	8f bd       	out	0x2f, r24	; 47
	
	OCR1A = 2;
     5da:	82 e0       	ldi	r24, 0x02	; 2
     5dc:	90 e0       	ldi	r25, 0x00	; 0
     5de:	9b bd       	out	0x2b, r25	; 43
     5e0:	8a bd       	out	0x2a, r24	; 42
	/* ======================= */

	DDRD &= ~(1 << DDD4);
     5e2:	81 b3       	in	r24, 0x11	; 17
     5e4:	8f 7e       	andi	r24, 0xEF	; 239
     5e6:	81 bb       	out	0x11, r24	; 17
     5e8:	08 95       	ret

000005ea <get_io_inputs>:

static inline void wait_conversion_done(void) {
	while (!(PIND & (1 << PD4))) ; // Wait until BUSY=high
}

io_inputs_t get_io_inputs(void) {
     5ea:	fc 01       	movw	r30, r24
	io_inputs_t inputs;
	volatile char * ext_mem = ( char *) ADC_BASE ;
	ext_mem[0] = 0; // Send a write to start a conversion from ADC.
     5ec:	10 92 00 10 	sts	0x1000, r1	; 0x801000 <__bss_end+0xe49>
	#else
		//round up by default
		__ticks_dc = (uint32_t)(ceil(fabs(__tmp)));
	#endif

	__builtin_avr_delay_cycles(__ticks_dc);
     5f0:	00 c0       	rjmp	.+0      	; 0x5f2 <get_io_inputs+0x8>

	DDRD &= ~(1 << DDD4);
}

static inline void wait_conversion_done(void) {
	while (!(PIND & (1 << PD4))) ; // Wait until BUSY=high
     5f2:	84 9b       	sbis	0x10, 4	; 16
     5f4:	fe cf       	rjmp	.-4      	; 0x5f2 <get_io_inputs+0x8>
	io_inputs_t inputs;
	volatile char * ext_mem = ( char *) ADC_BASE ;
	ext_mem[0] = 0; // Send a write to start a conversion from ADC.
	_delay_us(2);  // Wait a bit.
	wait_conversion_done(); // Wait until ADC finished converting.
	inputs.joy_x = ext_mem[0];
     5f6:	a0 e0       	ldi	r26, 0x00	; 0
     5f8:	b0 e1       	ldi	r27, 0x10	; 16
     5fa:	8c 91       	ld	r24, X
     5fc:	90 e0       	ldi	r25, 0x00	; 0
     5fe:	91 83       	std	Z+1, r25	; 0x01
     600:	80 83       	st	Z, r24
	inputs.joy_y = ext_mem[0];
     602:	8c 91       	ld	r24, X
     604:	90 e0       	ldi	r25, 0x00	; 0
     606:	93 83       	std	Z+3, r25	; 0x03
     608:	82 83       	std	Z+2, r24	; 0x02
	inputs.pad_x = ext_mem[0];
     60a:	8c 91       	ld	r24, X
     60c:	90 e0       	ldi	r25, 0x00	; 0
     60e:	95 83       	std	Z+5, r25	; 0x05
     610:	84 83       	std	Z+4, r24	; 0x04
	inputs.pad_y = ext_mem[0];
     612:	8c 91       	ld	r24, X
     614:	90 e0       	ldi	r25, 0x00	; 0
     616:	97 83       	std	Z+7, r25	; 0x07
     618:	86 83       	std	Z+6, r24	; 0x06
	inputs.joy_b = !(PIND & (1 << PD3)); 
     61a:	80 b3       	in	r24, 0x10	; 16
     61c:	86 95       	lsr	r24
     61e:	86 95       	lsr	r24
     620:	86 95       	lsr	r24
     622:	91 e0       	ldi	r25, 0x01	; 1
     624:	89 27       	eor	r24, r25
     626:	81 70       	andi	r24, 0x01	; 1
     628:	80 87       	std	Z+8, r24	; 0x08
     62a:	11 86       	std	Z+9, r1	; 0x09

	return inputs;
     62c:	cf 01       	movw	r24, r30
     62e:	08 95       	ret

00000630 <can_init>:
#include <avr/interrupt.h>
#include "mcp2515.h"   // Definitions of MCP2515's registers

void can_init(void)
{
	cli(); 
     630:	f8 94       	cli
	// Reset MCP2515
	can_controller_reset();
     632:	0e 94 af 04 	call	0x95e	; 0x95e <can_controller_reset>
	#else
		//round up by default
		__ticks_dc = (uint32_t)(ceil(fabs(__tmp)));
	#endif

	__builtin_avr_delay_cycles(__ticks_dc);
     636:	83 ec       	ldi	r24, 0xC3	; 195
     638:	99 e0       	ldi	r25, 0x09	; 9
     63a:	01 97       	sbiw	r24, 0x01	; 1
     63c:	f1 f7       	brne	.-4      	; 0x63a <can_init+0xa>
     63e:	00 c0       	rjmp	.+0      	; 0x640 <can_init+0x10>
     640:	00 00       	nop
	_delay_ms(10);

	// bit timing
	// 16 MHz
	can_controller_write(MCP_CNF1, 0x03);  // SJW=0 (t_sjw = 1xTQ), BRP=3 --> TQ = 0.5 us 
     642:	63 e0       	ldi	r22, 0x03	; 3
     644:	8a e2       	ldi	r24, 0x2A	; 42
     646:	0e 94 5e 04 	call	0x8bc	; 0x8bc <can_controller_write>
	can_controller_write(MCP_CNF2, 0xB0);  // BTLMODE=1, PHSEG1=6 (t_ps1 = 7xTQ), PRSEG=0 (t_propSeg = 1xTQ)
     64a:	60 eb       	ldi	r22, 0xB0	; 176
     64c:	89 e2       	ldi	r24, 0x29	; 41
     64e:	0e 94 5e 04 	call	0x8bc	; 0x8bc <can_controller_write>
	can_controller_write(MCP_CNF3, 0x05);  // PHSEG2=5 (t_ps2 = 6xTQ)
     652:	65 e0       	ldi	r22, 0x05	; 5
     654:	88 e2       	ldi	r24, 0x28	; 40
     656:	0e 94 5e 04 	call	0x8bc	; 0x8bc <can_controller_write>
	//can_controller_write(MCP_CNF1, 0x07);  // SJW=0 (t_sjw = 1xTQ), BRP=7 --> TQ = 1 us 
	//can_controller_write(MCP_CNF2, 0xAA);  // BTLMODE=1, PHSEG1=5 (t_ps1 = 6xTQ), PRSEG=2 (t_propSeg = 3xTQ)
	//can_controller_write(MCP_CNF3, 0x05);  // PHSEG2=5 (t_ps2 = 6xTQ)
	

	can_controller_write(MCP_CANINTE, 0x03); // For interruption (receive interruptions)
     65a:	63 e0       	ldi	r22, 0x03	; 3
     65c:	8b e2       	ldi	r24, 0x2B	; 43
     65e:	0e 94 5e 04 	call	0x8bc	; 0x8bc <can_controller_write>
	can_controller_write(MCP_RXB0CTRL, 0x64); // For reception, deactivate masks and filters
     662:	64 e6       	ldi	r22, 0x64	; 100
     664:	80 e6       	ldi	r24, 0x60	; 96
     666:	0e 94 5e 04 	call	0x8bc	; 0x8bc <can_controller_write>
	can_controller_write(MCP_RXB1CTRL, 0x60); 
     66a:	60 e6       	ldi	r22, 0x60	; 96
     66c:	80 e7       	ldi	r24, 0x70	; 112
     66e:	0e 94 5e 04 	call	0x8bc	; 0x8bc <can_controller_write>
	
	MCUCR |= (1<<ISC01); 
     672:	85 b7       	in	r24, 0x35	; 53
     674:	82 60       	ori	r24, 0x02	; 2
     676:	85 bf       	out	0x35, r24	; 53
	MCUCR &= ~(1<<ISC00); 
     678:	85 b7       	in	r24, 0x35	; 53
     67a:	8e 7f       	andi	r24, 0xFE	; 254
     67c:	85 bf       	out	0x35, r24	; 53
	GICR |= (1<<INT0); 
     67e:	8b b7       	in	r24, 0x3b	; 59
     680:	80 64       	ori	r24, 0x40	; 64
     682:	8b bf       	out	0x3b, r24	; 59
	sei(); // activate interrupts
     684:	78 94       	sei

	can_controller_write(MCP_CANCTRL, 0x04); // Mode Loopback
     686:	64 e0       	ldi	r22, 0x04	; 4
     688:	8f e0       	ldi	r24, 0x0F	; 15
     68a:	0e 94 5e 04 	call	0x8bc	; 0x8bc <can_controller_write>
     68e:	89 ef       	ldi	r24, 0xF9	; 249
     690:	90 e0       	ldi	r25, 0x00	; 0
     692:	01 97       	sbiw	r24, 0x01	; 1
     694:	f1 f7       	brne	.-4      	; 0x692 <can_init+0x62>
     696:	00 c0       	rjmp	.+0      	; 0x698 <can_init+0x68>
     698:	00 00       	nop
     69a:	08 95       	ret

0000069c <can_transmit>:
}



void can_transmit(can_message_t *tx)
{
     69c:	1f 93       	push	r17
     69e:	cf 93       	push	r28
     6a0:	df 93       	push	r29
     6a2:	ec 01       	movw	r28, r24
	// load ID (standard 11 bits)
	uint8_t sidh = (uint8_t)(tx->id >> 3);
     6a4:	88 81       	ld	r24, Y
     6a6:	99 81       	ldd	r25, Y+1	; 0x01
     6a8:	bc 01       	movw	r22, r24
     6aa:	76 95       	lsr	r23
     6ac:	67 95       	ror	r22
     6ae:	76 95       	lsr	r23
     6b0:	67 95       	ror	r22
     6b2:	76 95       	lsr	r23
     6b4:	67 95       	ror	r22
	uint8_t sidl = (uint8_t)((tx->id & 0x07) << 5);
     6b6:	18 2f       	mov	r17, r24
     6b8:	12 95       	swap	r17
     6ba:	11 0f       	add	r17, r17
     6bc:	10 7e       	andi	r17, 0xE0	; 224
     6be:	89 ef       	ldi	r24, 0xF9	; 249
     6c0:	90 e0       	ldi	r25, 0x00	; 0
     6c2:	01 97       	sbiw	r24, 0x01	; 1
     6c4:	f1 f7       	brne	.-4      	; 0x6c2 <can_transmit+0x26>
     6c6:	00 c0       	rjmp	.+0      	; 0x6c8 <can_transmit+0x2c>
     6c8:	00 00       	nop
	
	_delay_ms(1);
	can_controller_write(0x31, sidh); // TXB0SIDH
     6ca:	81 e3       	ldi	r24, 0x31	; 49
     6cc:	0e 94 5e 04 	call	0x8bc	; 0x8bc <can_controller_write>
     6d0:	89 ef       	ldi	r24, 0xF9	; 249
     6d2:	90 e0       	ldi	r25, 0x00	; 0
     6d4:	01 97       	sbiw	r24, 0x01	; 1
     6d6:	f1 f7       	brne	.-4      	; 0x6d4 <can_transmit+0x38>
     6d8:	00 c0       	rjmp	.+0      	; 0x6da <can_transmit+0x3e>
     6da:	00 00       	nop
	_delay_ms(1);
	can_controller_write(0x32, sidl); // TXB0SIDL
     6dc:	61 2f       	mov	r22, r17
     6de:	82 e3       	ldi	r24, 0x32	; 50
     6e0:	0e 94 5e 04 	call	0x8bc	; 0x8bc <can_controller_write>

	// Load the length
	can_controller_write(0x35, tx->length & 0x0F); // TXB0DLC
     6e4:	6a 81       	ldd	r22, Y+2	; 0x02
     6e6:	6f 70       	andi	r22, 0x0F	; 15
     6e8:	85 e3       	ldi	r24, 0x35	; 53
     6ea:	0e 94 5e 04 	call	0x8bc	; 0x8bc <can_controller_write>

	// Load the data
	for (uint8_t i = 0; i < (tx->length & 0x0F); i++) {
     6ee:	10 e0       	ldi	r17, 0x00	; 0
     6f0:	09 c0       	rjmp	.+18     	; 0x704 <can_transmit+0x68>
		can_controller_write(0x36 + i, tx->data[i]);
     6f2:	fe 01       	movw	r30, r28
     6f4:	e2 0f       	add	r30, r18
     6f6:	f3 1f       	adc	r31, r19
     6f8:	63 81       	ldd	r22, Z+3	; 0x03
     6fa:	86 e3       	ldi	r24, 0x36	; 54
     6fc:	81 0f       	add	r24, r17
     6fe:	0e 94 5e 04 	call	0x8bc	; 0x8bc <can_controller_write>

	// Load the length
	can_controller_write(0x35, tx->length & 0x0F); // TXB0DLC

	// Load the data
	for (uint8_t i = 0; i < (tx->length & 0x0F); i++) {
     702:	1f 5f       	subi	r17, 0xFF	; 255
     704:	21 2f       	mov	r18, r17
     706:	30 e0       	ldi	r19, 0x00	; 0
     708:	8a 81       	ldd	r24, Y+2	; 0x02
     70a:	8f 70       	andi	r24, 0x0F	; 15
     70c:	90 e0       	ldi	r25, 0x00	; 0
     70e:	28 17       	cp	r18, r24
     710:	39 07       	cpc	r19, r25
     712:	7c f3       	brlt	.-34     	; 0x6f2 <can_transmit+0x56>
		can_controller_write(0x36 + i, tx->data[i]);
	}

	// Request to send (RTS)
	can_controller_request_send(0x01); // RTS pour TXB0
     714:	81 e0       	ldi	r24, 0x01	; 1
     716:	0e 94 7a 04 	call	0x8f4	; 0x8f4 <can_controller_request_send>
}
     71a:	df 91       	pop	r29
     71c:	cf 91       	pop	r28
     71e:	1f 91       	pop	r17
     720:	08 95       	ret

00000722 <__vector_1>:

uint8_t can_rx_flag;

ISR (INT0_vect) {
     722:	1f 92       	push	r1
     724:	0f 92       	push	r0
     726:	0f b6       	in	r0, 0x3f	; 63
     728:	0f 92       	push	r0
     72a:	11 24       	eor	r1, r1
     72c:	2f 93       	push	r18
     72e:	3f 93       	push	r19
     730:	4f 93       	push	r20
     732:	5f 93       	push	r21
     734:	6f 93       	push	r22
     736:	7f 93       	push	r23
     738:	8f 93       	push	r24
     73a:	9f 93       	push	r25
     73c:	af 93       	push	r26
     73e:	bf 93       	push	r27
     740:	ef 93       	push	r30
     742:	ff 93       	push	r31
	can_rx_flag = can_controller_read(MCP_CANINTF); 
     744:	8c e2       	ldi	r24, 0x2C	; 44
     746:	0e 94 43 04 	call	0x886	; 0x886 <can_controller_read>
     74a:	80 93 ad 01 	sts	0x01AD, r24	; 0x8001ad <can_rx_flag>
}
     74e:	ff 91       	pop	r31
     750:	ef 91       	pop	r30
     752:	bf 91       	pop	r27
     754:	af 91       	pop	r26
     756:	9f 91       	pop	r25
     758:	8f 91       	pop	r24
     75a:	7f 91       	pop	r23
     75c:	6f 91       	pop	r22
     75e:	5f 91       	pop	r21
     760:	4f 91       	pop	r20
     762:	3f 91       	pop	r19
     764:	2f 91       	pop	r18
     766:	0f 90       	pop	r0
     768:	0f be       	out	0x3f, r0	; 63
     76a:	0f 90       	pop	r0
     76c:	1f 90       	pop	r1
     76e:	18 95       	reti

00000770 <can_receive>:


uint8_t can_receive(can_message_t *rx)
{	
     770:	ef 92       	push	r14
     772:	ff 92       	push	r15
     774:	0f 93       	push	r16
     776:	1f 93       	push	r17
     778:	cf 93       	push	r28
     77a:	8c 01       	movw	r16, r24
	//printf("%d\n", can_rx_flag);
	if(can_rx_flag & 1) {
     77c:	80 91 ad 01 	lds	r24, 0x01AD	; 0x8001ad <can_rx_flag>
     780:	80 ff       	sbrs	r24, 0
     782:	39 c0       	rjmp	.+114    	; 0x7f6 <can_receive+0x86>
		uint8_t sidh = can_controller_read(MCP_RXB0SIDH);
     784:	81 e6       	ldi	r24, 0x61	; 97
     786:	0e 94 43 04 	call	0x886	; 0x886 <can_controller_read>
     78a:	c8 2f       	mov	r28, r24
		uint8_t sidl = can_controller_read(0x62); //MCP_RXB0SIDL
     78c:	82 e6       	ldi	r24, 0x62	; 98
     78e:	0e 94 43 04 	call	0x886	; 0x886 <can_controller_read>
		rx->id = (sidh << 3) | (sidl >> 5);
     792:	2c 2f       	mov	r18, r28
     794:	30 e0       	ldi	r19, 0x00	; 0
     796:	22 0f       	add	r18, r18
     798:	33 1f       	adc	r19, r19
     79a:	22 0f       	add	r18, r18
     79c:	33 1f       	adc	r19, r19
     79e:	22 0f       	add	r18, r18
     7a0:	33 1f       	adc	r19, r19
     7a2:	82 95       	swap	r24
     7a4:	86 95       	lsr	r24
     7a6:	87 70       	andi	r24, 0x07	; 7
     7a8:	28 2b       	or	r18, r24
     7aa:	f8 01       	movw	r30, r16
     7ac:	31 83       	std	Z+1, r19	; 0x01
     7ae:	20 83       	st	Z, r18
		rx->length = can_controller_read(0x65) & 0x0F;
     7b0:	85 e6       	ldi	r24, 0x65	; 101
     7b2:	0e 94 43 04 	call	0x886	; 0x886 <can_controller_read>
     7b6:	8f 70       	andi	r24, 0x0F	; 15
     7b8:	f8 01       	movw	r30, r16
     7ba:	82 83       	std	Z+2, r24	; 0x02
		
		for (uint8_t i = 0; i < rx->length; i++) {
     7bc:	c0 e0       	ldi	r28, 0x00	; 0
     7be:	0b c0       	rjmp	.+22     	; 0x7d6 <can_receive+0x66>
			rx->data[i] = can_controller_read(0x66 + i);
     7c0:	ec 2e       	mov	r14, r28
     7c2:	f1 2c       	mov	r15, r1
     7c4:	86 e6       	ldi	r24, 0x66	; 102
     7c6:	8c 0f       	add	r24, r28
     7c8:	0e 94 43 04 	call	0x886	; 0x886 <can_controller_read>
     7cc:	f8 01       	movw	r30, r16
     7ce:	ee 0d       	add	r30, r14
     7d0:	ff 1d       	adc	r31, r15
     7d2:	83 83       	std	Z+3, r24	; 0x03
		uint8_t sidh = can_controller_read(MCP_RXB0SIDH);
		uint8_t sidl = can_controller_read(0x62); //MCP_RXB0SIDL
		rx->id = (sidh << 3) | (sidl >> 5);
		rx->length = can_controller_read(0x65) & 0x0F;
		
		for (uint8_t i = 0; i < rx->length; i++) {
     7d4:	cf 5f       	subi	r28, 0xFF	; 255
     7d6:	f8 01       	movw	r30, r16
     7d8:	82 81       	ldd	r24, Z+2	; 0x02
     7da:	c8 17       	cp	r28, r24
     7dc:	88 f3       	brcs	.-30     	; 0x7c0 <can_receive+0x50>
			rx->data[i] = can_controller_read(0x66 + i);
		}
		
		// Reset interrupt flag RX0IF
		can_controller_bit_modify(MCP_CANINTF, 0x01, 0x00);
     7de:	40 e0       	ldi	r20, 0x00	; 0
     7e0:	61 e0       	ldi	r22, 0x01	; 1
     7e2:	8c e2       	ldi	r24, 0x2C	; 44
     7e4:	0e 94 8b 04 	call	0x916	; 0x916 <can_controller_bit_modify>
		can_rx_flag &= ~1;
     7e8:	80 91 ad 01 	lds	r24, 0x01AD	; 0x8001ad <can_rx_flag>
     7ec:	8e 7f       	andi	r24, 0xFE	; 254
     7ee:	80 93 ad 01 	sts	0x01AD, r24	; 0x8001ad <can_rx_flag>
		return 1; // Message received
     7f2:	c1 e0       	ldi	r28, 0x01	; 1
     7f4:	41 c0       	rjmp	.+130    	; 0x878 <can_receive+0x108>
	} else if (can_rx_flag & 2) {
     7f6:	c8 2f       	mov	r28, r24
     7f8:	c2 70       	andi	r28, 0x02	; 2
     7fa:	81 ff       	sbrs	r24, 1
     7fc:	39 c0       	rjmp	.+114    	; 0x870 <can_receive+0x100>
		uint8_t sidh = can_controller_read(MCP_RXB1SIDH);
     7fe:	81 e7       	ldi	r24, 0x71	; 113
     800:	0e 94 43 04 	call	0x886	; 0x886 <can_controller_read>
     804:	c8 2f       	mov	r28, r24
		uint8_t sidl = can_controller_read(0x72); // MCP_RXB0SIDL
     806:	82 e7       	ldi	r24, 0x72	; 114
     808:	0e 94 43 04 	call	0x886	; 0x886 <can_controller_read>
		rx->id = (sidh << 3) | (sidl >> 5);
     80c:	2c 2f       	mov	r18, r28
     80e:	30 e0       	ldi	r19, 0x00	; 0
     810:	22 0f       	add	r18, r18
     812:	33 1f       	adc	r19, r19
     814:	22 0f       	add	r18, r18
     816:	33 1f       	adc	r19, r19
     818:	22 0f       	add	r18, r18
     81a:	33 1f       	adc	r19, r19
     81c:	82 95       	swap	r24
     81e:	86 95       	lsr	r24
     820:	87 70       	andi	r24, 0x07	; 7
     822:	28 2b       	or	r18, r24
     824:	f8 01       	movw	r30, r16
     826:	31 83       	std	Z+1, r19	; 0x01
     828:	20 83       	st	Z, r18
		rx->length = can_controller_read(0x75) & 0x0F;
     82a:	85 e7       	ldi	r24, 0x75	; 117
     82c:	0e 94 43 04 	call	0x886	; 0x886 <can_controller_read>
     830:	8f 70       	andi	r24, 0x0F	; 15
     832:	f8 01       	movw	r30, r16
     834:	82 83       	std	Z+2, r24	; 0x02
				
		for (uint8_t i = 0; i < rx->length; i++) {
     836:	c0 e0       	ldi	r28, 0x00	; 0
     838:	0b c0       	rjmp	.+22     	; 0x850 <can_receive+0xe0>
			rx->data[i] = can_controller_read(0x76 + i);
     83a:	ec 2e       	mov	r14, r28
     83c:	f1 2c       	mov	r15, r1
     83e:	86 e7       	ldi	r24, 0x76	; 118
     840:	8c 0f       	add	r24, r28
     842:	0e 94 43 04 	call	0x886	; 0x886 <can_controller_read>
     846:	f8 01       	movw	r30, r16
     848:	ee 0d       	add	r30, r14
     84a:	ff 1d       	adc	r31, r15
     84c:	83 83       	std	Z+3, r24	; 0x03
		uint8_t sidh = can_controller_read(MCP_RXB1SIDH);
		uint8_t sidl = can_controller_read(0x72); // MCP_RXB0SIDL
		rx->id = (sidh << 3) | (sidl >> 5);
		rx->length = can_controller_read(0x75) & 0x0F;
				
		for (uint8_t i = 0; i < rx->length; i++) {
     84e:	cf 5f       	subi	r28, 0xFF	; 255
     850:	f8 01       	movw	r30, r16
     852:	82 81       	ldd	r24, Z+2	; 0x02
     854:	c8 17       	cp	r28, r24
     856:	88 f3       	brcs	.-30     	; 0x83a <can_receive+0xca>
			rx->data[i] = can_controller_read(0x76 + i);
		}
				
		// Reset interrupt flag RX0IF
		can_controller_bit_modify(MCP_CANINTF, 0x02, 0x00);
     858:	40 e0       	ldi	r20, 0x00	; 0
     85a:	62 e0       	ldi	r22, 0x02	; 2
     85c:	8c e2       	ldi	r24, 0x2C	; 44
     85e:	0e 94 8b 04 	call	0x916	; 0x916 <can_controller_bit_modify>

		can_rx_flag &= ~2;
     862:	80 91 ad 01 	lds	r24, 0x01AD	; 0x8001ad <can_rx_flag>
     866:	8d 7f       	andi	r24, 0xFD	; 253
     868:	80 93 ad 01 	sts	0x01AD, r24	; 0x8001ad <can_rx_flag>
		return 1; // Message received
     86c:	c1 e0       	ldi	r28, 0x01	; 1
     86e:	04 c0       	rjmp	.+8      	; 0x878 <can_receive+0x108>

	}
	if (can_rx_flag > 2) {
		//printf("err=%d\n", can_controller_read(0x2D));
	}
	can_controller_write(MCP_CANINTF, 0x00);
     870:	60 e0       	ldi	r22, 0x00	; 0
     872:	8c e2       	ldi	r24, 0x2C	; 44
     874:	0e 94 5e 04 	call	0x8bc	; 0x8bc <can_controller_write>


	return 0; // No message
}
     878:	8c 2f       	mov	r24, r28
     87a:	cf 91       	pop	r28
     87c:	1f 91       	pop	r17
     87e:	0f 91       	pop	r16
     880:	ff 90       	pop	r15
     882:	ef 90       	pop	r14
     884:	08 95       	ret

00000886 <can_controller_read>:
	const uint8_t data = spi_read_byte();
	
	spi_select_slave(NONE);
	
	return data;
}
     886:	cf 93       	push	r28
     888:	c8 2f       	mov	r28, r24
     88a:	80 e0       	ldi	r24, 0x00	; 0
     88c:	0e 94 eb 0b 	call	0x17d6	; 0x17d6 <spi_select_slave>
     890:	83 e0       	ldi	r24, 0x03	; 3
     892:	0e 94 19 0c 	call	0x1832	; 0x1832 <spi_write_byte>
     896:	0e 94 2b 0c 	call	0x1856	; 0x1856 <spi_read_byte>
     89a:	8c 2f       	mov	r24, r28
     89c:	0e 94 19 0c 	call	0x1832	; 0x1832 <spi_write_byte>
     8a0:	0e 94 2b 0c 	call	0x1856	; 0x1856 <spi_read_byte>
     8a4:	80 e0       	ldi	r24, 0x00	; 0
     8a6:	0e 94 19 0c 	call	0x1832	; 0x1832 <spi_write_byte>
     8aa:	0e 94 2b 0c 	call	0x1856	; 0x1856 <spi_read_byte>
     8ae:	c8 2f       	mov	r28, r24
     8b0:	83 e0       	ldi	r24, 0x03	; 3
     8b2:	0e 94 eb 0b 	call	0x17d6	; 0x17d6 <spi_select_slave>
     8b6:	8c 2f       	mov	r24, r28
     8b8:	cf 91       	pop	r28
     8ba:	08 95       	ret

000008bc <can_controller_write>:
     8bc:	cf 93       	push	r28
     8be:	df 93       	push	r29
     8c0:	d8 2f       	mov	r29, r24
     8c2:	c6 2f       	mov	r28, r22
     8c4:	80 e0       	ldi	r24, 0x00	; 0
     8c6:	0e 94 eb 0b 	call	0x17d6	; 0x17d6 <spi_select_slave>
     8ca:	82 e0       	ldi	r24, 0x02	; 2
     8cc:	0e 94 19 0c 	call	0x1832	; 0x1832 <spi_write_byte>
     8d0:	0e 94 2b 0c 	call	0x1856	; 0x1856 <spi_read_byte>
     8d4:	8d 2f       	mov	r24, r29
     8d6:	0e 94 19 0c 	call	0x1832	; 0x1832 <spi_write_byte>
     8da:	0e 94 2b 0c 	call	0x1856	; 0x1856 <spi_read_byte>
     8de:	8c 2f       	mov	r24, r28
     8e0:	0e 94 19 0c 	call	0x1832	; 0x1832 <spi_write_byte>
     8e4:	0e 94 2b 0c 	call	0x1856	; 0x1856 <spi_read_byte>
     8e8:	83 e0       	ldi	r24, 0x03	; 3
     8ea:	0e 94 eb 0b 	call	0x17d6	; 0x17d6 <spi_select_slave>
     8ee:	df 91       	pop	r29
     8f0:	cf 91       	pop	r28
     8f2:	08 95       	ret

000008f4 <can_controller_request_send>:
     8f4:	cf 93       	push	r28
     8f6:	c8 2f       	mov	r28, r24
     8f8:	80 e0       	ldi	r24, 0x00	; 0
     8fa:	0e 94 eb 0b 	call	0x17d6	; 0x17d6 <spi_select_slave>
     8fe:	8c 2f       	mov	r24, r28
     900:	87 70       	andi	r24, 0x07	; 7
     902:	80 58       	subi	r24, 0x80	; 128
     904:	0e 94 19 0c 	call	0x1832	; 0x1832 <spi_write_byte>
     908:	0e 94 2b 0c 	call	0x1856	; 0x1856 <spi_read_byte>
     90c:	83 e0       	ldi	r24, 0x03	; 3
     90e:	0e 94 eb 0b 	call	0x17d6	; 0x17d6 <spi_select_slave>
     912:	cf 91       	pop	r28
     914:	08 95       	ret

00000916 <can_controller_bit_modify>:

void can_controller_bit_modify(uint8_t addr, uint8_t mask, uint8_t data) {
     916:	1f 93       	push	r17
     918:	cf 93       	push	r28
     91a:	df 93       	push	r29
     91c:	18 2f       	mov	r17, r24
     91e:	d6 2f       	mov	r29, r22
     920:	c4 2f       	mov	r28, r20
	spi_select_slave(CAN);
     922:	80 e0       	ldi	r24, 0x00	; 0
     924:	0e 94 eb 0b 	call	0x17d6	; 0x17d6 <spi_select_slave>
	
	spi_write_byte(0x05); spi_read_byte();
     928:	85 e0       	ldi	r24, 0x05	; 5
     92a:	0e 94 19 0c 	call	0x1832	; 0x1832 <spi_write_byte>
     92e:	0e 94 2b 0c 	call	0x1856	; 0x1856 <spi_read_byte>
	spi_write_byte(addr); spi_read_byte();
     932:	81 2f       	mov	r24, r17
     934:	0e 94 19 0c 	call	0x1832	; 0x1832 <spi_write_byte>
     938:	0e 94 2b 0c 	call	0x1856	; 0x1856 <spi_read_byte>
	spi_write_byte(mask); spi_read_byte();
     93c:	8d 2f       	mov	r24, r29
     93e:	0e 94 19 0c 	call	0x1832	; 0x1832 <spi_write_byte>
     942:	0e 94 2b 0c 	call	0x1856	; 0x1856 <spi_read_byte>
	spi_write_byte(data); spi_read_byte();
     946:	8c 2f       	mov	r24, r28
     948:	0e 94 19 0c 	call	0x1832	; 0x1832 <spi_write_byte>
     94c:	0e 94 2b 0c 	call	0x1856	; 0x1856 <spi_read_byte>

	spi_select_slave(NONE);
     950:	83 e0       	ldi	r24, 0x03	; 3
     952:	0e 94 eb 0b 	call	0x17d6	; 0x17d6 <spi_select_slave>
}
     956:	df 91       	pop	r29
     958:	cf 91       	pop	r28
     95a:	1f 91       	pop	r17
     95c:	08 95       	ret

0000095e <can_controller_reset>:

void can_controller_reset(void) {
	spi_select_slave(CAN);
     95e:	80 e0       	ldi	r24, 0x00	; 0
     960:	0e 94 eb 0b 	call	0x17d6	; 0x17d6 <spi_select_slave>
	
	spi_write_byte(0xC0); spi_read_byte();
     964:	80 ec       	ldi	r24, 0xC0	; 192
     966:	0e 94 19 0c 	call	0x1832	; 0x1832 <spi_write_byte>
     96a:	0e 94 2b 0c 	call	0x1856	; 0x1856 <spi_read_byte>
	
	spi_select_slave(NONE);
     96e:	83 e0       	ldi	r24, 0x03	; 3
     970:	0e 94 eb 0b 	call	0x17d6	; 0x17d6 <spi_select_slave>
     974:	08 95       	ret

00000976 <io_board_init>:
#include "io_board.h"
#include "../SPI/SPI.h"


void io_board_init() {
	spi_init();
     976:	0e 94 e2 0b 	call	0x17c4	; 0x17c4 <spi_init>
     97a:	08 95       	ret

0000097c <io_board_read_buttons>:
}

buttons_t io_board_read_buttons(){
     97c:	cf 93       	push	r28
     97e:	df 93       	push	r29
     980:	cd b7       	in	r28, 0x3d	; 61
     982:	de b7       	in	r29, 0x3e	; 62
     984:	2a 97       	sbiw	r28, 0x0a	; 10
     986:	0f b6       	in	r0, 0x3f	; 63
     988:	f8 94       	cli
     98a:	de bf       	out	0x3e, r29	; 62
     98c:	0f be       	out	0x3f, r0	; 63
     98e:	cd bf       	out	0x3d, r28	; 61
	buttons_t buttons; 
	spi_select_slave(IO);
     990:	81 e0       	ldi	r24, 0x01	; 1
     992:	0e 94 eb 0b 	call	0x17d6	; 0x17d6 <spi_select_slave>
	spi_write_byte(0x04); spi_read_byte(); 
     996:	84 e0       	ldi	r24, 0x04	; 4
     998:	0e 94 19 0c 	call	0x1832	; 0x1832 <spi_write_byte>
     99c:	0e 94 2b 0c 	call	0x1856	; 0x1856 <spi_read_byte>
	spi_write_byte(0x00);
     9a0:	80 e0       	ldi	r24, 0x00	; 0
     9a2:	0e 94 19 0c 	call	0x1832	; 0x1832 <spi_write_byte>
	buttons.right = spi_read_byte();
     9a6:	0e 94 2b 0c 	call	0x1856	; 0x1856 <spi_read_byte>
     9aa:	8e 83       	std	Y+6, r24	; 0x06
	spi_write_byte(0x00);
     9ac:	80 e0       	ldi	r24, 0x00	; 0
     9ae:	0e 94 19 0c 	call	0x1832	; 0x1832 <spi_write_byte>
	buttons.left = spi_read_byte();
     9b2:	0e 94 2b 0c 	call	0x1856	; 0x1856 <spi_read_byte>
     9b6:	8f 83       	std	Y+7, r24	; 0x07
	spi_write_byte(0x00);
     9b8:	80 e0       	ldi	r24, 0x00	; 0
     9ba:	0e 94 19 0c 	call	0x1832	; 0x1832 <spi_write_byte>
	buttons.nav = spi_read_byte();
     9be:	0e 94 2b 0c 	call	0x1856	; 0x1856 <spi_read_byte>
     9c2:	88 87       	std	Y+8, r24	; 0x08
	spi_write_byte(0x02); spi_read_byte();
     9c4:	82 e0       	ldi	r24, 0x02	; 2
     9c6:	0e 94 19 0c 	call	0x1832	; 0x1832 <spi_write_byte>
     9ca:	0e 94 2b 0c 	call	0x1856	; 0x1856 <spi_read_byte>
	spi_write_byte(0x00);
     9ce:	80 e0       	ldi	r24, 0x00	; 0
     9d0:	0e 94 19 0c 	call	0x1832	; 0x1832 <spi_write_byte>
	buttons.slider_x = spi_read_byte();
     9d4:	0e 94 2b 0c 	call	0x1856	; 0x1856 <spi_read_byte>
     9d8:	89 87       	std	Y+9, r24	; 0x09
	spi_write_byte(0x00);
     9da:	80 e0       	ldi	r24, 0x00	; 0
     9dc:	0e 94 19 0c 	call	0x1832	; 0x1832 <spi_write_byte>
	buttons.slider_size = spi_read_byte();
     9e0:	0e 94 2b 0c 	call	0x1856	; 0x1856 <spi_read_byte>
     9e4:	8a 87       	std	Y+10, r24	; 0x0a
	spi_select_slave(NONE);
     9e6:	83 e0       	ldi	r24, 0x03	; 3
     9e8:	0e 94 eb 0b 	call	0x17d6	; 0x17d6 <spi_select_slave>
	
	return buttons; 
     9ec:	85 e0       	ldi	r24, 0x05	; 5
     9ee:	fe 01       	movw	r30, r28
     9f0:	36 96       	adiw	r30, 0x06	; 6
     9f2:	de 01       	movw	r26, r28
     9f4:	11 96       	adiw	r26, 0x01	; 1
     9f6:	01 90       	ld	r0, Z+
     9f8:	0d 92       	st	X+, r0
     9fa:	8a 95       	dec	r24
     9fc:	e1 f7       	brne	.-8      	; 0x9f6 <io_board_read_buttons+0x7a>
     9fe:	29 81       	ldd	r18, Y+1	; 0x01
     a00:	3a 81       	ldd	r19, Y+2	; 0x02
     a02:	4b 81       	ldd	r20, Y+3	; 0x03
     a04:	5c 81       	ldd	r21, Y+4	; 0x04
     a06:	6d 81       	ldd	r22, Y+5	; 0x05
}
     a08:	70 e0       	ldi	r23, 0x00	; 0
     a0a:	80 e0       	ldi	r24, 0x00	; 0
     a0c:	90 e0       	ldi	r25, 0x00	; 0
     a0e:	2a 96       	adiw	r28, 0x0a	; 10
     a10:	0f b6       	in	r0, 0x3f	; 63
     a12:	f8 94       	cli
     a14:	de bf       	out	0x3e, r29	; 62
     a16:	0f be       	out	0x3f, r0	; 63
     a18:	cd bf       	out	0x3d, r28	; 61
     a1a:	df 91       	pop	r29
     a1c:	cf 91       	pop	r28
     a1e:	08 95       	ret

00000a20 <io_board_set_led>:

void io_board_set_led(uint8_t led, state_t state) {
     a20:	cf 93       	push	r28
     a22:	df 93       	push	r29
     a24:	d8 2f       	mov	r29, r24
     a26:	c6 2f       	mov	r28, r22
	spi_select_slave(IO);
     a28:	81 e0       	ldi	r24, 0x01	; 1
     a2a:	0e 94 eb 0b 	call	0x17d6	; 0x17d6 <spi_select_slave>
	spi_write_byte(0x05); spi_read_byte();
     a2e:	85 e0       	ldi	r24, 0x05	; 5
     a30:	0e 94 19 0c 	call	0x1832	; 0x1832 <spi_write_byte>
     a34:	0e 94 2b 0c 	call	0x1856	; 0x1856 <spi_read_byte>
	spi_write_byte(led); spi_read_byte();
     a38:	8d 2f       	mov	r24, r29
     a3a:	0e 94 19 0c 	call	0x1832	; 0x1832 <spi_write_byte>
     a3e:	0e 94 2b 0c 	call	0x1856	; 0x1856 <spi_read_byte>
	spi_write_byte(state); spi_read_byte();
     a42:	8c 2f       	mov	r24, r28
     a44:	0e 94 19 0c 	call	0x1832	; 0x1832 <spi_write_byte>
     a48:	0e 94 2b 0c 	call	0x1856	; 0x1856 <spi_read_byte>
	spi_select_slave(NONE);
     a4c:	83 e0       	ldi	r24, 0x03	; 3
     a4e:	0e 94 eb 0b 	call	0x17d6	; 0x17d6 <spi_select_slave>
}
     a52:	df 91       	pop	r29
     a54:	cf 91       	pop	r28
     a56:	08 95       	ret

00000a58 <get_nav_direction>:
	if (dir == LEFT) printf("LEFT\n");
	else if (dir == RIGHT) printf("RIGHT\n");
	else if (dir == UP) printf("UP\n");
	else if (dir == DOWN) printf("DOWN\n");
	else if (dir == NEUTRAL) printf("NEUTRAL\n");
	else printf("ERROR: %d\n", dir);
     a58:	cf 93       	push	r28
     a5a:	df 93       	push	r29
     a5c:	00 d0       	rcall	.+0      	; 0xa5e <get_nav_direction+0x6>
     a5e:	00 d0       	rcall	.+0      	; 0xa60 <get_nav_direction+0x8>
     a60:	1f 92       	push	r1
     a62:	cd b7       	in	r28, 0x3d	; 61
     a64:	de b7       	in	r29, 0x3e	; 62
     a66:	61 fd       	sbrc	r22, 1
     a68:	08 c0       	rjmp	.+16     	; 0xa7a <get_nav_direction+0x22>
     a6a:	62 fd       	sbrc	r22, 2
     a6c:	08 c0       	rjmp	.+16     	; 0xa7e <get_nav_direction+0x26>
     a6e:	63 fd       	sbrc	r22, 3
     a70:	08 c0       	rjmp	.+16     	; 0xa82 <get_nav_direction+0x2a>
     a72:	64 ff       	sbrs	r22, 4
     a74:	08 c0       	rjmp	.+16     	; 0xa86 <get_nav_direction+0x2e>
     a76:	82 e0       	ldi	r24, 0x02	; 2
     a78:	07 c0       	rjmp	.+14     	; 0xa88 <get_nav_direction+0x30>
     a7a:	81 e0       	ldi	r24, 0x01	; 1
     a7c:	05 c0       	rjmp	.+10     	; 0xa88 <get_nav_direction+0x30>
     a7e:	83 e0       	ldi	r24, 0x03	; 3
     a80:	03 c0       	rjmp	.+6      	; 0xa88 <get_nav_direction+0x30>
     a82:	80 e0       	ldi	r24, 0x00	; 0
     a84:	01 c0       	rjmp	.+2      	; 0xa88 <get_nav_direction+0x30>
     a86:	84 e0       	ldi	r24, 0x04	; 4
     a88:	0f 90       	pop	r0
     a8a:	0f 90       	pop	r0
     a8c:	0f 90       	pop	r0
     a8e:	0f 90       	pop	r0
     a90:	0f 90       	pop	r0
     a92:	df 91       	pop	r29
     a94:	cf 91       	pop	r28
     a96:	08 95       	ret

00000a98 <get_nav_pressed>:
     a98:	cf 93       	push	r28
     a9a:	df 93       	push	r29
     a9c:	00 d0       	rcall	.+0      	; 0xa9e <get_nav_pressed+0x6>
     a9e:	00 d0       	rcall	.+0      	; 0xaa0 <get_nav_pressed+0x8>
     aa0:	1f 92       	push	r1
     aa2:	cd b7       	in	r28, 0x3d	; 61
     aa4:	de b7       	in	r29, 0x3e	; 62
     aa6:	86 2f       	mov	r24, r22
     aa8:	81 70       	andi	r24, 0x01	; 1
     aaa:	0f 90       	pop	r0
     aac:	0f 90       	pop	r0
     aae:	0f 90       	pop	r0
     ab0:	0f 90       	pop	r0
     ab2:	0f 90       	pop	r0
     ab4:	df 91       	pop	r29
     ab6:	cf 91       	pop	r28
     ab8:	08 95       	ret

00000aba <send_joystick_data>:
}

void send_joystick_data(io_inputs_t in) {
     aba:	0f 93       	push	r16
     abc:	1f 93       	push	r17
     abe:	cf 93       	push	r28
     ac0:	df 93       	push	r29
     ac2:	cd b7       	in	r28, 0x3d	; 61
     ac4:	de b7       	in	r29, 0x3e	; 62
     ac6:	2a 97       	sbiw	r28, 0x0a	; 10
     ac8:	0f b6       	in	r0, 0x3f	; 63
     aca:	f8 94       	cli
     acc:	de bf       	out	0x3e, r29	; 62
     ace:	0f be       	out	0x3f, r0	; 63
     ad0:	cd bf       	out	0x3d, r28	; 61
	//const direction dir = get_joystick_direction(in);
	static can_message_t msg_tx;
	msg_tx.id = 10;
     ad2:	ea e9       	ldi	r30, 0x9A	; 154
     ad4:	f1 e0       	ldi	r31, 0x01	; 1
     ad6:	2a e0       	ldi	r18, 0x0A	; 10
     ad8:	30 e0       	ldi	r19, 0x00	; 0
     ada:	31 83       	std	Z+1, r19	; 0x01
     adc:	20 83       	st	Z, r18
	msg_tx.length = 3;
     ade:	93 e0       	ldi	r25, 0x03	; 3
     ae0:	92 83       	std	Z+2, r25	; 0x02

	msg_tx.data[0] = in.pad_x;
     ae2:	43 83       	std	Z+3, r20	; 0x03
	msg_tx.data[1] = in.joy_x;
     ae4:	04 83       	std	Z+4, r16	; 0x04
	//msg_tx.data[0] = in.joy_x;
	//msg_tx.data[1] = in.joy_y;
	msg_tx.data[2] = in.joy_b;
     ae6:	85 83       	std	Z+5, r24	; 0x05
	can_transmit(&msg_tx);
     ae8:	cf 01       	movw	r24, r30
     aea:	0e 94 4e 03 	call	0x69c	; 0x69c <can_transmit>
     aee:	2a 96       	adiw	r28, 0x0a	; 10
     af0:	0f b6       	in	r0, 0x3f	; 63
     af2:	f8 94       	cli
     af4:	de bf       	out	0x3e, r29	; 62
     af6:	0f be       	out	0x3f, r0	; 63
     af8:	cd bf       	out	0x3d, r28	; 61
     afa:	df 91       	pop	r29
     afc:	cf 91       	pop	r28
     afe:	1f 91       	pop	r17
     b00:	0f 91       	pop	r16
     b02:	08 95       	ret

00000b04 <main>:
#include "can/can_controller.h"
#include "joystick/joystick.h"
#include "menu/menu.h"


int main(void) {
     b04:	cf 93       	push	r28
     b06:	df 93       	push	r29
     b08:	cd b7       	in	r28, 0x3d	; 61
     b0a:	de b7       	in	r29, 0x3e	; 62
     b0c:	a3 97       	sbiw	r28, 0x23	; 35
     b0e:	0f b6       	in	r0, 0x3f	; 63
     b10:	f8 94       	cli
     b12:	de bf       	out	0x3e, r29	; 62
     b14:	0f be       	out	0x3f, r0	; 63
     b16:	cd bf       	out	0x3d, r28	; 61
	

	uart_init(9600);
     b18:	60 e8       	ldi	r22, 0x80	; 128
     b1a:	75 e2       	ldi	r23, 0x25	; 37
     b1c:	80 e0       	ldi	r24, 0x00	; 0
     b1e:	90 e0       	ldi	r25, 0x00	; 0
     b20:	0e 94 6f 0c 	call	0x18de	; 0x18de <uart_init>
	xmem_init();
     b24:	0e 94 86 0c 	call	0x190c	; 0x190c <xmem_init>
	adc_init();
     b28:	0e 94 e3 02 	call	0x5c6	; 0x5c6 <adc_init>
	oled_init();
     b2c:	0e 94 db 09 	call	0x13b6	; 0x13b6 <oled_init>
	io_board_init(); 	
     b30:	0e 94 bb 04 	call	0x976	; 0x976 <io_board_init>
	doublebuf_init();
     b34:	0e 94 92 0a 	call	0x1524	; 0x1524 <doublebuf_init>
	can_init();
     b38:	0e 94 18 03 	call	0x630	; 0x630 <can_init>
	menu_init();
     b3c:	0e 94 5d 07 	call	0xeba	; 0xeba <menu_init>
	 
	clear_all_buffers();
     b40:	0e 94 b9 0a 	call	0x1572	; 0x1572 <clear_all_buffers>
	draw_main_menu_to_buffer();
     b44:	0e 94 1a 08 	call	0x1034	; 0x1034 <draw_main_menu_to_buffer>
	
	io_board_set_led(1, ON);
     b48:	61 e0       	ldi	r22, 0x01	; 1
     b4a:	81 e0       	ldi	r24, 0x01	; 1
     b4c:	0e 94 10 05 	call	0xa20	; 0xa20 <io_board_set_led>
	io_board_set_led(6, ON);
     b50:	61 e0       	ldi	r22, 0x01	; 1
     b52:	86 e0       	ldi	r24, 0x06	; 6
     b54:	0e 94 10 05 	call	0xa20	; 0xa20 <io_board_set_led>
	uint8_t prev_pressed = 0;

	can_message_t in_game_sig;
	
	uint8_t final_score; 
	char letters[3] = {'A', 'A', 'A'}; 
     b58:	81 e4       	ldi	r24, 0x41	; 65
     b5a:	8c 87       	std	Y+12, r24	; 0x0c
     b5c:	8d 87       	std	Y+13, r24	; 0x0d
     b5e:	8e 87       	std	Y+14, r24	; 0x0e
	
	state global_state = HOME;
	
	// For better control
	direction prev_dir = NEUTRAL;
	uint8_t prev_pressed = 0;
     b60:	d1 2c       	mov	r13, r1
	} typedef state;
	
	state global_state = HOME;
	
	// For better control
	direction prev_dir = NEUTRAL;
     b62:	68 94       	set
     b64:	cc 24       	eor	r12, r12
     b66:	c2 f8       	bld	r12, 2
		GAME,
		SAVE,
		LEADERBOARD,
	} typedef state;
	
	state global_state = HOME;
     b68:	f1 2c       	mov	r15, r1
	
	uint8_t final_score; 
	char letters[3] = {'A', 'A', 'A'}; 
	
	while (1) {
		if (global_state == HOME) {
     b6a:	f1 10       	cpse	r15, r1
     b6c:	66 c0       	rjmp	.+204    	; 0xc3a <main+0x136>
			const buttons_t buttons = io_board_read_buttons();
     b6e:	0e 94 be 04 	call	0x97c	; 0x97c <io_board_read_buttons>
     b72:	94 2f       	mov	r25, r20
     b74:	75 2f       	mov	r23, r21
     b76:	86 2f       	mov	r24, r22
     b78:	2a 8f       	std	Y+26, r18	; 0x1a
     b7a:	3b 8f       	std	Y+27, r19	; 0x1b
     b7c:	4c 8f       	std	Y+28, r20	; 0x1c
     b7e:	5d 8f       	std	Y+29, r21	; 0x1d
     b80:	6e 8f       	std	Y+30, r22	; 0x1e
			const direction dir = get_nav_direction(buttons);
     b82:	42 2f       	mov	r20, r18
     b84:	53 2f       	mov	r21, r19
     b86:	69 2f       	mov	r22, r25
     b88:	0e 94 2c 05 	call	0xa58	; 0xa58 <get_nav_direction>
     b8c:	18 2f       	mov	r17, r24
			const uint8_t pressed = get_nav_pressed(buttons);
     b8e:	4a 8d       	ldd	r20, Y+26	; 0x1a
     b90:	5b 8d       	ldd	r21, Y+27	; 0x1b
     b92:	6c 8d       	ldd	r22, Y+28	; 0x1c
     b94:	7d 8d       	ldd	r23, Y+29	; 0x1d
     b96:	8e 8d       	ldd	r24, Y+30	; 0x1e
     b98:	0e 94 4c 05 	call	0xa98	; 0xa98 <get_nav_pressed>
     b9c:	08 2f       	mov	r16, r24
			
			// Moving in menu
			if (dir != prev_dir) {
     b9e:	c1 16       	cp	r12, r17
     ba0:	b1 f0       	breq	.+44     	; 0xbce <main+0xca>
				if (dir == UP && main_menu.selected == 1) {
     ba2:	12 30       	cpi	r17, 0x02	; 2
     ba4:	49 f4       	brne	.+18     	; 0xbb8 <main+0xb4>
     ba6:	80 91 af 01 	lds	r24, 0x01AF	; 0x8001af <main_menu>
     baa:	81 30       	cpi	r24, 0x01	; 1
     bac:	29 f4       	brne	.+10     	; 0xbb8 <main+0xb4>
					main_menu.selected = 0;
     bae:	10 92 af 01 	sts	0x01AF, r1	; 0x8001af <main_menu>
					draw_main_menu_to_buffer();
     bb2:	0e 94 1a 08 	call	0x1034	; 0x1034 <draw_main_menu_to_buffer>
     bb6:	0b c0       	rjmp	.+22     	; 0xbce <main+0xca>
				} else if (dir == DOWN && main_menu.selected == 0) {
     bb8:	13 30       	cpi	r17, 0x03	; 3
     bba:	49 f4       	brne	.+18     	; 0xbce <main+0xca>
     bbc:	80 91 af 01 	lds	r24, 0x01AF	; 0x8001af <main_menu>
     bc0:	81 11       	cpse	r24, r1
     bc2:	05 c0       	rjmp	.+10     	; 0xbce <main+0xca>
					main_menu.selected = 1;
     bc4:	81 e0       	ldi	r24, 0x01	; 1
     bc6:	80 93 af 01 	sts	0x01AF, r24	; 0x8001af <main_menu>
					draw_main_menu_to_buffer();
     bca:	0e 94 1a 08 	call	0x1034	; 0x1034 <draw_main_menu_to_buffer>
				}
			}
			
			// Clicking in menu
			if (pressed && pressed != prev_pressed) {
     bce:	00 23       	and	r16, r16
     bd0:	49 f1       	breq	.+82     	; 0xc24 <main+0x120>
     bd2:	d0 16       	cp	r13, r16
     bd4:	39 f1       	breq	.+78     	; 0xc24 <main+0x120>
				if (main_menu.selected == 0) { // Start game
     bd6:	80 91 af 01 	lds	r24, 0x01AF	; 0x8001af <main_menu>
     bda:	81 11       	cpse	r24, r1
     bdc:	1b c0       	rjmp	.+54     	; 0xc14 <main+0x110>
					global_state = GAME;
					clear_all_buffers();
     bde:	0e 94 b9 0a 	call	0x1572	; 0x1572 <clear_all_buffers>
					draw_in_game(0);
     be2:	80 e0       	ldi	r24, 0x00	; 0
     be4:	0e 94 bd 08 	call	0x117a	; 0x117a <draw_in_game>
					while (!update_screen()); // Force screen update
     be8:	0e 94 b4 0b 	call	0x1768	; 0x1768 <update_screen>
     bec:	88 23       	and	r24, r24
     bee:	e1 f3       	breq	.-8      	; 0xbe8 <main+0xe4>
					// Send to Node2 that game has started
					can_message_t start_playing_sig = (can_message_t) {
     bf0:	ce 01       	movw	r24, r28
     bf2:	0f 96       	adiw	r24, 0x0f	; 15
     bf4:	2b e0       	ldi	r18, 0x0B	; 11
     bf6:	fc 01       	movw	r30, r24
     bf8:	11 92       	st	Z+, r1
     bfa:	2a 95       	dec	r18
     bfc:	e9 f7       	brne	.-6      	; 0xbf8 <main+0xf4>
     bfe:	24 e0       	ldi	r18, 0x04	; 4
     c00:	30 e0       	ldi	r19, 0x00	; 0
     c02:	38 8b       	std	Y+16, r19	; 0x10
     c04:	2f 87       	std	Y+15, r18	; 0x0f
     c06:	21 e0       	ldi	r18, 0x01	; 1
     c08:	29 8b       	std	Y+17, r18	; 0x11
						.id = 4, 
						.length = 1
					};
					can_transmit(&start_playing_sig);
     c0a:	0e 94 4e 03 	call	0x69c	; 0x69c <can_transmit>
			}
			
			// Clicking in menu
			if (pressed && pressed != prev_pressed) {
				if (main_menu.selected == 0) { // Start game
					global_state = GAME;
     c0e:	ff 24       	eor	r15, r15
     c10:	f3 94       	inc	r15
     c12:	08 c0       	rjmp	.+16     	; 0xc24 <main+0x120>
					can_message_t start_playing_sig = (can_message_t) {
						.id = 4, 
						.length = 1
					};
					can_transmit(&start_playing_sig);
				} else if (main_menu.selected == 1) { // Leaderboard
     c14:	81 30       	cpi	r24, 0x01	; 1
     c16:	31 f4       	brne	.+12     	; 0xc24 <main+0x120>
					global_state = LEADERBOARD;
					clear_all_buffers();		
     c18:	0e 94 b9 0a 	call	0x1572	; 0x1572 <clear_all_buffers>
						.id = 4, 
						.length = 1
					};
					can_transmit(&start_playing_sig);
				} else if (main_menu.selected == 1) { // Leaderboard
					global_state = LEADERBOARD;
     c1c:	0f 2e       	mov	r0, r31
     c1e:	f3 e0       	ldi	r31, 0x03	; 3
     c20:	ff 2e       	mov	r15, r31
     c22:	f0 2d       	mov	r31, r0
				}

			}
			prev_pressed = pressed; 
			prev_dir = dir;
			update_screen();
     c24:	0e 94 b4 0b 	call	0x1768	; 0x1768 <update_screen>
     c28:	8f ef       	ldi	r24, 0xFF	; 255
     c2a:	9f e2       	ldi	r25, 0x2F	; 47
     c2c:	01 97       	sbiw	r24, 0x01	; 1
     c2e:	f1 f7       	brne	.-4      	; 0xc2c <main+0x128>
     c30:	00 c0       	rjmp	.+0      	; 0xc32 <main+0x12e>
     c32:	00 00       	nop
					global_state = LEADERBOARD;
					clear_all_buffers();		
				}

			}
			prev_pressed = pressed; 
     c34:	d0 2e       	mov	r13, r16
			prev_dir = dir;
     c36:	c1 2e       	mov	r12, r17
     c38:	98 cf       	rjmp	.-208    	; 0xb6a <main+0x66>
			update_screen();
			_delay_ms(10); // slow down loop
		} else if (global_state == GAME) {
     c3a:	91 e0       	ldi	r25, 0x01	; 1
     c3c:	f9 12       	cpse	r15, r25
     c3e:	63 c0       	rjmp	.+198    	; 0xd06 <main+0x202>
			const io_inputs_t in = get_io_inputs();
     c40:	ce 01       	movw	r24, r28
     c42:	4a 96       	adiw	r24, 0x1a	; 26
     c44:	0e 94 f5 02 	call	0x5ea	; 0x5ea <get_io_inputs>
			send_joystick_data(in); // To Node2
     c48:	0a 8d       	ldd	r16, Y+26	; 0x1a
     c4a:	1b 8d       	ldd	r17, Y+27	; 0x1b
     c4c:	2c 8d       	ldd	r18, Y+28	; 0x1c
     c4e:	3d 8d       	ldd	r19, Y+29	; 0x1d
     c50:	4e 8d       	ldd	r20, Y+30	; 0x1e
     c52:	5f 8d       	ldd	r21, Y+31	; 0x1f
     c54:	68 a1       	ldd	r22, Y+32	; 0x20
     c56:	79 a1       	ldd	r23, Y+33	; 0x21
     c58:	8a a1       	ldd	r24, Y+34	; 0x22
     c5a:	9b a1       	ldd	r25, Y+35	; 0x23
     c5c:	0e 94 5d 05 	call	0xaba	; 0xaba <send_joystick_data>
			if (can_receive(&in_game_sig)) {
     c60:	ce 01       	movw	r24, r28
     c62:	01 96       	adiw	r24, 0x01	; 1
     c64:	0e 94 b8 03 	call	0x770	; 0x770 <can_receive>
     c68:	88 23       	and	r24, r24
     c6a:	09 f4       	brne	.+2      	; 0xc6e <main+0x16a>
     c6c:	45 c0       	rjmp	.+138    	; 0xcf8 <main+0x1f4>
				if (in_game_sig.id == 5 && in_game_sig.length == 1) { // Game over signal, go to save menu
     c6e:	89 81       	ldd	r24, Y+1	; 0x01
     c70:	9a 81       	ldd	r25, Y+2	; 0x02
     c72:	85 30       	cpi	r24, 0x05	; 5
     c74:	91 05       	cpc	r25, r1
     c76:	19 f5       	brne	.+70     	; 0xcbe <main+0x1ba>
     c78:	2b 81       	ldd	r18, Y+3	; 0x03
     c7a:	21 30       	cpi	r18, 0x01	; 1
     c7c:	01 f5       	brne	.+64     	; 0xcbe <main+0x1ba>
					global_state = SAVE;
					final_score = in_game_sig.data[0];
     c7e:	bc 80       	ldd	r11, Y+4	; 0x04
					letters[0] = letters[1] = letters[2] = 'A';
     c80:	81 e4       	ldi	r24, 0x41	; 65
     c82:	8e 87       	std	Y+14, r24	; 0x0e
     c84:	8d 87       	std	Y+13, r24	; 0x0d
     c86:	8c 87       	std	Y+12, r24	; 0x0c
					clear_all_buffers();
     c88:	0e 94 b9 0a 	call	0x1572	; 0x1572 <clear_all_buffers>
					draw_save(letters[0], letters[1], letters[2], final_score);
     c8c:	2b 2d       	mov	r18, r11
     c8e:	41 e4       	ldi	r20, 0x41	; 65
     c90:	61 e4       	ldi	r22, 0x41	; 65
     c92:	81 e4       	ldi	r24, 0x41	; 65
     c94:	0e 94 f5 08 	call	0x11ea	; 0x11ea <draw_save>
					// Send end of game acknowledgment signal
					can_message_t end_ack_sig = (can_message_t) {
     c98:	ce 01       	movw	r24, r28
     c9a:	0f 96       	adiw	r24, 0x0f	; 15
     c9c:	2b e0       	ldi	r18, 0x0B	; 11
     c9e:	fc 01       	movw	r30, r24
     ca0:	11 92       	st	Z+, r1
     ca2:	2a 95       	dec	r18
     ca4:	e9 f7       	brne	.-6      	; 0xca0 <main+0x19c>
     ca6:	23 e0       	ldi	r18, 0x03	; 3
     ca8:	30 e0       	ldi	r19, 0x00	; 0
     caa:	38 8b       	std	Y+16, r19	; 0x10
     cac:	2f 87       	std	Y+15, r18	; 0x0f
     cae:	21 e0       	ldi	r18, 0x01	; 1
     cb0:	29 8b       	std	Y+17, r18	; 0x11
						.id = 3,
						.length = 1
					};
					can_transmit(&end_ack_sig);
     cb2:	0e 94 4e 03 	call	0x69c	; 0x69c <can_transmit>
		} else if (global_state == GAME) {
			const io_inputs_t in = get_io_inputs();
			send_joystick_data(in); // To Node2
			if (can_receive(&in_game_sig)) {
				if (in_game_sig.id == 5 && in_game_sig.length == 1) { // Game over signal, go to save menu
					global_state = SAVE;
     cb6:	68 94       	set
     cb8:	ff 24       	eor	r15, r15
     cba:	f1 f8       	bld	r15, 1
			_delay_ms(10); // slow down loop
		} else if (global_state == GAME) {
			const io_inputs_t in = get_io_inputs();
			send_joystick_data(in); // To Node2
			if (can_receive(&in_game_sig)) {
				if (in_game_sig.id == 5 && in_game_sig.length == 1) { // Game over signal, go to save menu
     cbc:	1d c0       	rjmp	.+58     	; 0xcf8 <main+0x1f4>
					can_message_t end_ack_sig = (can_message_t) {
						.id = 3,
						.length = 1
					};
					can_transmit(&end_ack_sig);
				} else if (in_game_sig.id == 15 && in_game_sig.length == 1) { // score signal
     cbe:	8f 30       	cpi	r24, 0x0F	; 15
     cc0:	91 05       	cpc	r25, r1
     cc2:	49 f4       	brne	.+18     	; 0xcd6 <main+0x1d2>
     cc4:	2b 81       	ldd	r18, Y+3	; 0x03
     cc6:	21 30       	cpi	r18, 0x01	; 1
     cc8:	31 f4       	brne	.+12     	; 0xcd6 <main+0x1d2>
					draw_in_game(in_game_sig.data[0]);
     cca:	8c 81       	ldd	r24, Y+4	; 0x04
     ccc:	0e 94 bd 08 	call	0x117a	; 0x117a <draw_in_game>
					update_screen();
     cd0:	0e 94 b4 0b 	call	0x1768	; 0x1768 <update_screen>
     cd4:	11 c0       	rjmp	.+34     	; 0xcf8 <main+0x1f4>
				} else if (in_game_sig.id == 1 && in_game_sig.length == 1 && in_game_sig.data[0] == 1) { // State error from Node2, go back to home
     cd6:	01 97       	sbiw	r24, 0x01	; 1
     cd8:	79 f4       	brne	.+30     	; 0xcf8 <main+0x1f4>
     cda:	8b 81       	ldd	r24, Y+3	; 0x03
     cdc:	81 30       	cpi	r24, 0x01	; 1
     cde:	61 f4       	brne	.+24     	; 0xcf8 <main+0x1f4>
     ce0:	8c 81       	ldd	r24, Y+4	; 0x04
     ce2:	81 30       	cpi	r24, 0x01	; 1
     ce4:	49 f4       	brne	.+18     	; 0xcf8 <main+0x1f4>
					printf("received error msg from Node2, going back to home\n");
     ce6:	8f e0       	ldi	r24, 0x0F	; 15
     ce8:	91 e0       	ldi	r25, 0x01	; 1
     cea:	0e 94 be 0c 	call	0x197c	; 0x197c <puts>
					global_state = HOME;
					clear_all_buffers();
     cee:	0e 94 b9 0a 	call	0x1572	; 0x1572 <clear_all_buffers>
					draw_main_menu_to_buffer();
     cf2:	0e 94 1a 08 	call	0x1034	; 0x1034 <draw_main_menu_to_buffer>
				} else if (in_game_sig.id == 15 && in_game_sig.length == 1) { // score signal
					draw_in_game(in_game_sig.data[0]);
					update_screen();
				} else if (in_game_sig.id == 1 && in_game_sig.length == 1 && in_game_sig.data[0] == 1) { // State error from Node2, go back to home
					printf("received error msg from Node2, going back to home\n");
					global_state = HOME;
     cf6:	f1 2c       	mov	r15, r1
     cf8:	8f ef       	ldi	r24, 0xFF	; 255
     cfa:	9f e5       	ldi	r25, 0x5F	; 95
     cfc:	01 97       	sbiw	r24, 0x01	; 1
     cfe:	f1 f7       	brne	.-4      	; 0xcfc <main+0x1f8>
     d00:	00 c0       	rjmp	.+0      	; 0xd02 <main+0x1fe>
     d02:	00 00       	nop
     d04:	32 cf       	rjmp	.-412    	; 0xb6a <main+0x66>
					clear_all_buffers();
					draw_main_menu_to_buffer();
				}
			}
			_delay_ms(20); // Slow down CAN messaging
		} else if (global_state == SAVE) {
     d06:	92 e0       	ldi	r25, 0x02	; 2
     d08:	f9 12       	cpse	r15, r25
     d0a:	aa c0       	rjmp	.+340    	; 0xe60 <main+0x35c>
			const uint8_t leaderboard_size = leaderboard_get_size();
     d0c:	0e 94 59 09 	call	0x12b2	; 0x12b2 <leaderboard_get_size>
     d10:	e8 2e       	mov	r14, r24
			// Iterate through saved score, find if current score is better than any of them
			for (uint8_t i = 0; i < leaderboard_size; i++) {
     d12:	00 e0       	ldi	r16, 0x00	; 0
     d14:	93 c0       	rjmp	.+294    	; 0xe3c <main+0x338>
				if (final_score <= leaderboard_get_user_score(i)) { // Not better
     d16:	80 2f       	mov	r24, r16
     d18:	0e 94 66 09 	call	0x12cc	; 0x12cc <leaderboard_get_user_score>
     d1c:	8b 15       	cp	r24, r11
     d1e:	10 f0       	brcs	.+4      	; 0xd24 <main+0x220>
			}
			_delay_ms(20); // Slow down CAN messaging
		} else if (global_state == SAVE) {
			const uint8_t leaderboard_size = leaderboard_get_size();
			// Iterate through saved score, find if current score is better than any of them
			for (uint8_t i = 0; i < leaderboard_size; i++) {
     d20:	0f 5f       	subi	r16, 0xFF	; 255
     d22:	8c c0       	rjmp	.+280    	; 0xe3c <main+0x338>
				if (final_score <= leaderboard_get_user_score(i)) { // Not better
					continue;
				} else { // Better than the one at position i
					/* ===> Get user name <=== */
					while (1) {
						const buttons_t buttons = io_board_read_buttons();
     d24:	0e 94 be 04 	call	0x97c	; 0x97c <io_board_read_buttons>
     d28:	94 2f       	mov	r25, r20
     d2a:	75 2f       	mov	r23, r21
     d2c:	86 2f       	mov	r24, r22
     d2e:	2f 87       	std	Y+15, r18	; 0x0f
     d30:	38 8b       	std	Y+16, r19	; 0x10
     d32:	49 8b       	std	Y+17, r20	; 0x11
     d34:	5a 8b       	std	Y+18, r21	; 0x12
     d36:	6b 8b       	std	Y+19, r22	; 0x13
						const direction dir = get_nav_direction(buttons);
     d38:	42 2f       	mov	r20, r18
     d3a:	53 2f       	mov	r21, r19
     d3c:	69 2f       	mov	r22, r25
     d3e:	0e 94 2c 05 	call	0xa58	; 0xa58 <get_nav_direction>
     d42:	18 2f       	mov	r17, r24
						const uint8_t pressed = get_nav_pressed(buttons);
     d44:	4f 85       	ldd	r20, Y+15	; 0x0f
     d46:	58 89       	ldd	r21, Y+16	; 0x10
     d48:	69 89       	ldd	r22, Y+17	; 0x11
     d4a:	7a 89       	ldd	r23, Y+18	; 0x12
     d4c:	8b 89       	ldd	r24, Y+19	; 0x13
     d4e:	0e 94 4c 05 	call	0xa98	; 0xa98 <get_nav_pressed>
     d52:	f8 2e       	mov	r15, r24
						// Press to go to next letter
						if(pressed && pressed != prev_pressed) {
     d54:	88 23       	and	r24, r24
     d56:	41 f1       	breq	.+80     	; 0xda8 <main+0x2a4>
     d58:	d8 16       	cp	r13, r24
     d5a:	31 f1       	breq	.+76     	; 0xda8 <main+0x2a4>
							save.selected++;
     d5c:	80 91 ae 01 	lds	r24, 0x01AE	; 0x8001ae <save>
     d60:	8f 5f       	subi	r24, 0xFF	; 255
     d62:	80 93 ae 01 	sts	0x01AE, r24	; 0x8001ae <save>
							draw_save(letters[0], letters[1], letters[2], final_score);
     d66:	8e 84       	ldd	r8, Y+14	; 0x0e
     d68:	9d 84       	ldd	r9, Y+13	; 0x0d
     d6a:	ac 84       	ldd	r10, Y+12	; 0x0c
     d6c:	2b 2d       	mov	r18, r11
     d6e:	48 2d       	mov	r20, r8
     d70:	69 2d       	mov	r22, r9
     d72:	8a 2d       	mov	r24, r10
     d74:	0e 94 f5 08 	call	0x11ea	; 0x11ea <draw_save>
							if(save.selected > 2) {
     d78:	80 91 ae 01 	lds	r24, 0x01AE	; 0x8001ae <save>
     d7c:	83 30       	cpi	r24, 0x03	; 3
     d7e:	58 f0       	brcs	.+22     	; 0xd96 <main+0x292>
								save.selected = 0;
     d80:	10 92 ae 01 	sts	0x01AE, r1	; 0x8001ae <save>
						update_screen();
						_delay_ms(10); // slow down loop
					}
					/* ======================= */
					// Update leaderboard in memory
					const uint8_t new_lb_size = propag_users(letters[0], letters[1], letters[2], final_score, i, leaderboard_size);
     d84:	2b 2d       	mov	r18, r11
     d86:	48 2d       	mov	r20, r8
     d88:	69 2d       	mov	r22, r9
     d8a:	8a 2d       	mov	r24, r10
     d8c:	0e 94 70 09 	call	0x12e0	; 0x12e0 <propag_users>
					leaderboard_set_size(new_lb_size);
     d90:	0e 94 5e 09 	call	0x12bc	; 0x12bc <leaderboard_set_size>
					break;
     d94:	56 c0       	rjmp	.+172    	; 0xe42 <main+0x33e>
     d96:	ef ef       	ldi	r30, 0xFF	; 255
     d98:	ff e7       	ldi	r31, 0x7F	; 127
     d9a:	21 e0       	ldi	r18, 0x01	; 1
     d9c:	e1 50       	subi	r30, 0x01	; 1
     d9e:	f0 40       	sbci	r31, 0x00	; 0
     da0:	20 40       	sbci	r18, 0x00	; 0
     da2:	e1 f7       	brne	.-8      	; 0xd9c <main+0x298>
     da4:	00 c0       	rjmp	.+0      	; 0xda6 <main+0x2a2>
     da6:	00 c0       	rjmp	.+0      	; 0xda8 <main+0x2a4>
							}
							_delay_ms(100); // slow down loop
						}
						prev_pressed = pressed;
						// Up and down on NAV to change the letter
						if (dir != prev_dir) {
     da8:	c1 16       	cp	r12, r17
     daa:	e9 f1       	breq	.+122    	; 0xe26 <main+0x322>
							if (dir == UP) {
     dac:	12 30       	cpi	r17, 0x02	; 2
     dae:	e9 f4       	brne	.+58     	; 0xdea <main+0x2e6>
								letters[save.selected]--;
     db0:	80 91 ae 01 	lds	r24, 0x01AE	; 0x8001ae <save>
     db4:	90 e0       	ldi	r25, 0x00	; 0
     db6:	ec e0       	ldi	r30, 0x0C	; 12
     db8:	f0 e0       	ldi	r31, 0x00	; 0
     dba:	ec 0f       	add	r30, r28
     dbc:	fd 1f       	adc	r31, r29
     dbe:	e8 0f       	add	r30, r24
     dc0:	f9 1f       	adc	r31, r25
     dc2:	20 81       	ld	r18, Z
     dc4:	21 50       	subi	r18, 0x01	; 1
     dc6:	20 83       	st	Z, r18
								if(letters[save.selected] < 'A') {
     dc8:	21 34       	cpi	r18, 0x41	; 65
     dca:	40 f4       	brcc	.+16     	; 0xddc <main+0x2d8>
									letters[save.selected] = 'Z';
     dcc:	ec e0       	ldi	r30, 0x0C	; 12
     dce:	f0 e0       	ldi	r31, 0x00	; 0
     dd0:	ec 0f       	add	r30, r28
     dd2:	fd 1f       	adc	r31, r29
     dd4:	e8 0f       	add	r30, r24
     dd6:	f9 1f       	adc	r31, r25
     dd8:	2a e5       	ldi	r18, 0x5A	; 90
     dda:	20 83       	st	Z, r18
								}
								draw_save(letters[0], letters[1], letters[2], final_score);
     ddc:	2b 2d       	mov	r18, r11
     dde:	4e 85       	ldd	r20, Y+14	; 0x0e
     de0:	6d 85       	ldd	r22, Y+13	; 0x0d
     de2:	8c 85       	ldd	r24, Y+12	; 0x0c
     de4:	0e 94 f5 08 	call	0x11ea	; 0x11ea <draw_save>
     de8:	1e c0       	rjmp	.+60     	; 0xe26 <main+0x322>
								} else if (dir == DOWN) {
     dea:	13 30       	cpi	r17, 0x03	; 3
     dec:	e1 f4       	brne	.+56     	; 0xe26 <main+0x322>
								letters[save.selected]++;
     dee:	80 91 ae 01 	lds	r24, 0x01AE	; 0x8001ae <save>
     df2:	90 e0       	ldi	r25, 0x00	; 0
     df4:	ec e0       	ldi	r30, 0x0C	; 12
     df6:	f0 e0       	ldi	r31, 0x00	; 0
     df8:	ec 0f       	add	r30, r28
     dfa:	fd 1f       	adc	r31, r29
     dfc:	e8 0f       	add	r30, r24
     dfe:	f9 1f       	adc	r31, r25
     e00:	20 81       	ld	r18, Z
     e02:	2f 5f       	subi	r18, 0xFF	; 255
     e04:	20 83       	st	Z, r18
								if(letters[save.selected] > 'Z') {
     e06:	2b 35       	cpi	r18, 0x5B	; 91
     e08:	40 f0       	brcs	.+16     	; 0xe1a <main+0x316>
									letters[save.selected] = 'A';
     e0a:	ec e0       	ldi	r30, 0x0C	; 12
     e0c:	f0 e0       	ldi	r31, 0x00	; 0
     e0e:	ec 0f       	add	r30, r28
     e10:	fd 1f       	adc	r31, r29
     e12:	e8 0f       	add	r30, r24
     e14:	f9 1f       	adc	r31, r25
     e16:	21 e4       	ldi	r18, 0x41	; 65
     e18:	20 83       	st	Z, r18
								}
								draw_save(letters[0], letters[1], letters[2], final_score);
     e1a:	2b 2d       	mov	r18, r11
     e1c:	4e 85       	ldd	r20, Y+14	; 0x0e
     e1e:	6d 85       	ldd	r22, Y+13	; 0x0d
     e20:	8c 85       	ldd	r24, Y+12	; 0x0c
     e22:	0e 94 f5 08 	call	0x11ea	; 0x11ea <draw_save>
							}
						}
						prev_dir = dir;
						update_screen();
     e26:	0e 94 b4 0b 	call	0x1768	; 0x1768 <update_screen>
     e2a:	8f ef       	ldi	r24, 0xFF	; 255
     e2c:	9f e2       	ldi	r25, 0x2F	; 47
     e2e:	01 97       	sbiw	r24, 0x01	; 1
     e30:	f1 f7       	brne	.-4      	; 0xe2e <main+0x32a>
     e32:	00 c0       	rjmp	.+0      	; 0xe34 <main+0x330>
     e34:	00 00       	nop
									letters[save.selected] = 'A';
								}
								draw_save(letters[0], letters[1], letters[2], final_score);
							}
						}
						prev_dir = dir;
     e36:	c1 2e       	mov	r12, r17
								save.selected = 0;
								break;
							}
							_delay_ms(100); // slow down loop
						}
						prev_pressed = pressed;
     e38:	df 2c       	mov	r13, r15
							}
						}
						prev_dir = dir;
						update_screen();
						_delay_ms(10); // slow down loop
					}
     e3a:	74 cf       	rjmp	.-280    	; 0xd24 <main+0x220>
			}
			_delay_ms(20); // Slow down CAN messaging
		} else if (global_state == SAVE) {
			const uint8_t leaderboard_size = leaderboard_get_size();
			// Iterate through saved score, find if current score is better than any of them
			for (uint8_t i = 0; i < leaderboard_size; i++) {
     e3c:	0e 15       	cp	r16, r14
     e3e:	08 f4       	brcc	.+2      	; 0xe42 <main+0x33e>
     e40:	6a cf       	rjmp	.-300    	; 0xd16 <main+0x212>
					break;
				}
			}
			// Go back to home
			global_state = HOME;
			clear_all_buffers();
     e42:	0e 94 b9 0a 	call	0x1572	; 0x1572 <clear_all_buffers>
			draw_main_menu_to_buffer();
     e46:	0e 94 1a 08 	call	0x1034	; 0x1034 <draw_main_menu_to_buffer>
     e4a:	9f ef       	ldi	r25, 0xFF	; 255
     e4c:	ef ef       	ldi	r30, 0xFF	; 255
     e4e:	f2 e0       	ldi	r31, 0x02	; 2
     e50:	91 50       	subi	r25, 0x01	; 1
     e52:	e0 40       	sbci	r30, 0x00	; 0
     e54:	f0 40       	sbci	r31, 0x00	; 0
     e56:	e1 f7       	brne	.-8      	; 0xe50 <main+0x34c>
     e58:	00 c0       	rjmp	.+0      	; 0xe5a <main+0x356>
     e5a:	00 c0       	rjmp	.+0      	; 0xe5c <main+0x358>
					leaderboard_set_size(new_lb_size);
					break;
				}
			}
			// Go back to home
			global_state = HOME;
     e5c:	f1 2c       	mov	r15, r1
     e5e:	85 ce       	rjmp	.-758    	; 0xb6a <main+0x66>
			clear_all_buffers();
			draw_main_menu_to_buffer();
			_delay_ms(200);
		} else if (global_state == LEADERBOARD) {
     e60:	23 e0       	ldi	r18, 0x03	; 3
     e62:	f2 12       	cpse	r15, r18
     e64:	82 ce       	rjmp	.-764    	; 0xb6a <main+0x66>
			// Draw leaderboard once, then wait for press to go back to home
			draw_leaderboard_to_buffer();
     e66:	0e 94 44 08 	call	0x1088	; 0x1088 <draw_leaderboard_to_buffer>
			while(!update_screen()) {}
     e6a:	0e 94 b4 0b 	call	0x1768	; 0x1768 <update_screen>
     e6e:	88 23       	and	r24, r24
     e70:	e1 f3       	breq	.-8      	; 0xe6a <main+0x366>
			while (1) {
				const buttons_t buttons = io_board_read_buttons();
     e72:	0e 94 be 04 	call	0x97c	; 0x97c <io_board_read_buttons>
     e76:	94 2f       	mov	r25, r20
     e78:	75 2f       	mov	r23, r21
     e7a:	86 2f       	mov	r24, r22
     e7c:	2f 87       	std	Y+15, r18	; 0x0f
     e7e:	38 8b       	std	Y+16, r19	; 0x10
     e80:	49 8b       	std	Y+17, r20	; 0x11
     e82:	5a 8b       	std	Y+18, r21	; 0x12
     e84:	6b 8b       	std	Y+19, r22	; 0x13
				const uint8_t pressed = get_nav_pressed(buttons);
     e86:	42 2f       	mov	r20, r18
     e88:	53 2f       	mov	r21, r19
     e8a:	69 2f       	mov	r22, r25
     e8c:	0e 94 4c 05 	call	0xa98	; 0xa98 <get_nav_pressed>
				if (pressed && pressed != prev_pressed) {
     e90:	88 23       	and	r24, r24
     e92:	89 f0       	breq	.+34     	; 0xeb6 <main+0x3b2>
     e94:	d8 16       	cp	r13, r24
     e96:	79 f0       	breq	.+30     	; 0xeb6 <main+0x3b2>
					global_state = HOME; 
					clear_all_buffers();
     e98:	0e 94 b9 0a 	call	0x1572	; 0x1572 <clear_all_buffers>
					draw_main_menu_to_buffer();
     e9c:	0e 94 1a 08 	call	0x1034	; 0x1034 <draw_main_menu_to_buffer>
     ea0:	8f ef       	ldi	r24, 0xFF	; 255
     ea2:	9f ef       	ldi	r25, 0xFF	; 255
     ea4:	e2 e0       	ldi	r30, 0x02	; 2
     ea6:	81 50       	subi	r24, 0x01	; 1
     ea8:	90 40       	sbci	r25, 0x00	; 0
     eaa:	e0 40       	sbci	r30, 0x00	; 0
     eac:	e1 f7       	brne	.-8      	; 0xea6 <main+0x3a2>
     eae:	00 c0       	rjmp	.+0      	; 0xeb0 <main+0x3ac>
     eb0:	00 c0       	rjmp	.+0      	; 0xeb2 <main+0x3ae>
			while(!update_screen()) {}
			while (1) {
				const buttons_t buttons = io_board_read_buttons();
				const uint8_t pressed = get_nav_pressed(buttons);
				if (pressed && pressed != prev_pressed) {
					global_state = HOME; 
     eb2:	f1 2c       	mov	r15, r1
     eb4:	5a ce       	rjmp	.-844    	; 0xb6a <main+0x66>
					clear_all_buffers();
					draw_main_menu_to_buffer();
					_delay_ms(200);
					break; 
				}
				prev_pressed = pressed; 
     eb6:	d8 2e       	mov	r13, r24
			}
     eb8:	dc cf       	rjmp	.-72     	; 0xe72 <main+0x36e>

00000eba <menu_init>:
void leaderboard_get_user_name(uint8_t i, char *name) {
	uint16_t offset = LEADERBOARD_BASE + 1 + i * 4;
	name[0] = xmem_read(offset);
	name[1] = xmem_read(offset + 1);
	name[2] = xmem_read(offset + 2);
}
     eba:	10 92 af 01 	sts	0x01AF, r1	; 0x8001af <main_menu>
     ebe:	10 92 ae 01 	sts	0x01AE, r1	; 0x8001ae <save>
     ec2:	60 e0       	ldi	r22, 0x00	; 0
     ec4:	78 e0       	ldi	r23, 0x08	; 8
     ec6:	81 e0       	ldi	r24, 0x01	; 1
     ec8:	0e 94 8d 0c 	call	0x191a	; 0x191a <xmem_write>
     ecc:	61 e0       	ldi	r22, 0x01	; 1
     ece:	78 e0       	ldi	r23, 0x08	; 8
     ed0:	81 e4       	ldi	r24, 0x41	; 65
     ed2:	0e 94 8d 0c 	call	0x191a	; 0x191a <xmem_write>
     ed6:	62 e0       	ldi	r22, 0x02	; 2
     ed8:	78 e0       	ldi	r23, 0x08	; 8
     eda:	82 e4       	ldi	r24, 0x42	; 66
     edc:	0e 94 8d 0c 	call	0x191a	; 0x191a <xmem_write>
     ee0:	63 e0       	ldi	r22, 0x03	; 3
     ee2:	78 e0       	ldi	r23, 0x08	; 8
     ee4:	83 e4       	ldi	r24, 0x43	; 67
     ee6:	0e 94 8d 0c 	call	0x191a	; 0x191a <xmem_write>
     eea:	64 e0       	ldi	r22, 0x04	; 4
     eec:	78 e0       	ldi	r23, 0x08	; 8
     eee:	80 e0       	ldi	r24, 0x00	; 0
     ef0:	0e 94 8d 0c 	call	0x191a	; 0x191a <xmem_write>
     ef4:	08 95       	ret

00000ef6 <draw_raquette_to_buffer>:
     ef6:	bf 92       	push	r11
     ef8:	cf 92       	push	r12
     efa:	df 92       	push	r13
     efc:	ef 92       	push	r14
     efe:	ff 92       	push	r15
     f00:	0f 93       	push	r16
     f02:	1f 93       	push	r17
     f04:	cf 93       	push	r28
     f06:	df 93       	push	r29
     f08:	e8 2e       	mov	r14, r24
     f0a:	b6 2e       	mov	r11, r22
     f0c:	80 91 00 01 	lds	r24, 0x0100	; 0x800100 <__DATA_REGION_ORIGIN__>
     f10:	0e 94 66 0a 	call	0x14cc	; 0x14cc <buf_base_of>
     f14:	6c 01       	movw	r12, r24
     f16:	00 e0       	ldi	r16, 0x00	; 0
     f18:	10 e0       	ldi	r17, 0x00	; 0
     f1a:	29 c0       	rjmp	.+82     	; 0xf6e <draw_raquette_to_buffer+0x78>
     f1c:	e6 e1       	ldi	r30, 0x16	; 22
     f1e:	f0 e0       	ldi	r31, 0x00	; 0
     f20:	ec 1b       	sub	r30, r28
     f22:	fd 0b       	sbc	r31, r29
     f24:	27 e1       	ldi	r18, 0x17	; 23
     f26:	20 9f       	mul	r18, r16
     f28:	c0 01       	movw	r24, r0
     f2a:	21 9f       	mul	r18, r17
     f2c:	90 0d       	add	r25, r0
     f2e:	11 24       	eor	r1, r1
     f30:	e8 0f       	add	r30, r24
     f32:	f9 1f       	adc	r31, r25
     f34:	e0 59       	subi	r30, 0x90	; 144
     f36:	ff 4f       	sbci	r31, 0xFF	; 255
     f38:	84 91       	lpm	r24, Z
     f3a:	b8 01       	movw	r22, r16
     f3c:	6e 0d       	add	r22, r14
     f3e:	71 1d       	adc	r23, r1
     f40:	76 95       	lsr	r23
     f42:	76 2f       	mov	r23, r22
     f44:	66 27       	eor	r22, r22
     f46:	77 95       	ror	r23
     f48:	67 95       	ror	r22
     f4a:	6c 0d       	add	r22, r12
     f4c:	7d 1d       	adc	r23, r13
     f4e:	9e 01       	movw	r18, r28
     f50:	2b 0d       	add	r18, r11
     f52:	31 1d       	adc	r19, r1
     f54:	62 0f       	add	r22, r18
     f56:	73 1f       	adc	r23, r19
     f58:	0e 94 8d 0c 	call	0x191a	; 0x191a <xmem_write>
     f5c:	21 96       	adiw	r28, 0x01	; 1
     f5e:	02 c0       	rjmp	.+4      	; 0xf64 <draw_raquette_to_buffer+0x6e>
     f60:	c0 e0       	ldi	r28, 0x00	; 0
     f62:	d0 e0       	ldi	r29, 0x00	; 0
     f64:	c7 31       	cpi	r28, 0x17	; 23
     f66:	d1 05       	cpc	r29, r1
     f68:	cc f2       	brlt	.-78     	; 0xf1c <draw_raquette_to_buffer+0x26>
     f6a:	0f 5f       	subi	r16, 0xFF	; 255
     f6c:	1f 4f       	sbci	r17, 0xFF	; 255
     f6e:	03 30       	cpi	r16, 0x03	; 3
     f70:	11 05       	cpc	r17, r1
     f72:	b4 f3       	brlt	.-20     	; 0xf60 <draw_raquette_to_buffer+0x6a>
     f74:	f1 2c       	mov	r15, r1
     f76:	e7 01       	movw	r28, r14
     f78:	d6 95       	lsr	r29
     f7a:	dc 2f       	mov	r29, r28
     f7c:	cc 27       	eor	r28, r28
     f7e:	d7 95       	ror	r29
     f80:	c7 95       	ror	r28
     f82:	cc 0d       	add	r28, r12
     f84:	dd 1d       	adc	r29, r13
     f86:	cb 0d       	add	r28, r11
     f88:	d1 1d       	adc	r29, r1
     f8a:	be 01       	movw	r22, r28
     f8c:	62 5e       	subi	r22, 0xE2	; 226
     f8e:	7f 4f       	sbci	r23, 0xFF	; 255
     f90:	8e e0       	ldi	r24, 0x0E	; 14
     f92:	0e 94 8d 0c 	call	0x191a	; 0x191a <xmem_write>
     f96:	be 01       	movw	r22, r28
     f98:	61 5e       	subi	r22, 0xE1	; 225
     f9a:	7f 4f       	sbci	r23, 0xFF	; 255
     f9c:	8f e1       	ldi	r24, 0x1F	; 31
     f9e:	0e 94 8d 0c 	call	0x191a	; 0x191a <xmem_write>
     fa2:	be 01       	movw	r22, r28
     fa4:	60 5e       	subi	r22, 0xE0	; 224
     fa6:	7f 4f       	sbci	r23, 0xFF	; 255
     fa8:	8f e1       	ldi	r24, 0x1F	; 31
     faa:	0e 94 8d 0c 	call	0x191a	; 0x191a <xmem_write>
     fae:	be 01       	movw	r22, r28
     fb0:	6f 5d       	subi	r22, 0xDF	; 223
     fb2:	7f 4f       	sbci	r23, 0xFF	; 255
     fb4:	8f e1       	ldi	r24, 0x1F	; 31
     fb6:	0e 94 8d 0c 	call	0x191a	; 0x191a <xmem_write>
     fba:	be 01       	movw	r22, r28
     fbc:	6e 5d       	subi	r22, 0xDE	; 222
     fbe:	7f 4f       	sbci	r23, 0xFF	; 255
     fc0:	8e e0       	ldi	r24, 0x0E	; 14
     fc2:	0e 94 8d 0c 	call	0x191a	; 0x191a <xmem_write>
     fc6:	00 e0       	ldi	r16, 0x00	; 0
     fc8:	10 e0       	ldi	r17, 0x00	; 0
     fca:	27 c0       	rjmp	.+78     	; 0x101a <draw_raquette_to_buffer+0x124>
     fcc:	87 e1       	ldi	r24, 0x17	; 23
     fce:	80 9f       	mul	r24, r16
     fd0:	f0 01       	movw	r30, r0
     fd2:	81 9f       	mul	r24, r17
     fd4:	f0 0d       	add	r31, r0
     fd6:	11 24       	eor	r1, r1
     fd8:	ec 0f       	add	r30, r28
     fda:	fd 1f       	adc	r31, r29
     fdc:	e0 59       	subi	r30, 0x90	; 144
     fde:	ff 4f       	sbci	r31, 0xFF	; 255
     fe0:	84 91       	lpm	r24, Z
     fe2:	b8 01       	movw	r22, r16
     fe4:	6e 0d       	add	r22, r14
     fe6:	7f 1d       	adc	r23, r15
     fe8:	76 95       	lsr	r23
     fea:	76 2f       	mov	r23, r22
     fec:	66 27       	eor	r22, r22
     fee:	77 95       	ror	r23
     ff0:	67 95       	ror	r22
     ff2:	6c 0d       	add	r22, r12
     ff4:	7d 1d       	adc	r23, r13
     ff6:	9e 01       	movw	r18, r28
     ff8:	2b 0d       	add	r18, r11
     ffa:	31 1d       	adc	r19, r1
     ffc:	62 0f       	add	r22, r18
     ffe:	73 1f       	adc	r23, r19
    1000:	63 5d       	subi	r22, 0xD3	; 211
    1002:	7f 4f       	sbci	r23, 0xFF	; 255
    1004:	0e 94 8d 0c 	call	0x191a	; 0x191a <xmem_write>
    1008:	21 96       	adiw	r28, 0x01	; 1
    100a:	02 c0       	rjmp	.+4      	; 0x1010 <draw_raquette_to_buffer+0x11a>
    100c:	c0 e0       	ldi	r28, 0x00	; 0
    100e:	d0 e0       	ldi	r29, 0x00	; 0
    1010:	c7 31       	cpi	r28, 0x17	; 23
    1012:	d1 05       	cpc	r29, r1
    1014:	dc f2       	brlt	.-74     	; 0xfcc <draw_raquette_to_buffer+0xd6>
    1016:	0f 5f       	subi	r16, 0xFF	; 255
    1018:	1f 4f       	sbci	r17, 0xFF	; 255
    101a:	03 30       	cpi	r16, 0x03	; 3
    101c:	11 05       	cpc	r17, r1
    101e:	b4 f3       	brlt	.-20     	; 0x100c <draw_raquette_to_buffer+0x116>
    1020:	df 91       	pop	r29
    1022:	cf 91       	pop	r28
    1024:	1f 91       	pop	r17
    1026:	0f 91       	pop	r16
    1028:	ff 90       	pop	r15
    102a:	ef 90       	pop	r14
    102c:	df 90       	pop	r13
    102e:	cf 90       	pop	r12
    1030:	bf 90       	pop	r11
    1032:	08 95       	ret

00001034 <draw_main_menu_to_buffer>:
    1034:	41 e4       	ldi	r20, 0x41	; 65
    1036:	51 e0       	ldi	r21, 0x01	; 1
    1038:	60 e0       	ldi	r22, 0x00	; 0
    103a:	80 e0       	ldi	r24, 0x00	; 0
    103c:	0e 94 5d 0b 	call	0x16ba	; 0x16ba <draw_string_big_to_buffer>
    1040:	40 e5       	ldi	r20, 0x50	; 80
    1042:	51 e0       	ldi	r21, 0x01	; 1
    1044:	60 e0       	ldi	r22, 0x00	; 0
    1046:	82 e0       	ldi	r24, 0x02	; 2
    1048:	0e 94 07 0b 	call	0x160e	; 0x160e <draw_string_normal_to_buffer>
    104c:	47 e5       	ldi	r20, 0x57	; 87
    104e:	51 e0       	ldi	r21, 0x01	; 1
    1050:	60 e0       	ldi	r22, 0x00	; 0
    1052:	83 e0       	ldi	r24, 0x03	; 3
    1054:	0e 94 07 0b 	call	0x160e	; 0x160e <draw_string_normal_to_buffer>
    1058:	80 91 af 01 	lds	r24, 0x01AF	; 0x8001af <main_menu>
    105c:	81 11       	cpse	r24, r1
    105e:	06 c0       	rjmp	.+12     	; 0x106c <draw_main_menu_to_buffer+0x38>
    1060:	4e e3       	ldi	r20, 0x3E	; 62
    1062:	60 e0       	ldi	r22, 0x00	; 0
    1064:	82 e0       	ldi	r24, 0x02	; 2
    1066:	0e 94 d0 0a 	call	0x15a0	; 0x15a0 <draw_char_normal_to_buffer>
    106a:	07 c0       	rjmp	.+14     	; 0x107a <draw_main_menu_to_buffer+0x46>
    106c:	81 30       	cpi	r24, 0x01	; 1
    106e:	29 f4       	brne	.+10     	; 0x107a <draw_main_menu_to_buffer+0x46>
    1070:	4e e3       	ldi	r20, 0x3E	; 62
    1072:	60 e0       	ldi	r22, 0x00	; 0
    1074:	83 e0       	ldi	r24, 0x03	; 3
    1076:	0e 94 d0 0a 	call	0x15a0	; 0x15a0 <draw_char_normal_to_buffer>
    107a:	6c e1       	ldi	r22, 0x1C	; 28
    107c:	85 e0       	ldi	r24, 0x05	; 5
    107e:	0e 94 7b 07 	call	0xef6	; 0xef6 <draw_raquette_to_buffer>
    1082:	0e 94 ca 0a 	call	0x1594	; 0x1594 <request_buffer_swap>
    1086:	08 95       	ret

00001088 <draw_leaderboard_to_buffer>:
    1088:	df 92       	push	r13
    108a:	ef 92       	push	r14
    108c:	ff 92       	push	r15
    108e:	0f 93       	push	r16
    1090:	1f 93       	push	r17
    1092:	cf 93       	push	r28
    1094:	df 93       	push	r29
    1096:	00 d0       	rcall	.+0      	; 0x1098 <draw_leaderboard_to_buffer+0x10>
    1098:	00 d0       	rcall	.+0      	; 0x109a <draw_leaderboard_to_buffer+0x12>
    109a:	cd b7       	in	r28, 0x3d	; 61
    109c:	de b7       	in	r29, 0x3e	; 62
    109e:	48 e5       	ldi	r20, 0x58	; 88
    10a0:	51 e0       	ldi	r21, 0x01	; 1
    10a2:	60 e0       	ldi	r22, 0x00	; 0
    10a4:	80 e0       	ldi	r24, 0x00	; 0
    10a6:	0e 94 5d 0b 	call	0x16ba	; 0x16ba <draw_string_big_to_buffer>
    10aa:	80 e0       	ldi	r24, 0x00	; 0
    10ac:	98 e0       	ldi	r25, 0x08	; 8
    10ae:	0e 94 91 0c 	call	0x1922	; 0x1922 <xmem_read>
    10b2:	d8 2e       	mov	r13, r24
    10b4:	86 e0       	ldi	r24, 0x06	; 6
    10b6:	8d 15       	cp	r24, r13
    10b8:	20 f4       	brcc	.+8      	; 0x10c2 <draw_leaderboard_to_buffer+0x3a>
    10ba:	0f 2e       	mov	r0, r31
    10bc:	f6 e0       	ldi	r31, 0x06	; 6
    10be:	df 2e       	mov	r13, r31
    10c0:	f0 2d       	mov	r31, r0
    10c2:	e1 2c       	mov	r14, r1
    10c4:	49 c0       	rjmp	.+146    	; 0x1158 <draw_leaderboard_to_buffer+0xd0>
    10c6:	0e 2d       	mov	r16, r14
    10c8:	10 e0       	ldi	r17, 0x00	; 0
    10ca:	00 0f       	add	r16, r16
    10cc:	11 1f       	adc	r17, r17
    10ce:	00 0f       	add	r16, r16
    10d0:	11 1f       	adc	r17, r17
    10d2:	0f 5f       	subi	r16, 0xFF	; 255
    10d4:	17 4f       	sbci	r17, 0xF7	; 247
    10d6:	c8 01       	movw	r24, r16
    10d8:	0e 94 91 0c 	call	0x1922	; 0x1922 <xmem_read>
    10dc:	68 94       	set
    10de:	ff 24       	eor	r15, r15
    10e0:	f1 f8       	bld	r15, 1
    10e2:	fe 0c       	add	r15, r14
    10e4:	48 2f       	mov	r20, r24
    10e6:	60 e0       	ldi	r22, 0x00	; 0
    10e8:	8f 2d       	mov	r24, r15
    10ea:	0e 94 d0 0a 	call	0x15a0	; 0x15a0 <draw_char_normal_to_buffer>
    10ee:	c8 01       	movw	r24, r16
    10f0:	01 96       	adiw	r24, 0x01	; 1
    10f2:	0e 94 91 0c 	call	0x1922	; 0x1922 <xmem_read>
    10f6:	48 2f       	mov	r20, r24
    10f8:	66 e0       	ldi	r22, 0x06	; 6
    10fa:	8f 2d       	mov	r24, r15
    10fc:	0e 94 d0 0a 	call	0x15a0	; 0x15a0 <draw_char_normal_to_buffer>
    1100:	c8 01       	movw	r24, r16
    1102:	02 96       	adiw	r24, 0x02	; 2
    1104:	0e 94 91 0c 	call	0x1922	; 0x1922 <xmem_read>
    1108:	48 2f       	mov	r20, r24
    110a:	6c e0       	ldi	r22, 0x0C	; 12
    110c:	8f 2d       	mov	r24, r15
    110e:	0e 94 d0 0a 	call	0x15a0	; 0x15a0 <draw_char_normal_to_buffer>
    1112:	4b e7       	ldi	r20, 0x7B	; 123
    1114:	51 e0       	ldi	r21, 0x01	; 1
    1116:	62 e1       	ldi	r22, 0x12	; 18
    1118:	8f 2d       	mov	r24, r15
    111a:	0e 94 07 0b 	call	0x160e	; 0x160e <draw_string_normal_to_buffer>
    111e:	c8 01       	movw	r24, r16
    1120:	03 96       	adiw	r24, 0x03	; 3
    1122:	0e 94 91 0c 	call	0x1922	; 0x1922 <xmem_read>
    1126:	1f 92       	push	r1
    1128:	8f 93       	push	r24
    112a:	84 e6       	ldi	r24, 0x64	; 100
    112c:	91 e0       	ldi	r25, 0x01	; 1
    112e:	9f 93       	push	r25
    1130:	8f 93       	push	r24
    1132:	8e 01       	movw	r16, r28
    1134:	0f 5f       	subi	r16, 0xFF	; 255
    1136:	1f 4f       	sbci	r17, 0xFF	; 255
    1138:	1f 93       	push	r17
    113a:	0f 93       	push	r16
    113c:	0e 94 ee 0c 	call	0x19dc	; 0x19dc <sprintf>
    1140:	a8 01       	movw	r20, r16
    1142:	6a e1       	ldi	r22, 0x1A	; 26
    1144:	8f 2d       	mov	r24, r15
    1146:	0e 94 07 0b 	call	0x160e	; 0x160e <draw_string_normal_to_buffer>
    114a:	e3 94       	inc	r14
    114c:	0f 90       	pop	r0
    114e:	0f 90       	pop	r0
    1150:	0f 90       	pop	r0
    1152:	0f 90       	pop	r0
    1154:	0f 90       	pop	r0
    1156:	0f 90       	pop	r0
    1158:	ed 14       	cp	r14, r13
    115a:	08 f4       	brcc	.+2      	; 0x115e <draw_leaderboard_to_buffer+0xd6>
    115c:	b4 cf       	rjmp	.-152    	; 0x10c6 <draw_leaderboard_to_buffer+0x3e>
    115e:	0e 94 ca 0a 	call	0x1594	; 0x1594 <request_buffer_swap>
    1162:	0f 90       	pop	r0
    1164:	0f 90       	pop	r0
    1166:	0f 90       	pop	r0
    1168:	0f 90       	pop	r0
    116a:	df 91       	pop	r29
    116c:	cf 91       	pop	r28
    116e:	1f 91       	pop	r17
    1170:	0f 91       	pop	r16
    1172:	ff 90       	pop	r15
    1174:	ef 90       	pop	r14
    1176:	df 90       	pop	r13
    1178:	08 95       	ret

0000117a <draw_in_game>:
    117a:	0f 93       	push	r16
    117c:	1f 93       	push	r17
    117e:	cf 93       	push	r28
    1180:	df 93       	push	r29
    1182:	00 d0       	rcall	.+0      	; 0x1184 <draw_in_game+0xa>
    1184:	00 d0       	rcall	.+0      	; 0x1186 <draw_in_game+0xc>
    1186:	cd b7       	in	r28, 0x3d	; 61
    1188:	de b7       	in	r29, 0x3e	; 62
    118a:	18 2f       	mov	r17, r24
    118c:	47 e6       	ldi	r20, 0x67	; 103
    118e:	51 e0       	ldi	r21, 0x01	; 1
    1190:	60 e0       	ldi	r22, 0x00	; 0
    1192:	80 e0       	ldi	r24, 0x00	; 0
    1194:	0e 94 5d 0b 	call	0x16ba	; 0x16ba <draw_string_big_to_buffer>
    1198:	46 e7       	ldi	r20, 0x76	; 118
    119a:	51 e0       	ldi	r21, 0x01	; 1
    119c:	64 e1       	ldi	r22, 0x14	; 20
    119e:	83 e0       	ldi	r24, 0x03	; 3
    11a0:	0e 94 07 0b 	call	0x160e	; 0x160e <draw_string_normal_to_buffer>
    11a4:	1f 92       	push	r1
    11a6:	1f 93       	push	r17
    11a8:	84 e6       	ldi	r24, 0x64	; 100
    11aa:	91 e0       	ldi	r25, 0x01	; 1
    11ac:	9f 93       	push	r25
    11ae:	8f 93       	push	r24
    11b0:	8e 01       	movw	r16, r28
    11b2:	0f 5f       	subi	r16, 0xFF	; 255
    11b4:	1f 4f       	sbci	r17, 0xFF	; 255
    11b6:	1f 93       	push	r17
    11b8:	0f 93       	push	r16
    11ba:	0e 94 ee 0c 	call	0x19dc	; 0x19dc <sprintf>
    11be:	a8 01       	movw	r20, r16
    11c0:	61 e4       	ldi	r22, 0x41	; 65
    11c2:	83 e0       	ldi	r24, 0x03	; 3
    11c4:	0e 94 07 0b 	call	0x160e	; 0x160e <draw_string_normal_to_buffer>
    11c8:	0e 94 ca 0a 	call	0x1594	; 0x1594 <request_buffer_swap>
    11cc:	0f 90       	pop	r0
    11ce:	0f 90       	pop	r0
    11d0:	0f 90       	pop	r0
    11d2:	0f 90       	pop	r0
    11d4:	0f 90       	pop	r0
    11d6:	0f 90       	pop	r0
    11d8:	0f 90       	pop	r0
    11da:	0f 90       	pop	r0
    11dc:	0f 90       	pop	r0
    11de:	0f 90       	pop	r0
    11e0:	df 91       	pop	r29
    11e2:	cf 91       	pop	r28
    11e4:	1f 91       	pop	r17
    11e6:	0f 91       	pop	r16
    11e8:	08 95       	ret

000011ea <draw_save>:
    11ea:	ef 92       	push	r14
    11ec:	ff 92       	push	r15
    11ee:	0f 93       	push	r16
    11f0:	1f 93       	push	r17
    11f2:	cf 93       	push	r28
    11f4:	df 93       	push	r29
    11f6:	00 d0       	rcall	.+0      	; 0x11f8 <draw_save+0xe>
    11f8:	00 d0       	rcall	.+0      	; 0x11fa <draw_save+0x10>
    11fa:	cd b7       	in	r28, 0x3d	; 61
    11fc:	de b7       	in	r29, 0x3e	; 62
    11fe:	e8 2e       	mov	r14, r24
    1200:	f6 2e       	mov	r15, r22
    1202:	04 2f       	mov	r16, r20
    1204:	12 2f       	mov	r17, r18
    1206:	4d e7       	ldi	r20, 0x7D	; 125
    1208:	51 e0       	ldi	r21, 0x01	; 1
    120a:	60 e0       	ldi	r22, 0x00	; 0
    120c:	80 e0       	ldi	r24, 0x00	; 0
    120e:	0e 94 5d 0b 	call	0x16ba	; 0x16ba <draw_string_big_to_buffer>
    1212:	4e 2d       	mov	r20, r14
    1214:	60 e0       	ldi	r22, 0x00	; 0
    1216:	82 e0       	ldi	r24, 0x02	; 2
    1218:	0e 94 d0 0a 	call	0x15a0	; 0x15a0 <draw_char_normal_to_buffer>
    121c:	4f 2d       	mov	r20, r15
    121e:	66 e0       	ldi	r22, 0x06	; 6
    1220:	82 e0       	ldi	r24, 0x02	; 2
    1222:	0e 94 d0 0a 	call	0x15a0	; 0x15a0 <draw_char_normal_to_buffer>
    1226:	40 2f       	mov	r20, r16
    1228:	6c e0       	ldi	r22, 0x0C	; 12
    122a:	82 e0       	ldi	r24, 0x02	; 2
    122c:	0e 94 d0 0a 	call	0x15a0	; 0x15a0 <draw_char_normal_to_buffer>
    1230:	1f 92       	push	r1
    1232:	1f 93       	push	r17
    1234:	84 e6       	ldi	r24, 0x64	; 100
    1236:	91 e0       	ldi	r25, 0x01	; 1
    1238:	9f 93       	push	r25
    123a:	8f 93       	push	r24
    123c:	8e 01       	movw	r16, r28
    123e:	0f 5f       	subi	r16, 0xFF	; 255
    1240:	1f 4f       	sbci	r17, 0xFF	; 255
    1242:	1f 93       	push	r17
    1244:	0f 93       	push	r16
    1246:	0e 94 ee 0c 	call	0x19dc	; 0x19dc <sprintf>
    124a:	a8 01       	movw	r20, r16
    124c:	68 e1       	ldi	r22, 0x18	; 24
    124e:	82 e0       	ldi	r24, 0x02	; 2
    1250:	0e 94 07 0b 	call	0x160e	; 0x160e <draw_string_normal_to_buffer>
    1254:	80 91 ae 01 	lds	r24, 0x01AE	; 0x8001ae <save>
    1258:	0f 90       	pop	r0
    125a:	0f 90       	pop	r0
    125c:	0f 90       	pop	r0
    125e:	0f 90       	pop	r0
    1260:	0f 90       	pop	r0
    1262:	0f 90       	pop	r0
    1264:	81 11       	cpse	r24, r1
    1266:	07 c0       	rjmp	.+14     	; 0x1276 <draw_save+0x8c>
    1268:	4d e8       	ldi	r20, 0x8D	; 141
    126a:	51 e0       	ldi	r21, 0x01	; 1
    126c:	60 e0       	ldi	r22, 0x00	; 0
    126e:	83 e0       	ldi	r24, 0x03	; 3
    1270:	0e 94 07 0b 	call	0x160e	; 0x160e <draw_string_normal_to_buffer>
    1274:	11 c0       	rjmp	.+34     	; 0x1298 <draw_save+0xae>
    1276:	81 30       	cpi	r24, 0x01	; 1
    1278:	39 f4       	brne	.+14     	; 0x1288 <draw_save+0x9e>
    127a:	41 e9       	ldi	r20, 0x91	; 145
    127c:	51 e0       	ldi	r21, 0x01	; 1
    127e:	60 e0       	ldi	r22, 0x00	; 0
    1280:	83 e0       	ldi	r24, 0x03	; 3
    1282:	0e 94 07 0b 	call	0x160e	; 0x160e <draw_string_normal_to_buffer>
    1286:	08 c0       	rjmp	.+16     	; 0x1298 <draw_save+0xae>
    1288:	82 30       	cpi	r24, 0x02	; 2
    128a:	31 f4       	brne	.+12     	; 0x1298 <draw_save+0xae>
    128c:	45 e9       	ldi	r20, 0x95	; 149
    128e:	51 e0       	ldi	r21, 0x01	; 1
    1290:	60 e0       	ldi	r22, 0x00	; 0
    1292:	83 e0       	ldi	r24, 0x03	; 3
    1294:	0e 94 07 0b 	call	0x160e	; 0x160e <draw_string_normal_to_buffer>
    1298:	0e 94 ca 0a 	call	0x1594	; 0x1594 <request_buffer_swap>
    129c:	0f 90       	pop	r0
    129e:	0f 90       	pop	r0
    12a0:	0f 90       	pop	r0
    12a2:	0f 90       	pop	r0
    12a4:	df 91       	pop	r29
    12a6:	cf 91       	pop	r28
    12a8:	1f 91       	pop	r17
    12aa:	0f 91       	pop	r16
    12ac:	ff 90       	pop	r15
    12ae:	ef 90       	pop	r14
    12b0:	08 95       	ret

000012b2 <leaderboard_get_size>:
    12b2:	80 e0       	ldi	r24, 0x00	; 0
    12b4:	98 e0       	ldi	r25, 0x08	; 8
    12b6:	0e 94 91 0c 	call	0x1922	; 0x1922 <xmem_read>
    12ba:	08 95       	ret

000012bc <leaderboard_set_size>:
    12bc:	87 30       	cpi	r24, 0x07	; 7
    12be:	08 f0       	brcs	.+2      	; 0x12c2 <leaderboard_set_size+0x6>
    12c0:	86 e0       	ldi	r24, 0x06	; 6
    12c2:	60 e0       	ldi	r22, 0x00	; 0
    12c4:	78 e0       	ldi	r23, 0x08	; 8
    12c6:	0e 94 8d 0c 	call	0x191a	; 0x191a <xmem_write>
    12ca:	08 95       	ret

000012cc <leaderboard_get_user_score>:

uint8_t leaderboard_get_user_score(uint8_t i) {
	uint16_t offset = LEADERBOARD_BASE + 1 + i * 4;
    12cc:	90 e0       	ldi	r25, 0x00	; 0
    12ce:	88 0f       	add	r24, r24
    12d0:	99 1f       	adc	r25, r25
    12d2:	88 0f       	add	r24, r24
    12d4:	99 1f       	adc	r25, r25
	return xmem_read(offset + 3);
    12d6:	8c 5f       	subi	r24, 0xFC	; 252
    12d8:	97 4f       	sbci	r25, 0xF7	; 247
    12da:	0e 94 91 0c 	call	0x1922	; 0x1922 <xmem_read>
}
    12de:	08 95       	ret

000012e0 <propag_users>:

uint8_t propag_users(char l1, char l2, char l3, uint8_t score, uint8_t start, uint8_t leaderboard_size) {
    12e0:	2f 92       	push	r2
    12e2:	3f 92       	push	r3
    12e4:	4f 92       	push	r4
    12e6:	5f 92       	push	r5
    12e8:	6f 92       	push	r6
    12ea:	7f 92       	push	r7
    12ec:	8f 92       	push	r8
    12ee:	9f 92       	push	r9
    12f0:	af 92       	push	r10
    12f2:	bf 92       	push	r11
    12f4:	cf 92       	push	r12
    12f6:	df 92       	push	r13
    12f8:	ef 92       	push	r14
    12fa:	ff 92       	push	r15
    12fc:	0f 93       	push	r16
    12fe:	1f 93       	push	r17
    1300:	cf 93       	push	r28
    1302:	df 93       	push	r29
    1304:	68 2e       	mov	r6, r24
    1306:	76 2e       	mov	r7, r22
    1308:	f4 2e       	mov	r15, r20
    130a:	12 2f       	mov	r17, r18
	char tmp_score = score;
	char to_write_l1;
	char to_write_l2;
	char to_write_l3;
	char to_write_score;
	for (uint8_t i = start; i < leaderboard_size + 1; i++) {
    130c:	37 c0       	rjmp	.+110    	; 0x137c <propag_users+0x9c>
		uint16_t offset = LEADERBOARD_BASE + 1 + i * 4;
    130e:	cc 0f       	add	r28, r28
    1310:	dd 1f       	adc	r29, r29
    1312:	cc 0f       	add	r28, r28
    1314:	dd 1f       	adc	r29, r29
    1316:	cf 5f       	subi	r28, 0xFF	; 255
    1318:	d7 4f       	sbci	r29, 0xF7	; 247
		to_write_l1 = tmp_l1;
		to_write_l2 = tmp_l2;
		to_write_l3 = tmp_l3;
		to_write_score = tmp_score;
		
		tmp_l1 = xmem_read(offset);
    131a:	ce 01       	movw	r24, r28
    131c:	0e 94 91 0c 	call	0x1922	; 0x1922 <xmem_read>
    1320:	58 2e       	mov	r5, r24
		tmp_l2 = xmem_read(offset + 1);
    1322:	4e 01       	movw	r8, r28
    1324:	8f ef       	ldi	r24, 0xFF	; 255
    1326:	88 1a       	sub	r8, r24
    1328:	98 0a       	sbc	r9, r24
    132a:	c4 01       	movw	r24, r8
    132c:	0e 94 91 0c 	call	0x1922	; 0x1922 <xmem_read>
    1330:	48 2e       	mov	r4, r24
		tmp_l3 = xmem_read(offset + 2);
    1332:	5e 01       	movw	r10, r28
    1334:	82 e0       	ldi	r24, 0x02	; 2
    1336:	a8 0e       	add	r10, r24
    1338:	b1 1c       	adc	r11, r1
    133a:	c5 01       	movw	r24, r10
    133c:	0e 94 91 0c 	call	0x1922	; 0x1922 <xmem_read>
    1340:	38 2e       	mov	r3, r24
		tmp_score = xmem_read(offset + 3);
    1342:	6e 01       	movw	r12, r28
    1344:	83 e0       	ldi	r24, 0x03	; 3
    1346:	c8 0e       	add	r12, r24
    1348:	d1 1c       	adc	r13, r1
    134a:	c6 01       	movw	r24, r12
    134c:	0e 94 91 0c 	call	0x1922	; 0x1922 <xmem_read>
    1350:	28 2e       	mov	r2, r24

		xmem_write(to_write_l1, offset);
    1352:	be 01       	movw	r22, r28
    1354:	86 2d       	mov	r24, r6
    1356:	0e 94 8d 0c 	call	0x191a	; 0x191a <xmem_write>
		xmem_write(to_write_l2, offset + 1);
    135a:	b4 01       	movw	r22, r8
    135c:	87 2d       	mov	r24, r7
    135e:	0e 94 8d 0c 	call	0x191a	; 0x191a <xmem_write>
		xmem_write(to_write_l3, offset + 2);
    1362:	b5 01       	movw	r22, r10
    1364:	8f 2d       	mov	r24, r15
    1366:	0e 94 8d 0c 	call	0x191a	; 0x191a <xmem_write>
		xmem_write(to_write_score, offset + 3);
    136a:	b6 01       	movw	r22, r12
    136c:	81 2f       	mov	r24, r17
    136e:	0e 94 8d 0c 	call	0x191a	; 0x191a <xmem_write>
	char tmp_score = score;
	char to_write_l1;
	char to_write_l2;
	char to_write_l3;
	char to_write_score;
	for (uint8_t i = start; i < leaderboard_size + 1; i++) {
    1372:	0f 5f       	subi	r16, 0xFF	; 255
		to_write_score = tmp_score;
		
		tmp_l1 = xmem_read(offset);
		tmp_l2 = xmem_read(offset + 1);
		tmp_l3 = xmem_read(offset + 2);
		tmp_score = xmem_read(offset + 3);
    1374:	12 2d       	mov	r17, r2
		to_write_l3 = tmp_l3;
		to_write_score = tmp_score;
		
		tmp_l1 = xmem_read(offset);
		tmp_l2 = xmem_read(offset + 1);
		tmp_l3 = xmem_read(offset + 2);
    1376:	f3 2c       	mov	r15, r3
		to_write_l2 = tmp_l2;
		to_write_l3 = tmp_l3;
		to_write_score = tmp_score;
		
		tmp_l1 = xmem_read(offset);
		tmp_l2 = xmem_read(offset + 1);
    1378:	74 2c       	mov	r7, r4
		to_write_l1 = tmp_l1;
		to_write_l2 = tmp_l2;
		to_write_l3 = tmp_l3;
		to_write_score = tmp_score;
		
		tmp_l1 = xmem_read(offset);
    137a:	65 2c       	mov	r6, r5
	char tmp_score = score;
	char to_write_l1;
	char to_write_l2;
	char to_write_l3;
	char to_write_score;
	for (uint8_t i = start; i < leaderboard_size + 1; i++) {
    137c:	c0 2f       	mov	r28, r16
    137e:	d0 e0       	ldi	r29, 0x00	; 0
    1380:	8e 2d       	mov	r24, r14
    1382:	90 e0       	ldi	r25, 0x00	; 0
    1384:	01 96       	adiw	r24, 0x01	; 1
    1386:	c8 17       	cp	r28, r24
    1388:	d9 07       	cpc	r29, r25
    138a:	0c f2       	brlt	.-126    	; 0x130e <propag_users+0x2e>
		xmem_write(to_write_l2, offset + 1);
		xmem_write(to_write_l3, offset + 2);
		xmem_write(to_write_score, offset + 3);
	}
	return leaderboard_size + 1;
    138c:	81 e0       	ldi	r24, 0x01	; 1
    138e:	8e 0d       	add	r24, r14
    1390:	df 91       	pop	r29
    1392:	cf 91       	pop	r28
    1394:	1f 91       	pop	r17
    1396:	0f 91       	pop	r16
    1398:	ff 90       	pop	r15
    139a:	ef 90       	pop	r14
    139c:	df 90       	pop	r13
    139e:	cf 90       	pop	r12
    13a0:	bf 90       	pop	r11
    13a2:	af 90       	pop	r10
    13a4:	9f 90       	pop	r9
    13a6:	8f 90       	pop	r8
    13a8:	7f 90       	pop	r7
    13aa:	6f 90       	pop	r6
    13ac:	5f 90       	pop	r5
    13ae:	4f 90       	pop	r4
    13b0:	3f 90       	pop	r3
    13b2:	2f 90       	pop	r2
    13b4:	08 95       	ret

000013b6 <oled_init>:
	uint16_t offset = buf_base_of(active_buf) + page * WIDTH + x;
	uint8_t v = xmem_read(offset);
	if (on) v |= (1 << bit);
	else v &= ~(1 << bit);
	xmem_write(v, offset);
}
    13b6:	0e 94 e2 0b 	call	0x17c4	; 0x17c4 <spi_init>
    13ba:	87 b3       	in	r24, 0x17	; 23
    13bc:	82 60       	ori	r24, 0x02	; 2
    13be:	87 bb       	out	0x17, r24	; 23
    13c0:	82 e0       	ldi	r24, 0x02	; 2
    13c2:	0e 94 eb 0b 	call	0x17d6	; 0x17d6 <spi_select_slave>
    13c6:	88 b3       	in	r24, 0x18	; 24
    13c8:	8d 7f       	andi	r24, 0xFD	; 253
    13ca:	88 bb       	out	0x18, r24	; 24
    13cc:	8e ea       	ldi	r24, 0xAE	; 174
    13ce:	0e 94 19 0c 	call	0x1832	; 0x1832 <spi_write_byte>
    13d2:	0e 94 2b 0c 	call	0x1856	; 0x1856 <spi_read_byte>
    13d6:	81 ea       	ldi	r24, 0xA1	; 161
    13d8:	0e 94 19 0c 	call	0x1832	; 0x1832 <spi_write_byte>
    13dc:	0e 94 2b 0c 	call	0x1856	; 0x1856 <spi_read_byte>
    13e0:	8a ed       	ldi	r24, 0xDA	; 218
    13e2:	0e 94 19 0c 	call	0x1832	; 0x1832 <spi_write_byte>
    13e6:	0e 94 2b 0c 	call	0x1856	; 0x1856 <spi_read_byte>
    13ea:	82 e1       	ldi	r24, 0x12	; 18
    13ec:	0e 94 19 0c 	call	0x1832	; 0x1832 <spi_write_byte>
    13f0:	0e 94 2b 0c 	call	0x1856	; 0x1856 <spi_read_byte>
    13f4:	88 ec       	ldi	r24, 0xC8	; 200
    13f6:	0e 94 19 0c 	call	0x1832	; 0x1832 <spi_write_byte>
    13fa:	0e 94 2b 0c 	call	0x1856	; 0x1856 <spi_read_byte>
    13fe:	88 ea       	ldi	r24, 0xA8	; 168
    1400:	0e 94 19 0c 	call	0x1832	; 0x1832 <spi_write_byte>
    1404:	0e 94 2b 0c 	call	0x1856	; 0x1856 <spi_read_byte>
    1408:	8f e3       	ldi	r24, 0x3F	; 63
    140a:	0e 94 19 0c 	call	0x1832	; 0x1832 <spi_write_byte>
    140e:	0e 94 2b 0c 	call	0x1856	; 0x1856 <spi_read_byte>
    1412:	85 ed       	ldi	r24, 0xD5	; 213
    1414:	0e 94 19 0c 	call	0x1832	; 0x1832 <spi_write_byte>
    1418:	0e 94 2b 0c 	call	0x1856	; 0x1856 <spi_read_byte>
    141c:	80 e8       	ldi	r24, 0x80	; 128
    141e:	0e 94 19 0c 	call	0x1832	; 0x1832 <spi_write_byte>
    1422:	0e 94 2b 0c 	call	0x1856	; 0x1856 <spi_read_byte>
    1426:	81 e8       	ldi	r24, 0x81	; 129
    1428:	0e 94 19 0c 	call	0x1832	; 0x1832 <spi_write_byte>
    142c:	0e 94 2b 0c 	call	0x1856	; 0x1856 <spi_read_byte>
    1430:	80 e5       	ldi	r24, 0x50	; 80
    1432:	0e 94 19 0c 	call	0x1832	; 0x1832 <spi_write_byte>
    1436:	0e 94 2b 0c 	call	0x1856	; 0x1856 <spi_read_byte>
    143a:	89 ed       	ldi	r24, 0xD9	; 217
    143c:	0e 94 19 0c 	call	0x1832	; 0x1832 <spi_write_byte>
    1440:	0e 94 2b 0c 	call	0x1856	; 0x1856 <spi_read_byte>
    1444:	81 e2       	ldi	r24, 0x21	; 33
    1446:	0e 94 19 0c 	call	0x1832	; 0x1832 <spi_write_byte>
    144a:	0e 94 2b 0c 	call	0x1856	; 0x1856 <spi_read_byte>
    144e:	80 e2       	ldi	r24, 0x20	; 32
    1450:	0e 94 19 0c 	call	0x1832	; 0x1832 <spi_write_byte>
    1454:	0e 94 2b 0c 	call	0x1856	; 0x1856 <spi_read_byte>
    1458:	82 e0       	ldi	r24, 0x02	; 2
    145a:	0e 94 19 0c 	call	0x1832	; 0x1832 <spi_write_byte>
    145e:	0e 94 2b 0c 	call	0x1856	; 0x1856 <spi_read_byte>
    1462:	8b ed       	ldi	r24, 0xDB	; 219
    1464:	0e 94 19 0c 	call	0x1832	; 0x1832 <spi_write_byte>
    1468:	0e 94 2b 0c 	call	0x1856	; 0x1856 <spi_read_byte>
    146c:	84 e3       	ldi	r24, 0x34	; 52
    146e:	0e 94 19 0c 	call	0x1832	; 0x1832 <spi_write_byte>
    1472:	0e 94 2b 0c 	call	0x1856	; 0x1856 <spi_read_byte>
    1476:	84 ea       	ldi	r24, 0xA4	; 164
    1478:	0e 94 19 0c 	call	0x1832	; 0x1832 <spi_write_byte>
    147c:	0e 94 2b 0c 	call	0x1856	; 0x1856 <spi_read_byte>
    1480:	86 ea       	ldi	r24, 0xA6	; 166
    1482:	0e 94 19 0c 	call	0x1832	; 0x1832 <spi_write_byte>
    1486:	0e 94 2b 0c 	call	0x1856	; 0x1856 <spi_read_byte>
    148a:	8f ea       	ldi	r24, 0xAF	; 175
    148c:	0e 94 19 0c 	call	0x1832	; 0x1832 <spi_write_byte>
    1490:	0e 94 2b 0c 	call	0x1856	; 0x1856 <spi_read_byte>
    1494:	83 e0       	ldi	r24, 0x03	; 3
    1496:	0e 94 eb 0b 	call	0x17d6	; 0x17d6 <spi_select_slave>
    149a:	08 95       	ret

0000149c <start_timer_transfer>:
    149c:	ea e8       	ldi	r30, 0x8A	; 138
    149e:	f0 e0       	ldi	r31, 0x00	; 0
    14a0:	10 82       	st	Z, r1
    14a2:	80 81       	ld	r24, Z
    14a4:	88 60       	ori	r24, 0x08	; 8
    14a6:	80 83       	st	Z, r24
    14a8:	8f ef       	ldi	r24, 0xFF	; 255
    14aa:	9b e2       	ldi	r25, 0x2B	; 43
    14ac:	90 93 87 00 	sts	0x0087, r25	; 0x800087 <__TEXT_REGION_LENGTH__+0x7fc087>
    14b0:	80 93 86 00 	sts	0x0086, r24	; 0x800086 <__TEXT_REGION_LENGTH__+0x7fc086>
    14b4:	80 81       	ld	r24, Z
    14b6:	8b 7f       	andi	r24, 0xFB	; 251
    14b8:	80 83       	st	Z, r24
    14ba:	80 81       	ld	r24, Z
    14bc:	83 60       	ori	r24, 0x03	; 3
    14be:	80 83       	st	Z, r24
    14c0:	ed e7       	ldi	r30, 0x7D	; 125
    14c2:	f0 e0       	ldi	r31, 0x00	; 0
    14c4:	80 81       	ld	r24, Z
    14c6:	80 61       	ori	r24, 0x10	; 16
    14c8:	80 83       	st	Z, r24
    14ca:	08 95       	ret

000014cc <buf_base_of>:
    14cc:	81 11       	cpse	r24, r1
    14ce:	03 c0       	rjmp	.+6      	; 0x14d6 <buf_base_of+0xa>
    14d0:	80 e0       	ldi	r24, 0x00	; 0
    14d2:	90 e0       	ldi	r25, 0x00	; 0
    14d4:	08 95       	ret
    14d6:	80 e0       	ldi	r24, 0x00	; 0
    14d8:	94 e0       	ldi	r25, 0x04	; 4
    14da:	08 95       	ret

000014dc <__vector_7>:
    14dc:	1f 92       	push	r1
    14de:	0f 92       	push	r0
    14e0:	0f b6       	in	r0, 0x3f	; 63
    14e2:	0f 92       	push	r0
    14e4:	11 24       	eor	r1, r1
    14e6:	8f 93       	push	r24
    14e8:	9f 93       	push	r25
    14ea:	81 e0       	ldi	r24, 0x01	; 1
    14ec:	80 93 a5 01 	sts	0x01A5, r24	; 0x8001a5 <screen_update_needed>
    14f0:	80 91 aa 01 	lds	r24, 0x01AA	; 0x8001aa <swap_requested>
    14f4:	88 23       	and	r24, r24
    14f6:	79 f0       	breq	.+30     	; 0x1516 <__vector_7+0x3a>
    14f8:	f8 94       	cli
    14fa:	10 92 aa 01 	sts	0x01AA, r1	; 0x8001aa <swap_requested>
    14fe:	80 91 00 01 	lds	r24, 0x0100	; 0x800100 <__DATA_REGION_ORIGIN__>
    1502:	80 93 ab 01 	sts	0x01AB, r24	; 0x8001ab <front_buf>
    1506:	90 91 00 01 	lds	r25, 0x0100	; 0x800100 <__DATA_REGION_ORIGIN__>
    150a:	81 e0       	ldi	r24, 0x01	; 1
    150c:	91 11       	cpse	r25, r1
    150e:	80 e0       	ldi	r24, 0x00	; 0
    1510:	80 93 00 01 	sts	0x0100, r24	; 0x800100 <__DATA_REGION_ORIGIN__>
    1514:	78 94       	sei
    1516:	9f 91       	pop	r25
    1518:	8f 91       	pop	r24
    151a:	0f 90       	pop	r0
    151c:	0f be       	out	0x3f, r0	; 63
    151e:	0f 90       	pop	r0
    1520:	1f 90       	pop	r1
    1522:	18 95       	reti

00001524 <doublebuf_init>:
    1524:	cf 93       	push	r28
    1526:	df 93       	push	r29
    1528:	0e 94 db 09 	call	0x13b6	; 0x13b6 <oled_init>
    152c:	0e 94 86 0c 	call	0x190c	; 0x190c <xmem_init>
    1530:	c0 e0       	ldi	r28, 0x00	; 0
    1532:	d0 e0       	ldi	r29, 0x00	; 0
    1534:	05 c0       	rjmp	.+10     	; 0x1540 <doublebuf_init+0x1c>
    1536:	be 01       	movw	r22, r28
    1538:	80 e0       	ldi	r24, 0x00	; 0
    153a:	0e 94 8d 0c 	call	0x191a	; 0x191a <xmem_write>
    153e:	21 96       	adiw	r28, 0x01	; 1
    1540:	c1 15       	cp	r28, r1
    1542:	88 e0       	ldi	r24, 0x08	; 8
    1544:	d8 07       	cpc	r29, r24
    1546:	b8 f3       	brcs	.-18     	; 0x1536 <doublebuf_init+0x12>
    1548:	10 92 ab 01 	sts	0x01AB, r1	; 0x8001ab <front_buf>
    154c:	81 e0       	ldi	r24, 0x01	; 1
    154e:	80 93 00 01 	sts	0x0100, r24	; 0x800100 <__DATA_REGION_ORIGIN__>
    1552:	10 92 aa 01 	sts	0x01AA, r1	; 0x8001aa <swap_requested>
    1556:	10 92 a9 01 	sts	0x01A9, r1	; 0x8001a9 <swap_pending>
    155a:	10 92 a8 01 	sts	0x01A8, r1	; 0x8001a8 <transfer_pos+0x1>
    155e:	10 92 a7 01 	sts	0x01A7, r1	; 0x8001a7 <transfer_pos>
    1562:	10 92 a6 01 	sts	0x01A6, r1	; 0x8001a6 <transfer_in_progress>
    1566:	0e 94 4e 0a 	call	0x149c	; 0x149c <start_timer_transfer>
    156a:	78 94       	sei
    156c:	df 91       	pop	r29
    156e:	cf 91       	pop	r28
    1570:	08 95       	ret

00001572 <clear_all_buffers>:
    1572:	cf 93       	push	r28
    1574:	df 93       	push	r29
    1576:	c0 e0       	ldi	r28, 0x00	; 0
    1578:	d0 e0       	ldi	r29, 0x00	; 0
    157a:	05 c0       	rjmp	.+10     	; 0x1586 <clear_all_buffers+0x14>
    157c:	be 01       	movw	r22, r28
    157e:	80 e0       	ldi	r24, 0x00	; 0
    1580:	0e 94 8d 0c 	call	0x191a	; 0x191a <xmem_write>
    1584:	21 96       	adiw	r28, 0x01	; 1
    1586:	c1 15       	cp	r28, r1
    1588:	88 e0       	ldi	r24, 0x08	; 8
    158a:	d8 07       	cpc	r29, r24
    158c:	b8 f3       	brcs	.-18     	; 0x157c <clear_all_buffers+0xa>
    158e:	df 91       	pop	r29
    1590:	cf 91       	pop	r28
    1592:	08 95       	ret

00001594 <request_buffer_swap>:
    1594:	f8 94       	cli
    1596:	81 e0       	ldi	r24, 0x01	; 1
    1598:	80 93 aa 01 	sts	0x01AA, r24	; 0x8001aa <swap_requested>
    159c:	78 94       	sei
    159e:	08 95       	ret

000015a0 <draw_char_normal_to_buffer>:

void draw_char_normal_to_buffer(uint8_t page, uint8_t col, char c) {
    15a0:	ef 92       	push	r14
    15a2:	ff 92       	push	r15
    15a4:	0f 93       	push	r16
    15a6:	1f 93       	push	r17
    15a8:	cf 93       	push	r28
    15aa:	df 93       	push	r29
    15ac:	e8 2e       	mov	r14, r24
    15ae:	f6 2e       	mov	r15, r22
	const uint8_t index = c - ' ';
    15b0:	00 ee       	ldi	r16, 0xE0	; 224
    15b2:	04 0f       	add	r16, r20
	uint16_t base = buf_base_of(active_buf);
    15b4:	80 91 00 01 	lds	r24, 0x0100	; 0x800100 <__DATA_REGION_ORIGIN__>
    15b8:	0e 94 66 0a 	call	0x14cc	; 0x14cc <buf_base_of>
    15bc:	ec 01       	movw	r28, r24
	
	for (uint8_t i = 0; i < 5; ++i) {
    15be:	10 e0       	ldi	r17, 0x00	; 0
    15c0:	1d c0       	rjmp	.+58     	; 0x15fc <draw_char_normal_to_buffer+0x5c>
		const uint8_t data = pgm_read_byte(&(font5[index][i]));
    15c2:	80 2f       	mov	r24, r16
    15c4:	90 e0       	ldi	r25, 0x00	; 0
    15c6:	61 2f       	mov	r22, r17
    15c8:	70 e0       	ldi	r23, 0x00	; 0
    15ca:	fc 01       	movw	r30, r24
    15cc:	ee 0f       	add	r30, r30
    15ce:	ff 1f       	adc	r31, r31
    15d0:	ee 0f       	add	r30, r30
    15d2:	ff 1f       	adc	r31, r31
    15d4:	e8 0f       	add	r30, r24
    15d6:	f9 1f       	adc	r31, r25
    15d8:	e6 0f       	add	r30, r22
    15da:	f7 1f       	adc	r31, r23
    15dc:	eb 54       	subi	r30, 0x4B	; 75
    15de:	ff 4f       	sbci	r31, 0xFF	; 255
    15e0:	84 91       	lpm	r24, Z
		const uint16_t offset = base + page * WIDTH + (col + i);
    15e2:	6f 0d       	add	r22, r15
    15e4:	71 1d       	adc	r23, r1
    15e6:	9e 01       	movw	r18, r28
    15e8:	90 e8       	ldi	r25, 0x80	; 128
    15ea:	e9 9e       	mul	r14, r25
    15ec:	20 0d       	add	r18, r0
    15ee:	31 1d       	adc	r19, r1
    15f0:	11 24       	eor	r1, r1
    15f2:	62 0f       	add	r22, r18
    15f4:	73 1f       	adc	r23, r19
		xmem_write(data, offset);
    15f6:	0e 94 8d 0c 	call	0x191a	; 0x191a <xmem_write>

void draw_char_normal_to_buffer(uint8_t page, uint8_t col, char c) {
	const uint8_t index = c - ' ';
	uint16_t base = buf_base_of(active_buf);
	
	for (uint8_t i = 0; i < 5; ++i) {
    15fa:	1f 5f       	subi	r17, 0xFF	; 255
    15fc:	15 30       	cpi	r17, 0x05	; 5
    15fe:	08 f3       	brcs	.-62     	; 0x15c2 <draw_char_normal_to_buffer+0x22>
		const uint8_t data = pgm_read_byte(&(font5[index][i]));
		const uint16_t offset = base + page * WIDTH + (col + i);
		xmem_write(data, offset);
	}
}
    1600:	df 91       	pop	r29
    1602:	cf 91       	pop	r28
    1604:	1f 91       	pop	r17
    1606:	0f 91       	pop	r16
    1608:	ff 90       	pop	r15
    160a:	ef 90       	pop	r14
    160c:	08 95       	ret

0000160e <draw_string_normal_to_buffer>:

void draw_string_normal_to_buffer(uint8_t page, uint8_t col, char *s) {
    160e:	ff 92       	push	r15
    1610:	0f 93       	push	r16
    1612:	1f 93       	push	r17
    1614:	cf 93       	push	r28
    1616:	df 93       	push	r29
    1618:	f8 2e       	mov	r15, r24
    161a:	d6 2f       	mov	r29, r22
    161c:	8a 01       	movw	r16, r20
	uint8_t i = 0;
    161e:	c0 e0       	ldi	r28, 0x00	; 0
	while (s[i] != '\0') {
    1620:	0a c0       	rjmp	.+20     	; 0x1636 <draw_string_normal_to_buffer+0x28>
		draw_char_normal_to_buffer(page, col + i * 6, s[i]);
    1622:	8c 2f       	mov	r24, r28
    1624:	88 0f       	add	r24, r24
    1626:	8c 0f       	add	r24, r28
    1628:	68 2f       	mov	r22, r24
    162a:	66 0f       	add	r22, r22
    162c:	6d 0f       	add	r22, r29
    162e:	8f 2d       	mov	r24, r15
    1630:	0e 94 d0 0a 	call	0x15a0	; 0x15a0 <draw_char_normal_to_buffer>
		i++;
    1634:	cf 5f       	subi	r28, 0xFF	; 255
	}
}

void draw_string_normal_to_buffer(uint8_t page, uint8_t col, char *s) {
	uint8_t i = 0;
	while (s[i] != '\0') {
    1636:	f8 01       	movw	r30, r16
    1638:	ec 0f       	add	r30, r28
    163a:	f1 1d       	adc	r31, r1
    163c:	40 81       	ld	r20, Z
    163e:	41 11       	cpse	r20, r1
    1640:	f0 cf       	rjmp	.-32     	; 0x1622 <draw_string_normal_to_buffer+0x14>
		draw_char_normal_to_buffer(page, col + i * 6, s[i]);
		i++;
	}
}
    1642:	df 91       	pop	r29
    1644:	cf 91       	pop	r28
    1646:	1f 91       	pop	r17
    1648:	0f 91       	pop	r16
    164a:	ff 90       	pop	r15
    164c:	08 95       	ret

0000164e <draw_char_big_to_buffer>:

void draw_char_big_to_buffer(uint8_t page, uint8_t col, char c) {
    164e:	ef 92       	push	r14
    1650:	ff 92       	push	r15
    1652:	0f 93       	push	r16
    1654:	1f 93       	push	r17
    1656:	cf 93       	push	r28
    1658:	df 93       	push	r29
    165a:	e8 2e       	mov	r14, r24
    165c:	f6 2e       	mov	r15, r22
	const uint8_t index = c - ' ';
    165e:	00 ee       	ldi	r16, 0xE0	; 224
    1660:	04 0f       	add	r16, r20
	uint16_t base = buf_base_of(active_buf);
    1662:	80 91 00 01 	lds	r24, 0x0100	; 0x800100 <__DATA_REGION_ORIGIN__>
    1666:	0e 94 66 0a 	call	0x14cc	; 0x14cc <buf_base_of>
    166a:	ec 01       	movw	r28, r24
	
	for (uint8_t i = 0; i < 8; ++i) {
    166c:	10 e0       	ldi	r17, 0x00	; 0
    166e:	1c c0       	rjmp	.+56     	; 0x16a8 <draw_char_big_to_buffer+0x5a>
		const uint8_t data = pgm_read_byte(&(font8[index][i]));
    1670:	e0 2f       	mov	r30, r16
    1672:	f0 e0       	ldi	r31, 0x00	; 0
    1674:	61 2f       	mov	r22, r17
    1676:	70 e0       	ldi	r23, 0x00	; 0
    1678:	ee 0f       	add	r30, r30
    167a:	ff 1f       	adc	r31, r31
    167c:	ee 0f       	add	r30, r30
    167e:	ff 1f       	adc	r31, r31
    1680:	ee 0f       	add	r30, r30
    1682:	ff 1f       	adc	r31, r31
    1684:	e6 0f       	add	r30, r22
    1686:	f7 1f       	adc	r31, r23
    1688:	e0 57       	subi	r30, 0x70	; 112
    168a:	fd 4f       	sbci	r31, 0xFD	; 253
    168c:	84 91       	lpm	r24, Z
		const uint16_t offset = base + page * WIDTH + (col + i);
    168e:	6f 0d       	add	r22, r15
    1690:	71 1d       	adc	r23, r1
    1692:	9e 01       	movw	r18, r28
    1694:	90 e8       	ldi	r25, 0x80	; 128
    1696:	e9 9e       	mul	r14, r25
    1698:	20 0d       	add	r18, r0
    169a:	31 1d       	adc	r19, r1
    169c:	11 24       	eor	r1, r1
    169e:	62 0f       	add	r22, r18
    16a0:	73 1f       	adc	r23, r19
		xmem_write(data, offset);
    16a2:	0e 94 8d 0c 	call	0x191a	; 0x191a <xmem_write>

void draw_char_big_to_buffer(uint8_t page, uint8_t col, char c) {
	const uint8_t index = c - ' ';
	uint16_t base = buf_base_of(active_buf);
	
	for (uint8_t i = 0; i < 8; ++i) {
    16a6:	1f 5f       	subi	r17, 0xFF	; 255
    16a8:	18 30       	cpi	r17, 0x08	; 8
    16aa:	10 f3       	brcs	.-60     	; 0x1670 <draw_char_big_to_buffer+0x22>
		const uint8_t data = pgm_read_byte(&(font8[index][i]));
		const uint16_t offset = base + page * WIDTH + (col + i);
		xmem_write(data, offset);
	}
}
    16ac:	df 91       	pop	r29
    16ae:	cf 91       	pop	r28
    16b0:	1f 91       	pop	r17
    16b2:	0f 91       	pop	r16
    16b4:	ff 90       	pop	r15
    16b6:	ef 90       	pop	r14
    16b8:	08 95       	ret

000016ba <draw_string_big_to_buffer>:

void draw_string_big_to_buffer(uint8_t page, uint8_t col, char *s) {
    16ba:	ff 92       	push	r15
    16bc:	0f 93       	push	r16
    16be:	1f 93       	push	r17
    16c0:	cf 93       	push	r28
    16c2:	df 93       	push	r29
    16c4:	f8 2e       	mov	r15, r24
    16c6:	d6 2f       	mov	r29, r22
    16c8:	8a 01       	movw	r16, r20
	uint8_t i = 0;
    16ca:	c0 e0       	ldi	r28, 0x00	; 0
	while (s[i] != '\0') {
    16cc:	0a c0       	rjmp	.+20     	; 0x16e2 <draw_string_big_to_buffer+0x28>
		draw_char_big_to_buffer(page, col + i * 7, s[i]);
    16ce:	6c 2f       	mov	r22, r28
    16d0:	66 0f       	add	r22, r22
    16d2:	66 0f       	add	r22, r22
    16d4:	66 0f       	add	r22, r22
    16d6:	6c 1b       	sub	r22, r28
    16d8:	6d 0f       	add	r22, r29
    16da:	8f 2d       	mov	r24, r15
    16dc:	0e 94 27 0b 	call	0x164e	; 0x164e <draw_char_big_to_buffer>
		i++;
    16e0:	cf 5f       	subi	r28, 0xFF	; 255
	}
}

void draw_string_big_to_buffer(uint8_t page, uint8_t col, char *s) {
	uint8_t i = 0;
	while (s[i] != '\0') {
    16e2:	f8 01       	movw	r30, r16
    16e4:	ec 0f       	add	r30, r28
    16e6:	f1 1d       	adc	r31, r1
    16e8:	40 81       	ld	r20, Z
    16ea:	41 11       	cpse	r20, r1
    16ec:	f0 cf       	rjmp	.-32     	; 0x16ce <draw_string_big_to_buffer+0x14>
		draw_char_big_to_buffer(page, col + i * 7, s[i]);
		i++;
	}
}
    16ee:	df 91       	pop	r29
    16f0:	cf 91       	pop	r28
    16f2:	1f 91       	pop	r17
    16f4:	0f 91       	pop	r16
    16f6:	ff 90       	pop	r15
    16f8:	08 95       	ret

000016fa <oled_goto>:

void oled_goto(uint8_t page, uint8_t column) {
    16fa:	cf 93       	push	r28
    16fc:	df 93       	push	r29
    16fe:	d8 2f       	mov	r29, r24
    1700:	c6 2f       	mov	r28, r22
	PORTB &= ~(1 << PB1); 
    1702:	88 b3       	in	r24, 0x18	; 24
    1704:	8d 7f       	andi	r24, 0xFD	; 253
    1706:	88 bb       	out	0x18, r24	; 24
	spi_select_slave(DISP);
    1708:	82 e0       	ldi	r24, 0x02	; 2
    170a:	0e 94 eb 0b 	call	0x17d6	; 0x17d6 <spi_select_slave>
	spi_write_byte(0xB0 | (page & 0x0F)); spi_read_byte();
    170e:	8d 2f       	mov	r24, r29
    1710:	8f 70       	andi	r24, 0x0F	; 15
    1712:	80 6b       	ori	r24, 0xB0	; 176
    1714:	0e 94 19 0c 	call	0x1832	; 0x1832 <spi_write_byte>
    1718:	0e 94 2b 0c 	call	0x1856	; 0x1856 <spi_read_byte>
	spi_write_byte(0x00 | (column & 0x0F)); spi_read_byte();
    171c:	8c 2f       	mov	r24, r28
    171e:	8f 70       	andi	r24, 0x0F	; 15
    1720:	0e 94 19 0c 	call	0x1832	; 0x1832 <spi_write_byte>
    1724:	0e 94 2b 0c 	call	0x1856	; 0x1856 <spi_read_byte>
	spi_write_byte(0x10 | ((column >> 4) & 0x0F)); spi_read_byte();
    1728:	8c 2f       	mov	r24, r28
    172a:	82 95       	swap	r24
    172c:	8f 70       	andi	r24, 0x0F	; 15
    172e:	80 61       	ori	r24, 0x10	; 16
    1730:	0e 94 19 0c 	call	0x1832	; 0x1832 <spi_write_byte>
    1734:	0e 94 2b 0c 	call	0x1856	; 0x1856 <spi_read_byte>
	spi_select_slave(NONE);
    1738:	83 e0       	ldi	r24, 0x03	; 3
    173a:	0e 94 eb 0b 	call	0x17d6	; 0x17d6 <spi_select_slave>
}
    173e:	df 91       	pop	r29
    1740:	cf 91       	pop	r28
    1742:	08 95       	ret

00001744 <oled_set_val>:


void oled_set_val(uint8_t val) {
    1744:	cf 93       	push	r28
    1746:	c8 2f       	mov	r28, r24
	spi_select_slave(DISP);
    1748:	82 e0       	ldi	r24, 0x02	; 2
    174a:	0e 94 eb 0b 	call	0x17d6	; 0x17d6 <spi_select_slave>
	PORTB |= (1 << PB1);
    174e:	88 b3       	in	r24, 0x18	; 24
    1750:	82 60       	ori	r24, 0x02	; 2
    1752:	88 bb       	out	0x18, r24	; 24
	spi_write_byte(val); spi_read_byte();
    1754:	8c 2f       	mov	r24, r28
    1756:	0e 94 19 0c 	call	0x1832	; 0x1832 <spi_write_byte>
    175a:	0e 94 2b 0c 	call	0x1856	; 0x1856 <spi_read_byte>
	spi_select_slave(NONE);
    175e:	83 e0       	ldi	r24, 0x03	; 3
    1760:	0e 94 eb 0b 	call	0x17d6	; 0x17d6 <spi_select_slave>
}
    1764:	cf 91       	pop	r28
    1766:	08 95       	ret

00001768 <update_screen>:
	return (bufnum == 0) ? BUF0_BASE : BUF1_BASE;
}

uint8_t screen_update_needed = 0;

uint8_t update_screen(void) {
    1768:	1f 93       	push	r17
    176a:	cf 93       	push	r28
    176c:	df 93       	push	r29
	if (screen_update_needed) {
    176e:	80 91 a5 01 	lds	r24, 0x01A5	; 0x8001a5 <screen_update_needed>
    1772:	81 11       	cpse	r24, r1
    1774:	1d c0       	rjmp	.+58     	; 0x17b0 <update_screen+0x48>
    1776:	22 c0       	rjmp	.+68     	; 0x17bc <update_screen+0x54>
		for (uint8_t page = 0; page < 8; ++page) {
		oled_goto(page, 0);
    1778:	60 e0       	ldi	r22, 0x00	; 0
    177a:	81 2f       	mov	r24, r17
    177c:	0e 94 7d 0b 	call	0x16fa	; 0x16fa <oled_goto>
			for (uint16_t col = 0; col < WIDTH; ++col) {
    1780:	c0 e0       	ldi	r28, 0x00	; 0
    1782:	d0 e0       	ldi	r29, 0x00	; 0
    1784:	10 c0       	rjmp	.+32     	; 0x17a6 <update_screen+0x3e>
				uint16_t off = buf_base_of(front_buf) + page * WIDTH + col;
    1786:	80 91 ab 01 	lds	r24, 0x01AB	; 0x8001ab <front_buf>
    178a:	0e 94 66 0a 	call	0x14cc	; 0x14cc <buf_base_of>
    178e:	20 e8       	ldi	r18, 0x80	; 128
    1790:	12 9f       	mul	r17, r18
    1792:	80 0d       	add	r24, r0
    1794:	91 1d       	adc	r25, r1
    1796:	11 24       	eor	r1, r1
				uint8_t b = xmem_read(off);
    1798:	8c 0f       	add	r24, r28
    179a:	9d 1f       	adc	r25, r29
    179c:	0e 94 91 0c 	call	0x1922	; 0x1922 <xmem_read>
				oled_set_val(b);
    17a0:	0e 94 a2 0b 	call	0x1744	; 0x1744 <oled_set_val>

uint8_t update_screen(void) {
	if (screen_update_needed) {
		for (uint8_t page = 0; page < 8; ++page) {
		oled_goto(page, 0);
			for (uint16_t col = 0; col < WIDTH; ++col) {
    17a4:	21 96       	adiw	r28, 0x01	; 1
    17a6:	c0 38       	cpi	r28, 0x80	; 128
    17a8:	d1 05       	cpc	r29, r1
    17aa:	68 f3       	brcs	.-38     	; 0x1786 <update_screen+0x1e>

uint8_t screen_update_needed = 0;

uint8_t update_screen(void) {
	if (screen_update_needed) {
		for (uint8_t page = 0; page < 8; ++page) {
    17ac:	1f 5f       	subi	r17, 0xFF	; 255
    17ae:	01 c0       	rjmp	.+2      	; 0x17b2 <update_screen+0x4a>
    17b0:	10 e0       	ldi	r17, 0x00	; 0
    17b2:	18 30       	cpi	r17, 0x08	; 8
    17b4:	08 f3       	brcs	.-62     	; 0x1778 <update_screen+0x10>
				uint16_t off = buf_base_of(front_buf) + page * WIDTH + col;
				uint8_t b = xmem_read(off);
				oled_set_val(b);
			}
		}
		screen_update_needed = 0;
    17b6:	10 92 a5 01 	sts	0x01A5, r1	; 0x8001a5 <screen_update_needed>
		return 1; // screen was updated
    17ba:	81 e0       	ldi	r24, 0x01	; 1
	}
	return 0; // screen was not updated
}
    17bc:	df 91       	pop	r29
    17be:	cf 91       	pop	r28
    17c0:	1f 91       	pop	r17
    17c2:	08 95       	ret

000017c4 <spi_init>:
#include "spi.h"
#include <avr/io.h>
#include <stdlib.h>

void spi_init(void) {
	DDRB |= (1<<PB2) | (1<<PB3) | (1<<PB4) | (1<<PB5) | (1<<PB7); // output : CS_DISP CS_CAN CS_IO MOSI SCK
    17c4:	87 b3       	in	r24, 0x17	; 23
    17c6:	8c 6b       	ori	r24, 0xBC	; 188
    17c8:	87 bb       	out	0x17, r24	; 23
	DDRB &= ~(1<<PB6);
    17ca:	87 b3       	in	r24, 0x17	; 23
    17cc:	8f 7b       	andi	r24, 0xBF	; 191
    17ce:	87 bb       	out	0x17, r24	; 23
	
	SPCR = (1<<SPE) | (1<<MSTR);
    17d0:	80 e5       	ldi	r24, 0x50	; 80
    17d2:	8d b9       	out	0x0d, r24	; 13
    17d4:	08 95       	ret

000017d6 <spi_select_slave>:
}

void spi_select_slave(slave s) {
	if(s == CAN) {
    17d6:	81 11       	cpse	r24, r1
    17d8:	0a c0       	rjmp	.+20     	; 0x17ee <spi_select_slave+0x18>
		PORTB &= ~(1<<PB3);
    17da:	88 b3       	in	r24, 0x18	; 24
    17dc:	87 7f       	andi	r24, 0xF7	; 247
    17de:	88 bb       	out	0x18, r24	; 24
		PORTB |= (1<<PB2);
    17e0:	88 b3       	in	r24, 0x18	; 24
    17e2:	84 60       	ori	r24, 0x04	; 4
    17e4:	88 bb       	out	0x18, r24	; 24
		PORTB |= (1<<PB4);
    17e6:	88 b3       	in	r24, 0x18	; 24
    17e8:	80 61       	ori	r24, 0x10	; 16
    17ea:	88 bb       	out	0x18, r24	; 24
    17ec:	08 95       	ret
	}
	else if (s == IO) {
    17ee:	81 30       	cpi	r24, 0x01	; 1
    17f0:	51 f4       	brne	.+20     	; 0x1806 <spi_select_slave+0x30>
		PORTB &= ~(1<<PB4);
    17f2:	88 b3       	in	r24, 0x18	; 24
    17f4:	8f 7e       	andi	r24, 0xEF	; 239
    17f6:	88 bb       	out	0x18, r24	; 24
		PORTB |= (1<<PB2);
    17f8:	88 b3       	in	r24, 0x18	; 24
    17fa:	84 60       	ori	r24, 0x04	; 4
    17fc:	88 bb       	out	0x18, r24	; 24
		PORTB |= (1<<PB3);
    17fe:	88 b3       	in	r24, 0x18	; 24
    1800:	88 60       	ori	r24, 0x08	; 8
    1802:	88 bb       	out	0x18, r24	; 24
    1804:	08 95       	ret
	}
	else if (s == DISP) {
    1806:	82 30       	cpi	r24, 0x02	; 2
    1808:	51 f4       	brne	.+20     	; 0x181e <spi_select_slave+0x48>
		PORTB &= ~(1<<PB2);
    180a:	88 b3       	in	r24, 0x18	; 24
    180c:	8b 7f       	andi	r24, 0xFB	; 251
    180e:	88 bb       	out	0x18, r24	; 24
		PORTB |= (1<<PB3);
    1810:	88 b3       	in	r24, 0x18	; 24
    1812:	88 60       	ori	r24, 0x08	; 8
    1814:	88 bb       	out	0x18, r24	; 24
		PORTB |= (1<<PB4);
    1816:	88 b3       	in	r24, 0x18	; 24
    1818:	80 61       	ori	r24, 0x10	; 16
    181a:	88 bb       	out	0x18, r24	; 24
    181c:	08 95       	ret
	}
	else {
		PORTB |= (1<<PB3);
    181e:	88 b3       	in	r24, 0x18	; 24
    1820:	88 60       	ori	r24, 0x08	; 8
    1822:	88 bb       	out	0x18, r24	; 24
		PORTB |= (1<<PB2);
    1824:	88 b3       	in	r24, 0x18	; 24
    1826:	84 60       	ori	r24, 0x04	; 4
    1828:	88 bb       	out	0x18, r24	; 24
		PORTB |= (1<<PB4);
    182a:	88 b3       	in	r24, 0x18	; 24
    182c:	80 61       	ori	r24, 0x10	; 16
    182e:	88 bb       	out	0x18, r24	; 24
    1830:	08 95       	ret

00001832 <spi_write_byte>:
	}
}

void spi_write_byte(uint8_t byte) {
	SPDR = byte; 
    1832:	8f b9       	out	0x0f, r24	; 15
	uint32_t limiter = 0;
    1834:	80 e0       	ldi	r24, 0x00	; 0
    1836:	90 e0       	ldi	r25, 0x00	; 0
    1838:	dc 01       	movw	r26, r24
	while(!(SPSR & (1<<SPIF)) && limiter < 100000) { limiter++; }
    183a:	03 c0       	rjmp	.+6      	; 0x1842 <spi_write_byte+0x10>
    183c:	01 96       	adiw	r24, 0x01	; 1
    183e:	a1 1d       	adc	r26, r1
    1840:	b1 1d       	adc	r27, r1
    1842:	77 99       	sbic	0x0e, 7	; 14
    1844:	07 c0       	rjmp	.+14     	; 0x1854 <spi_write_byte+0x22>
    1846:	80 3a       	cpi	r24, 0xA0	; 160
    1848:	26 e8       	ldi	r18, 0x86	; 134
    184a:	92 07       	cpc	r25, r18
    184c:	21 e0       	ldi	r18, 0x01	; 1
    184e:	a2 07       	cpc	r26, r18
    1850:	b1 05       	cpc	r27, r1
    1852:	a0 f3       	brcs	.-24     	; 0x183c <spi_write_byte+0xa>
    1854:	08 95       	ret

00001856 <spi_read_byte>:
}

uint8_t spi_read_byte(void) {
	uint32_t limiter = 0;
    1856:	80 e0       	ldi	r24, 0x00	; 0
    1858:	90 e0       	ldi	r25, 0x00	; 0
    185a:	dc 01       	movw	r26, r24
	while(!(SPSR & (1<<SPIF)) && limiter < 100000) { limiter++; }; 
    185c:	03 c0       	rjmp	.+6      	; 0x1864 <spi_read_byte+0xe>
    185e:	01 96       	adiw	r24, 0x01	; 1
    1860:	a1 1d       	adc	r26, r1
    1862:	b1 1d       	adc	r27, r1
    1864:	77 99       	sbic	0x0e, 7	; 14
    1866:	07 c0       	rjmp	.+14     	; 0x1876 <spi_read_byte+0x20>
    1868:	80 3a       	cpi	r24, 0xA0	; 160
    186a:	26 e8       	ldi	r18, 0x86	; 134
    186c:	92 07       	cpc	r25, r18
    186e:	21 e0       	ldi	r18, 0x01	; 1
    1870:	a2 07       	cpc	r26, r18
    1872:	b1 05       	cpc	r27, r1
    1874:	a0 f3       	brcs	.-24     	; 0x185e <spi_read_byte+0x8>
	if (limiter >= 100000) return 0;
    1876:	80 3a       	cpi	r24, 0xA0	; 160
    1878:	96 48       	sbci	r25, 0x86	; 134
    187a:	a1 40       	sbci	r26, 0x01	; 1
    187c:	b1 05       	cpc	r27, r1
    187e:	10 f4       	brcc	.+4      	; 0x1884 <spi_read_byte+0x2e>
	return SPDR; 
    1880:	8f b1       	in	r24, 0x0f	; 15
    1882:	08 95       	ret
}

uint8_t spi_read_byte(void) {
	uint32_t limiter = 0;
	while(!(SPSR & (1<<SPIF)) && limiter < 100000) { limiter++; }; 
	if (limiter >= 100000) return 0;
    1884:	80 e0       	ldi	r24, 0x00	; 0
	return SPDR; 
}
    1886:	08 95       	ret

00001888 <__vector_19>:
		*data = uart_rx_data;
		uart_rx_flag = 0;
		return 1; // success
	}
	return 0; // no data
}
    1888:	1f 92       	push	r1
    188a:	0f 92       	push	r0
    188c:	0f b6       	in	r0, 0x3f	; 63
    188e:	0f 92       	push	r0
    1890:	11 24       	eor	r1, r1
    1892:	8f 93       	push	r24
    1894:	8c b1       	in	r24, 0x0c	; 12
    1896:	80 93 b0 01 	sts	0x01B0, r24	; 0x8001b0 <uart_rx_data>
    189a:	81 e0       	ldi	r24, 0x01	; 1
    189c:	80 93 ac 01 	sts	0x01AC, r24	; 0x8001ac <uart_rx_flag>
    18a0:	8f 91       	pop	r24
    18a2:	0f 90       	pop	r0
    18a4:	0f be       	out	0x3f, r0	; 63
    18a6:	0f 90       	pop	r0
    18a8:	1f 90       	pop	r1
    18aa:	18 95       	reti

000018ac <uart_send_byte>:
    18ac:	5d 9b       	sbis	0x0b, 5	; 11
    18ae:	fe cf       	rjmp	.-4      	; 0x18ac <uart_send_byte>
    18b0:	8c b9       	out	0x0c, r24	; 12
    18b2:	08 95       	ret

000018b4 <uart_putchar>:
    18b4:	cf 93       	push	r28
    18b6:	c8 2f       	mov	r28, r24
    18b8:	8a 30       	cpi	r24, 0x0A	; 10
    18ba:	19 f4       	brne	.+6      	; 0x18c2 <uart_putchar+0xe>
    18bc:	8d e0       	ldi	r24, 0x0D	; 13
    18be:	0e 94 56 0c 	call	0x18ac	; 0x18ac <uart_send_byte>
    18c2:	8c 2f       	mov	r24, r28
    18c4:	0e 94 56 0c 	call	0x18ac	; 0x18ac <uart_send_byte>
    18c8:	80 e0       	ldi	r24, 0x00	; 0
    18ca:	90 e0       	ldi	r25, 0x00	; 0
    18cc:	cf 91       	pop	r28
    18ce:	08 95       	ret

000018d0 <uart_printf_init>:
	uart_send_byte(c);
	return 0;
}

void uart_printf_init() {
	stdout = &uart_output; // redirect printf to UART
    18d0:	81 e0       	ldi	r24, 0x01	; 1
    18d2:	91 e0       	ldi	r25, 0x01	; 1
    18d4:	90 93 b4 01 	sts	0x01B4, r25	; 0x8001b4 <__iob+0x3>
    18d8:	80 93 b3 01 	sts	0x01B3, r24	; 0x8001b3 <__iob+0x2>
    18dc:	08 95       	ret

000018de <uart_init>:
ISR(USART0_RXC_vect) {
	uart_rx_data = UDR0; // Read receive byte
	uart_rx_flag = 1;    // used by main program to check if data was received
}

void uart_init(uint32_t baudrate) {
    18de:	9b 01       	movw	r18, r22
    18e0:	ac 01       	movw	r20, r24
	uint16_t ubrr = F_CPU/16/baudrate - 1;
    18e2:	60 e0       	ldi	r22, 0x00	; 0
    18e4:	70 eb       	ldi	r23, 0xB0	; 176
    18e6:	84 e0       	ldi	r24, 0x04	; 4
    18e8:	90 e0       	ldi	r25, 0x00	; 0
    18ea:	0e 94 95 0c 	call	0x192a	; 0x192a <__udivmodsi4>
    18ee:	21 50       	subi	r18, 0x01	; 1
    18f0:	31 09       	sbc	r19, r1
	UBRR0H = (uint8_t)(ubrr >> 8);
    18f2:	30 bd       	out	0x20, r19	; 32
	UBRR0L = (uint8_t)(ubrr & 0xFF);
    18f4:	29 b9       	out	0x09, r18	; 9
	
	UCSR0B = (1 << RXEN0) | (1 << TXEN0) | (1 << RXCIE0); // Enable Rx, Tx, and Rx interrupt
    18f6:	88 e9       	ldi	r24, 0x98	; 152
    18f8:	8a b9       	out	0x0a, r24	; 10
	UCSR0C = (1 << URSEL0) | (1 << UCSZ01) | (1 << UCSZ00); // Set length of data to 8 bits, no parity, one stop bit
    18fa:	86 e8       	ldi	r24, 0x86	; 134
    18fc:	80 bd       	out	0x20, r24	; 32
	
	uart_printf_init();
    18fe:	0e 94 68 0c 	call	0x18d0	; 0x18d0 <uart_printf_init>
	printf("\n");
    1902:	8a e0       	ldi	r24, 0x0A	; 10
    1904:	90 e0       	ldi	r25, 0x00	; 0
    1906:	0e 94 b7 0c 	call	0x196e	; 0x196e <putchar>
    190a:	08 95       	ret

0000190c <xmem_init>:
#include "xmem.h"

#define BASE_ADDRESS 0x1400

void xmem_init(void) {
	MCUCR |= (1 << SRE);	// Enable XMEM
    190c:	85 b7       	in	r24, 0x35	; 53
    190e:	80 68       	ori	r24, 0x80	; 128
    1910:	85 bf       	out	0x35, r24	; 53
	SFIOR |= (1 << XMM0);   // mask bits to reduce bus width (leaving JTAG alone)
    1912:	80 b7       	in	r24, 0x30	; 48
    1914:	88 60       	ori	r24, 0x08	; 8
    1916:	80 bf       	out	0x30, r24	; 48
    1918:	08 95       	ret

0000191a <xmem_write>:
}

void xmem_write(uint8_t data, uint16_t addr) {
	volatile char *ext_mem = (char *) BASE_ADDRESS;
	ext_mem[addr] = data;
    191a:	fb 01       	movw	r30, r22
    191c:	fc 5e       	subi	r31, 0xEC	; 236
    191e:	80 83       	st	Z, r24
    1920:	08 95       	ret

00001922 <xmem_read>:
}

uint8_t xmem_read(uint16_t addr) {
	volatile char * ext_mem = ( char *) BASE_ADDRESS ;
	uint8_t ret_val = ext_mem [ addr ];
    1922:	9c 5e       	subi	r25, 0xEC	; 236
    1924:	fc 01       	movw	r30, r24
    1926:	80 81       	ld	r24, Z
	return ret_val ;
    1928:	08 95       	ret

0000192a <__udivmodsi4>:
    192a:	a1 e2       	ldi	r26, 0x21	; 33
    192c:	1a 2e       	mov	r1, r26
    192e:	aa 1b       	sub	r26, r26
    1930:	bb 1b       	sub	r27, r27
    1932:	fd 01       	movw	r30, r26
    1934:	0d c0       	rjmp	.+26     	; 0x1950 <__udivmodsi4_ep>

00001936 <__udivmodsi4_loop>:
    1936:	aa 1f       	adc	r26, r26
    1938:	bb 1f       	adc	r27, r27
    193a:	ee 1f       	adc	r30, r30
    193c:	ff 1f       	adc	r31, r31
    193e:	a2 17       	cp	r26, r18
    1940:	b3 07       	cpc	r27, r19
    1942:	e4 07       	cpc	r30, r20
    1944:	f5 07       	cpc	r31, r21
    1946:	20 f0       	brcs	.+8      	; 0x1950 <__udivmodsi4_ep>
    1948:	a2 1b       	sub	r26, r18
    194a:	b3 0b       	sbc	r27, r19
    194c:	e4 0b       	sbc	r30, r20
    194e:	f5 0b       	sbc	r31, r21

00001950 <__udivmodsi4_ep>:
    1950:	66 1f       	adc	r22, r22
    1952:	77 1f       	adc	r23, r23
    1954:	88 1f       	adc	r24, r24
    1956:	99 1f       	adc	r25, r25
    1958:	1a 94       	dec	r1
    195a:	69 f7       	brne	.-38     	; 0x1936 <__udivmodsi4_loop>
    195c:	60 95       	com	r22
    195e:	70 95       	com	r23
    1960:	80 95       	com	r24
    1962:	90 95       	com	r25
    1964:	9b 01       	movw	r18, r22
    1966:	ac 01       	movw	r20, r24
    1968:	bd 01       	movw	r22, r26
    196a:	cf 01       	movw	r24, r30
    196c:	08 95       	ret

0000196e <putchar>:
    196e:	60 91 b3 01 	lds	r22, 0x01B3	; 0x8001b3 <__iob+0x2>
    1972:	70 91 b4 01 	lds	r23, 0x01B4	; 0x8001b4 <__iob+0x3>
    1976:	0e 94 07 0f 	call	0x1e0e	; 0x1e0e <fputc>
    197a:	08 95       	ret

0000197c <puts>:
    197c:	0f 93       	push	r16
    197e:	1f 93       	push	r17
    1980:	cf 93       	push	r28
    1982:	df 93       	push	r29
    1984:	e0 91 b3 01 	lds	r30, 0x01B3	; 0x8001b3 <__iob+0x2>
    1988:	f0 91 b4 01 	lds	r31, 0x01B4	; 0x8001b4 <__iob+0x3>
    198c:	23 81       	ldd	r18, Z+3	; 0x03
    198e:	21 ff       	sbrs	r18, 1
    1990:	1b c0       	rjmp	.+54     	; 0x19c8 <puts+0x4c>
    1992:	8c 01       	movw	r16, r24
    1994:	d0 e0       	ldi	r29, 0x00	; 0
    1996:	c0 e0       	ldi	r28, 0x00	; 0
    1998:	f8 01       	movw	r30, r16
    199a:	81 91       	ld	r24, Z+
    199c:	8f 01       	movw	r16, r30
    199e:	60 91 b3 01 	lds	r22, 0x01B3	; 0x8001b3 <__iob+0x2>
    19a2:	70 91 b4 01 	lds	r23, 0x01B4	; 0x8001b4 <__iob+0x3>
    19a6:	db 01       	movw	r26, r22
    19a8:	18 96       	adiw	r26, 0x08	; 8
    19aa:	ed 91       	ld	r30, X+
    19ac:	fc 91       	ld	r31, X
    19ae:	19 97       	sbiw	r26, 0x09	; 9
    19b0:	88 23       	and	r24, r24
    19b2:	31 f0       	breq	.+12     	; 0x19c0 <puts+0x44>
    19b4:	09 95       	icall
    19b6:	89 2b       	or	r24, r25
    19b8:	79 f3       	breq	.-34     	; 0x1998 <puts+0x1c>
    19ba:	df ef       	ldi	r29, 0xFF	; 255
    19bc:	cf ef       	ldi	r28, 0xFF	; 255
    19be:	ec cf       	rjmp	.-40     	; 0x1998 <puts+0x1c>
    19c0:	8a e0       	ldi	r24, 0x0A	; 10
    19c2:	09 95       	icall
    19c4:	89 2b       	or	r24, r25
    19c6:	19 f0       	breq	.+6      	; 0x19ce <puts+0x52>
    19c8:	8f ef       	ldi	r24, 0xFF	; 255
    19ca:	9f ef       	ldi	r25, 0xFF	; 255
    19cc:	02 c0       	rjmp	.+4      	; 0x19d2 <puts+0x56>
    19ce:	8d 2f       	mov	r24, r29
    19d0:	9c 2f       	mov	r25, r28
    19d2:	df 91       	pop	r29
    19d4:	cf 91       	pop	r28
    19d6:	1f 91       	pop	r17
    19d8:	0f 91       	pop	r16
    19da:	08 95       	ret

000019dc <sprintf>:
    19dc:	ae e0       	ldi	r26, 0x0E	; 14
    19de:	b0 e0       	ldi	r27, 0x00	; 0
    19e0:	e4 ef       	ldi	r30, 0xF4	; 244
    19e2:	fc e0       	ldi	r31, 0x0C	; 12
    19e4:	0c 94 af 0f 	jmp	0x1f5e	; 0x1f5e <__prologue_saves__+0x1c>
    19e8:	0d 89       	ldd	r16, Y+21	; 0x15
    19ea:	1e 89       	ldd	r17, Y+22	; 0x16
    19ec:	86 e0       	ldi	r24, 0x06	; 6
    19ee:	8c 83       	std	Y+4, r24	; 0x04
    19f0:	1a 83       	std	Y+2, r17	; 0x02
    19f2:	09 83       	std	Y+1, r16	; 0x01
    19f4:	8f ef       	ldi	r24, 0xFF	; 255
    19f6:	9f e7       	ldi	r25, 0x7F	; 127
    19f8:	9e 83       	std	Y+6, r25	; 0x06
    19fa:	8d 83       	std	Y+5, r24	; 0x05
    19fc:	ae 01       	movw	r20, r28
    19fe:	47 5e       	subi	r20, 0xE7	; 231
    1a00:	5f 4f       	sbci	r21, 0xFF	; 255
    1a02:	6f 89       	ldd	r22, Y+23	; 0x17
    1a04:	78 8d       	ldd	r23, Y+24	; 0x18
    1a06:	ce 01       	movw	r24, r28
    1a08:	01 96       	adiw	r24, 0x01	; 1
    1a0a:	0e 94 10 0d 	call	0x1a20	; 0x1a20 <vfprintf>
    1a0e:	ef 81       	ldd	r30, Y+7	; 0x07
    1a10:	f8 85       	ldd	r31, Y+8	; 0x08
    1a12:	e0 0f       	add	r30, r16
    1a14:	f1 1f       	adc	r31, r17
    1a16:	10 82       	st	Z, r1
    1a18:	2e 96       	adiw	r28, 0x0e	; 14
    1a1a:	e4 e0       	ldi	r30, 0x04	; 4
    1a1c:	0c 94 cb 0f 	jmp	0x1f96	; 0x1f96 <__epilogue_restores__+0x1c>

00001a20 <vfprintf>:
    1a20:	ab e0       	ldi	r26, 0x0B	; 11
    1a22:	b0 e0       	ldi	r27, 0x00	; 0
    1a24:	e6 e1       	ldi	r30, 0x16	; 22
    1a26:	fd e0       	ldi	r31, 0x0D	; 13
    1a28:	0c 94 a1 0f 	jmp	0x1f42	; 0x1f42 <__prologue_saves__>
    1a2c:	6c 01       	movw	r12, r24
    1a2e:	7b 01       	movw	r14, r22
    1a30:	8a 01       	movw	r16, r20
    1a32:	fc 01       	movw	r30, r24
    1a34:	17 82       	std	Z+7, r1	; 0x07
    1a36:	16 82       	std	Z+6, r1	; 0x06
    1a38:	83 81       	ldd	r24, Z+3	; 0x03
    1a3a:	81 ff       	sbrs	r24, 1
    1a3c:	cc c1       	rjmp	.+920    	; 0x1dd6 <vfprintf+0x3b6>
    1a3e:	ce 01       	movw	r24, r28
    1a40:	01 96       	adiw	r24, 0x01	; 1
    1a42:	3c 01       	movw	r6, r24
    1a44:	f6 01       	movw	r30, r12
    1a46:	93 81       	ldd	r25, Z+3	; 0x03
    1a48:	f7 01       	movw	r30, r14
    1a4a:	93 fd       	sbrc	r25, 3
    1a4c:	85 91       	lpm	r24, Z+
    1a4e:	93 ff       	sbrs	r25, 3
    1a50:	81 91       	ld	r24, Z+
    1a52:	7f 01       	movw	r14, r30
    1a54:	88 23       	and	r24, r24
    1a56:	09 f4       	brne	.+2      	; 0x1a5a <vfprintf+0x3a>
    1a58:	ba c1       	rjmp	.+884    	; 0x1dce <vfprintf+0x3ae>
    1a5a:	85 32       	cpi	r24, 0x25	; 37
    1a5c:	39 f4       	brne	.+14     	; 0x1a6c <vfprintf+0x4c>
    1a5e:	93 fd       	sbrc	r25, 3
    1a60:	85 91       	lpm	r24, Z+
    1a62:	93 ff       	sbrs	r25, 3
    1a64:	81 91       	ld	r24, Z+
    1a66:	7f 01       	movw	r14, r30
    1a68:	85 32       	cpi	r24, 0x25	; 37
    1a6a:	29 f4       	brne	.+10     	; 0x1a76 <vfprintf+0x56>
    1a6c:	b6 01       	movw	r22, r12
    1a6e:	90 e0       	ldi	r25, 0x00	; 0
    1a70:	0e 94 07 0f 	call	0x1e0e	; 0x1e0e <fputc>
    1a74:	e7 cf       	rjmp	.-50     	; 0x1a44 <vfprintf+0x24>
    1a76:	91 2c       	mov	r9, r1
    1a78:	21 2c       	mov	r2, r1
    1a7a:	31 2c       	mov	r3, r1
    1a7c:	ff e1       	ldi	r31, 0x1F	; 31
    1a7e:	f3 15       	cp	r31, r3
    1a80:	d8 f0       	brcs	.+54     	; 0x1ab8 <vfprintf+0x98>
    1a82:	8b 32       	cpi	r24, 0x2B	; 43
    1a84:	79 f0       	breq	.+30     	; 0x1aa4 <vfprintf+0x84>
    1a86:	38 f4       	brcc	.+14     	; 0x1a96 <vfprintf+0x76>
    1a88:	80 32       	cpi	r24, 0x20	; 32
    1a8a:	79 f0       	breq	.+30     	; 0x1aaa <vfprintf+0x8a>
    1a8c:	83 32       	cpi	r24, 0x23	; 35
    1a8e:	a1 f4       	brne	.+40     	; 0x1ab8 <vfprintf+0x98>
    1a90:	23 2d       	mov	r18, r3
    1a92:	20 61       	ori	r18, 0x10	; 16
    1a94:	1d c0       	rjmp	.+58     	; 0x1ad0 <vfprintf+0xb0>
    1a96:	8d 32       	cpi	r24, 0x2D	; 45
    1a98:	61 f0       	breq	.+24     	; 0x1ab2 <vfprintf+0x92>
    1a9a:	80 33       	cpi	r24, 0x30	; 48
    1a9c:	69 f4       	brne	.+26     	; 0x1ab8 <vfprintf+0x98>
    1a9e:	23 2d       	mov	r18, r3
    1aa0:	21 60       	ori	r18, 0x01	; 1
    1aa2:	16 c0       	rjmp	.+44     	; 0x1ad0 <vfprintf+0xb0>
    1aa4:	83 2d       	mov	r24, r3
    1aa6:	82 60       	ori	r24, 0x02	; 2
    1aa8:	38 2e       	mov	r3, r24
    1aaa:	e3 2d       	mov	r30, r3
    1aac:	e4 60       	ori	r30, 0x04	; 4
    1aae:	3e 2e       	mov	r3, r30
    1ab0:	2a c0       	rjmp	.+84     	; 0x1b06 <vfprintf+0xe6>
    1ab2:	f3 2d       	mov	r31, r3
    1ab4:	f8 60       	ori	r31, 0x08	; 8
    1ab6:	1d c0       	rjmp	.+58     	; 0x1af2 <vfprintf+0xd2>
    1ab8:	37 fc       	sbrc	r3, 7
    1aba:	2d c0       	rjmp	.+90     	; 0x1b16 <vfprintf+0xf6>
    1abc:	20 ed       	ldi	r18, 0xD0	; 208
    1abe:	28 0f       	add	r18, r24
    1ac0:	2a 30       	cpi	r18, 0x0A	; 10
    1ac2:	40 f0       	brcs	.+16     	; 0x1ad4 <vfprintf+0xb4>
    1ac4:	8e 32       	cpi	r24, 0x2E	; 46
    1ac6:	b9 f4       	brne	.+46     	; 0x1af6 <vfprintf+0xd6>
    1ac8:	36 fc       	sbrc	r3, 6
    1aca:	81 c1       	rjmp	.+770    	; 0x1dce <vfprintf+0x3ae>
    1acc:	23 2d       	mov	r18, r3
    1ace:	20 64       	ori	r18, 0x40	; 64
    1ad0:	32 2e       	mov	r3, r18
    1ad2:	19 c0       	rjmp	.+50     	; 0x1b06 <vfprintf+0xe6>
    1ad4:	36 fe       	sbrs	r3, 6
    1ad6:	06 c0       	rjmp	.+12     	; 0x1ae4 <vfprintf+0xc4>
    1ad8:	8a e0       	ldi	r24, 0x0A	; 10
    1ada:	98 9e       	mul	r9, r24
    1adc:	20 0d       	add	r18, r0
    1ade:	11 24       	eor	r1, r1
    1ae0:	92 2e       	mov	r9, r18
    1ae2:	11 c0       	rjmp	.+34     	; 0x1b06 <vfprintf+0xe6>
    1ae4:	ea e0       	ldi	r30, 0x0A	; 10
    1ae6:	2e 9e       	mul	r2, r30
    1ae8:	20 0d       	add	r18, r0
    1aea:	11 24       	eor	r1, r1
    1aec:	22 2e       	mov	r2, r18
    1aee:	f3 2d       	mov	r31, r3
    1af0:	f0 62       	ori	r31, 0x20	; 32
    1af2:	3f 2e       	mov	r3, r31
    1af4:	08 c0       	rjmp	.+16     	; 0x1b06 <vfprintf+0xe6>
    1af6:	8c 36       	cpi	r24, 0x6C	; 108
    1af8:	21 f4       	brne	.+8      	; 0x1b02 <vfprintf+0xe2>
    1afa:	83 2d       	mov	r24, r3
    1afc:	80 68       	ori	r24, 0x80	; 128
    1afe:	38 2e       	mov	r3, r24
    1b00:	02 c0       	rjmp	.+4      	; 0x1b06 <vfprintf+0xe6>
    1b02:	88 36       	cpi	r24, 0x68	; 104
    1b04:	41 f4       	brne	.+16     	; 0x1b16 <vfprintf+0xf6>
    1b06:	f7 01       	movw	r30, r14
    1b08:	93 fd       	sbrc	r25, 3
    1b0a:	85 91       	lpm	r24, Z+
    1b0c:	93 ff       	sbrs	r25, 3
    1b0e:	81 91       	ld	r24, Z+
    1b10:	7f 01       	movw	r14, r30
    1b12:	81 11       	cpse	r24, r1
    1b14:	b3 cf       	rjmp	.-154    	; 0x1a7c <vfprintf+0x5c>
    1b16:	98 2f       	mov	r25, r24
    1b18:	9f 7d       	andi	r25, 0xDF	; 223
    1b1a:	95 54       	subi	r25, 0x45	; 69
    1b1c:	93 30       	cpi	r25, 0x03	; 3
    1b1e:	28 f4       	brcc	.+10     	; 0x1b2a <vfprintf+0x10a>
    1b20:	0c 5f       	subi	r16, 0xFC	; 252
    1b22:	1f 4f       	sbci	r17, 0xFF	; 255
    1b24:	9f e3       	ldi	r25, 0x3F	; 63
    1b26:	99 83       	std	Y+1, r25	; 0x01
    1b28:	0d c0       	rjmp	.+26     	; 0x1b44 <vfprintf+0x124>
    1b2a:	83 36       	cpi	r24, 0x63	; 99
    1b2c:	31 f0       	breq	.+12     	; 0x1b3a <vfprintf+0x11a>
    1b2e:	83 37       	cpi	r24, 0x73	; 115
    1b30:	71 f0       	breq	.+28     	; 0x1b4e <vfprintf+0x12e>
    1b32:	83 35       	cpi	r24, 0x53	; 83
    1b34:	09 f0       	breq	.+2      	; 0x1b38 <vfprintf+0x118>
    1b36:	59 c0       	rjmp	.+178    	; 0x1bea <vfprintf+0x1ca>
    1b38:	21 c0       	rjmp	.+66     	; 0x1b7c <vfprintf+0x15c>
    1b3a:	f8 01       	movw	r30, r16
    1b3c:	80 81       	ld	r24, Z
    1b3e:	89 83       	std	Y+1, r24	; 0x01
    1b40:	0e 5f       	subi	r16, 0xFE	; 254
    1b42:	1f 4f       	sbci	r17, 0xFF	; 255
    1b44:	88 24       	eor	r8, r8
    1b46:	83 94       	inc	r8
    1b48:	91 2c       	mov	r9, r1
    1b4a:	53 01       	movw	r10, r6
    1b4c:	13 c0       	rjmp	.+38     	; 0x1b74 <vfprintf+0x154>
    1b4e:	28 01       	movw	r4, r16
    1b50:	f2 e0       	ldi	r31, 0x02	; 2
    1b52:	4f 0e       	add	r4, r31
    1b54:	51 1c       	adc	r5, r1
    1b56:	f8 01       	movw	r30, r16
    1b58:	a0 80       	ld	r10, Z
    1b5a:	b1 80       	ldd	r11, Z+1	; 0x01
    1b5c:	36 fe       	sbrs	r3, 6
    1b5e:	03 c0       	rjmp	.+6      	; 0x1b66 <vfprintf+0x146>
    1b60:	69 2d       	mov	r22, r9
    1b62:	70 e0       	ldi	r23, 0x00	; 0
    1b64:	02 c0       	rjmp	.+4      	; 0x1b6a <vfprintf+0x14a>
    1b66:	6f ef       	ldi	r22, 0xFF	; 255
    1b68:	7f ef       	ldi	r23, 0xFF	; 255
    1b6a:	c5 01       	movw	r24, r10
    1b6c:	0e 94 fc 0e 	call	0x1df8	; 0x1df8 <strnlen>
    1b70:	4c 01       	movw	r8, r24
    1b72:	82 01       	movw	r16, r4
    1b74:	f3 2d       	mov	r31, r3
    1b76:	ff 77       	andi	r31, 0x7F	; 127
    1b78:	3f 2e       	mov	r3, r31
    1b7a:	16 c0       	rjmp	.+44     	; 0x1ba8 <vfprintf+0x188>
    1b7c:	28 01       	movw	r4, r16
    1b7e:	22 e0       	ldi	r18, 0x02	; 2
    1b80:	42 0e       	add	r4, r18
    1b82:	51 1c       	adc	r5, r1
    1b84:	f8 01       	movw	r30, r16
    1b86:	a0 80       	ld	r10, Z
    1b88:	b1 80       	ldd	r11, Z+1	; 0x01
    1b8a:	36 fe       	sbrs	r3, 6
    1b8c:	03 c0       	rjmp	.+6      	; 0x1b94 <vfprintf+0x174>
    1b8e:	69 2d       	mov	r22, r9
    1b90:	70 e0       	ldi	r23, 0x00	; 0
    1b92:	02 c0       	rjmp	.+4      	; 0x1b98 <vfprintf+0x178>
    1b94:	6f ef       	ldi	r22, 0xFF	; 255
    1b96:	7f ef       	ldi	r23, 0xFF	; 255
    1b98:	c5 01       	movw	r24, r10
    1b9a:	0e 94 f1 0e 	call	0x1de2	; 0x1de2 <strnlen_P>
    1b9e:	4c 01       	movw	r8, r24
    1ba0:	f3 2d       	mov	r31, r3
    1ba2:	f0 68       	ori	r31, 0x80	; 128
    1ba4:	3f 2e       	mov	r3, r31
    1ba6:	82 01       	movw	r16, r4
    1ba8:	33 fc       	sbrc	r3, 3
    1baa:	1b c0       	rjmp	.+54     	; 0x1be2 <vfprintf+0x1c2>
    1bac:	82 2d       	mov	r24, r2
    1bae:	90 e0       	ldi	r25, 0x00	; 0
    1bb0:	88 16       	cp	r8, r24
    1bb2:	99 06       	cpc	r9, r25
    1bb4:	b0 f4       	brcc	.+44     	; 0x1be2 <vfprintf+0x1c2>
    1bb6:	b6 01       	movw	r22, r12
    1bb8:	80 e2       	ldi	r24, 0x20	; 32
    1bba:	90 e0       	ldi	r25, 0x00	; 0
    1bbc:	0e 94 07 0f 	call	0x1e0e	; 0x1e0e <fputc>
    1bc0:	2a 94       	dec	r2
    1bc2:	f4 cf       	rjmp	.-24     	; 0x1bac <vfprintf+0x18c>
    1bc4:	f5 01       	movw	r30, r10
    1bc6:	37 fc       	sbrc	r3, 7
    1bc8:	85 91       	lpm	r24, Z+
    1bca:	37 fe       	sbrs	r3, 7
    1bcc:	81 91       	ld	r24, Z+
    1bce:	5f 01       	movw	r10, r30
    1bd0:	b6 01       	movw	r22, r12
    1bd2:	90 e0       	ldi	r25, 0x00	; 0
    1bd4:	0e 94 07 0f 	call	0x1e0e	; 0x1e0e <fputc>
    1bd8:	21 10       	cpse	r2, r1
    1bda:	2a 94       	dec	r2
    1bdc:	21 e0       	ldi	r18, 0x01	; 1
    1bde:	82 1a       	sub	r8, r18
    1be0:	91 08       	sbc	r9, r1
    1be2:	81 14       	cp	r8, r1
    1be4:	91 04       	cpc	r9, r1
    1be6:	71 f7       	brne	.-36     	; 0x1bc4 <vfprintf+0x1a4>
    1be8:	e8 c0       	rjmp	.+464    	; 0x1dba <vfprintf+0x39a>
    1bea:	84 36       	cpi	r24, 0x64	; 100
    1bec:	11 f0       	breq	.+4      	; 0x1bf2 <vfprintf+0x1d2>
    1bee:	89 36       	cpi	r24, 0x69	; 105
    1bf0:	41 f5       	brne	.+80     	; 0x1c42 <vfprintf+0x222>
    1bf2:	f8 01       	movw	r30, r16
    1bf4:	37 fe       	sbrs	r3, 7
    1bf6:	07 c0       	rjmp	.+14     	; 0x1c06 <vfprintf+0x1e6>
    1bf8:	60 81       	ld	r22, Z
    1bfa:	71 81       	ldd	r23, Z+1	; 0x01
    1bfc:	82 81       	ldd	r24, Z+2	; 0x02
    1bfe:	93 81       	ldd	r25, Z+3	; 0x03
    1c00:	0c 5f       	subi	r16, 0xFC	; 252
    1c02:	1f 4f       	sbci	r17, 0xFF	; 255
    1c04:	08 c0       	rjmp	.+16     	; 0x1c16 <vfprintf+0x1f6>
    1c06:	60 81       	ld	r22, Z
    1c08:	71 81       	ldd	r23, Z+1	; 0x01
    1c0a:	07 2e       	mov	r0, r23
    1c0c:	00 0c       	add	r0, r0
    1c0e:	88 0b       	sbc	r24, r24
    1c10:	99 0b       	sbc	r25, r25
    1c12:	0e 5f       	subi	r16, 0xFE	; 254
    1c14:	1f 4f       	sbci	r17, 0xFF	; 255
    1c16:	f3 2d       	mov	r31, r3
    1c18:	ff 76       	andi	r31, 0x6F	; 111
    1c1a:	3f 2e       	mov	r3, r31
    1c1c:	97 ff       	sbrs	r25, 7
    1c1e:	09 c0       	rjmp	.+18     	; 0x1c32 <vfprintf+0x212>
    1c20:	90 95       	com	r25
    1c22:	80 95       	com	r24
    1c24:	70 95       	com	r23
    1c26:	61 95       	neg	r22
    1c28:	7f 4f       	sbci	r23, 0xFF	; 255
    1c2a:	8f 4f       	sbci	r24, 0xFF	; 255
    1c2c:	9f 4f       	sbci	r25, 0xFF	; 255
    1c2e:	f0 68       	ori	r31, 0x80	; 128
    1c30:	3f 2e       	mov	r3, r31
    1c32:	2a e0       	ldi	r18, 0x0A	; 10
    1c34:	30 e0       	ldi	r19, 0x00	; 0
    1c36:	a3 01       	movw	r20, r6
    1c38:	0e 94 43 0f 	call	0x1e86	; 0x1e86 <__ultoa_invert>
    1c3c:	88 2e       	mov	r8, r24
    1c3e:	86 18       	sub	r8, r6
    1c40:	45 c0       	rjmp	.+138    	; 0x1ccc <vfprintf+0x2ac>
    1c42:	85 37       	cpi	r24, 0x75	; 117
    1c44:	31 f4       	brne	.+12     	; 0x1c52 <vfprintf+0x232>
    1c46:	23 2d       	mov	r18, r3
    1c48:	2f 7e       	andi	r18, 0xEF	; 239
    1c4a:	b2 2e       	mov	r11, r18
    1c4c:	2a e0       	ldi	r18, 0x0A	; 10
    1c4e:	30 e0       	ldi	r19, 0x00	; 0
    1c50:	25 c0       	rjmp	.+74     	; 0x1c9c <vfprintf+0x27c>
    1c52:	93 2d       	mov	r25, r3
    1c54:	99 7f       	andi	r25, 0xF9	; 249
    1c56:	b9 2e       	mov	r11, r25
    1c58:	8f 36       	cpi	r24, 0x6F	; 111
    1c5a:	c1 f0       	breq	.+48     	; 0x1c8c <vfprintf+0x26c>
    1c5c:	18 f4       	brcc	.+6      	; 0x1c64 <vfprintf+0x244>
    1c5e:	88 35       	cpi	r24, 0x58	; 88
    1c60:	79 f0       	breq	.+30     	; 0x1c80 <vfprintf+0x260>
    1c62:	b5 c0       	rjmp	.+362    	; 0x1dce <vfprintf+0x3ae>
    1c64:	80 37       	cpi	r24, 0x70	; 112
    1c66:	19 f0       	breq	.+6      	; 0x1c6e <vfprintf+0x24e>
    1c68:	88 37       	cpi	r24, 0x78	; 120
    1c6a:	21 f0       	breq	.+8      	; 0x1c74 <vfprintf+0x254>
    1c6c:	b0 c0       	rjmp	.+352    	; 0x1dce <vfprintf+0x3ae>
    1c6e:	e9 2f       	mov	r30, r25
    1c70:	e0 61       	ori	r30, 0x10	; 16
    1c72:	be 2e       	mov	r11, r30
    1c74:	b4 fe       	sbrs	r11, 4
    1c76:	0d c0       	rjmp	.+26     	; 0x1c92 <vfprintf+0x272>
    1c78:	fb 2d       	mov	r31, r11
    1c7a:	f4 60       	ori	r31, 0x04	; 4
    1c7c:	bf 2e       	mov	r11, r31
    1c7e:	09 c0       	rjmp	.+18     	; 0x1c92 <vfprintf+0x272>
    1c80:	34 fe       	sbrs	r3, 4
    1c82:	0a c0       	rjmp	.+20     	; 0x1c98 <vfprintf+0x278>
    1c84:	29 2f       	mov	r18, r25
    1c86:	26 60       	ori	r18, 0x06	; 6
    1c88:	b2 2e       	mov	r11, r18
    1c8a:	06 c0       	rjmp	.+12     	; 0x1c98 <vfprintf+0x278>
    1c8c:	28 e0       	ldi	r18, 0x08	; 8
    1c8e:	30 e0       	ldi	r19, 0x00	; 0
    1c90:	05 c0       	rjmp	.+10     	; 0x1c9c <vfprintf+0x27c>
    1c92:	20 e1       	ldi	r18, 0x10	; 16
    1c94:	30 e0       	ldi	r19, 0x00	; 0
    1c96:	02 c0       	rjmp	.+4      	; 0x1c9c <vfprintf+0x27c>
    1c98:	20 e1       	ldi	r18, 0x10	; 16
    1c9a:	32 e0       	ldi	r19, 0x02	; 2
    1c9c:	f8 01       	movw	r30, r16
    1c9e:	b7 fe       	sbrs	r11, 7
    1ca0:	07 c0       	rjmp	.+14     	; 0x1cb0 <vfprintf+0x290>
    1ca2:	60 81       	ld	r22, Z
    1ca4:	71 81       	ldd	r23, Z+1	; 0x01
    1ca6:	82 81       	ldd	r24, Z+2	; 0x02
    1ca8:	93 81       	ldd	r25, Z+3	; 0x03
    1caa:	0c 5f       	subi	r16, 0xFC	; 252
    1cac:	1f 4f       	sbci	r17, 0xFF	; 255
    1cae:	06 c0       	rjmp	.+12     	; 0x1cbc <vfprintf+0x29c>
    1cb0:	60 81       	ld	r22, Z
    1cb2:	71 81       	ldd	r23, Z+1	; 0x01
    1cb4:	80 e0       	ldi	r24, 0x00	; 0
    1cb6:	90 e0       	ldi	r25, 0x00	; 0
    1cb8:	0e 5f       	subi	r16, 0xFE	; 254
    1cba:	1f 4f       	sbci	r17, 0xFF	; 255
    1cbc:	a3 01       	movw	r20, r6
    1cbe:	0e 94 43 0f 	call	0x1e86	; 0x1e86 <__ultoa_invert>
    1cc2:	88 2e       	mov	r8, r24
    1cc4:	86 18       	sub	r8, r6
    1cc6:	fb 2d       	mov	r31, r11
    1cc8:	ff 77       	andi	r31, 0x7F	; 127
    1cca:	3f 2e       	mov	r3, r31
    1ccc:	36 fe       	sbrs	r3, 6
    1cce:	0d c0       	rjmp	.+26     	; 0x1cea <vfprintf+0x2ca>
    1cd0:	23 2d       	mov	r18, r3
    1cd2:	2e 7f       	andi	r18, 0xFE	; 254
    1cd4:	a2 2e       	mov	r10, r18
    1cd6:	89 14       	cp	r8, r9
    1cd8:	58 f4       	brcc	.+22     	; 0x1cf0 <vfprintf+0x2d0>
    1cda:	34 fe       	sbrs	r3, 4
    1cdc:	0b c0       	rjmp	.+22     	; 0x1cf4 <vfprintf+0x2d4>
    1cde:	32 fc       	sbrc	r3, 2
    1ce0:	09 c0       	rjmp	.+18     	; 0x1cf4 <vfprintf+0x2d4>
    1ce2:	83 2d       	mov	r24, r3
    1ce4:	8e 7e       	andi	r24, 0xEE	; 238
    1ce6:	a8 2e       	mov	r10, r24
    1ce8:	05 c0       	rjmp	.+10     	; 0x1cf4 <vfprintf+0x2d4>
    1cea:	b8 2c       	mov	r11, r8
    1cec:	a3 2c       	mov	r10, r3
    1cee:	03 c0       	rjmp	.+6      	; 0x1cf6 <vfprintf+0x2d6>
    1cf0:	b8 2c       	mov	r11, r8
    1cf2:	01 c0       	rjmp	.+2      	; 0x1cf6 <vfprintf+0x2d6>
    1cf4:	b9 2c       	mov	r11, r9
    1cf6:	a4 fe       	sbrs	r10, 4
    1cf8:	0f c0       	rjmp	.+30     	; 0x1d18 <vfprintf+0x2f8>
    1cfa:	fe 01       	movw	r30, r28
    1cfc:	e8 0d       	add	r30, r8
    1cfe:	f1 1d       	adc	r31, r1
    1d00:	80 81       	ld	r24, Z
    1d02:	80 33       	cpi	r24, 0x30	; 48
    1d04:	21 f4       	brne	.+8      	; 0x1d0e <vfprintf+0x2ee>
    1d06:	9a 2d       	mov	r25, r10
    1d08:	99 7e       	andi	r25, 0xE9	; 233
    1d0a:	a9 2e       	mov	r10, r25
    1d0c:	09 c0       	rjmp	.+18     	; 0x1d20 <vfprintf+0x300>
    1d0e:	a2 fe       	sbrs	r10, 2
    1d10:	06 c0       	rjmp	.+12     	; 0x1d1e <vfprintf+0x2fe>
    1d12:	b3 94       	inc	r11
    1d14:	b3 94       	inc	r11
    1d16:	04 c0       	rjmp	.+8      	; 0x1d20 <vfprintf+0x300>
    1d18:	8a 2d       	mov	r24, r10
    1d1a:	86 78       	andi	r24, 0x86	; 134
    1d1c:	09 f0       	breq	.+2      	; 0x1d20 <vfprintf+0x300>
    1d1e:	b3 94       	inc	r11
    1d20:	a3 fc       	sbrc	r10, 3
    1d22:	11 c0       	rjmp	.+34     	; 0x1d46 <vfprintf+0x326>
    1d24:	a0 fe       	sbrs	r10, 0
    1d26:	06 c0       	rjmp	.+12     	; 0x1d34 <vfprintf+0x314>
    1d28:	b2 14       	cp	r11, r2
    1d2a:	88 f4       	brcc	.+34     	; 0x1d4e <vfprintf+0x32e>
    1d2c:	28 0c       	add	r2, r8
    1d2e:	92 2c       	mov	r9, r2
    1d30:	9b 18       	sub	r9, r11
    1d32:	0e c0       	rjmp	.+28     	; 0x1d50 <vfprintf+0x330>
    1d34:	b2 14       	cp	r11, r2
    1d36:	60 f4       	brcc	.+24     	; 0x1d50 <vfprintf+0x330>
    1d38:	b6 01       	movw	r22, r12
    1d3a:	80 e2       	ldi	r24, 0x20	; 32
    1d3c:	90 e0       	ldi	r25, 0x00	; 0
    1d3e:	0e 94 07 0f 	call	0x1e0e	; 0x1e0e <fputc>
    1d42:	b3 94       	inc	r11
    1d44:	f7 cf       	rjmp	.-18     	; 0x1d34 <vfprintf+0x314>
    1d46:	b2 14       	cp	r11, r2
    1d48:	18 f4       	brcc	.+6      	; 0x1d50 <vfprintf+0x330>
    1d4a:	2b 18       	sub	r2, r11
    1d4c:	02 c0       	rjmp	.+4      	; 0x1d52 <vfprintf+0x332>
    1d4e:	98 2c       	mov	r9, r8
    1d50:	21 2c       	mov	r2, r1
    1d52:	a4 fe       	sbrs	r10, 4
    1d54:	10 c0       	rjmp	.+32     	; 0x1d76 <vfprintf+0x356>
    1d56:	b6 01       	movw	r22, r12
    1d58:	80 e3       	ldi	r24, 0x30	; 48
    1d5a:	90 e0       	ldi	r25, 0x00	; 0
    1d5c:	0e 94 07 0f 	call	0x1e0e	; 0x1e0e <fputc>
    1d60:	a2 fe       	sbrs	r10, 2
    1d62:	17 c0       	rjmp	.+46     	; 0x1d92 <vfprintf+0x372>
    1d64:	a1 fc       	sbrc	r10, 1
    1d66:	03 c0       	rjmp	.+6      	; 0x1d6e <vfprintf+0x34e>
    1d68:	88 e7       	ldi	r24, 0x78	; 120
    1d6a:	90 e0       	ldi	r25, 0x00	; 0
    1d6c:	02 c0       	rjmp	.+4      	; 0x1d72 <vfprintf+0x352>
    1d6e:	88 e5       	ldi	r24, 0x58	; 88
    1d70:	90 e0       	ldi	r25, 0x00	; 0
    1d72:	b6 01       	movw	r22, r12
    1d74:	0c c0       	rjmp	.+24     	; 0x1d8e <vfprintf+0x36e>
    1d76:	8a 2d       	mov	r24, r10
    1d78:	86 78       	andi	r24, 0x86	; 134
    1d7a:	59 f0       	breq	.+22     	; 0x1d92 <vfprintf+0x372>
    1d7c:	a1 fe       	sbrs	r10, 1
    1d7e:	02 c0       	rjmp	.+4      	; 0x1d84 <vfprintf+0x364>
    1d80:	8b e2       	ldi	r24, 0x2B	; 43
    1d82:	01 c0       	rjmp	.+2      	; 0x1d86 <vfprintf+0x366>
    1d84:	80 e2       	ldi	r24, 0x20	; 32
    1d86:	a7 fc       	sbrc	r10, 7
    1d88:	8d e2       	ldi	r24, 0x2D	; 45
    1d8a:	b6 01       	movw	r22, r12
    1d8c:	90 e0       	ldi	r25, 0x00	; 0
    1d8e:	0e 94 07 0f 	call	0x1e0e	; 0x1e0e <fputc>
    1d92:	89 14       	cp	r8, r9
    1d94:	38 f4       	brcc	.+14     	; 0x1da4 <vfprintf+0x384>
    1d96:	b6 01       	movw	r22, r12
    1d98:	80 e3       	ldi	r24, 0x30	; 48
    1d9a:	90 e0       	ldi	r25, 0x00	; 0
    1d9c:	0e 94 07 0f 	call	0x1e0e	; 0x1e0e <fputc>
    1da0:	9a 94       	dec	r9
    1da2:	f7 cf       	rjmp	.-18     	; 0x1d92 <vfprintf+0x372>
    1da4:	8a 94       	dec	r8
    1da6:	f3 01       	movw	r30, r6
    1da8:	e8 0d       	add	r30, r8
    1daa:	f1 1d       	adc	r31, r1
    1dac:	80 81       	ld	r24, Z
    1dae:	b6 01       	movw	r22, r12
    1db0:	90 e0       	ldi	r25, 0x00	; 0
    1db2:	0e 94 07 0f 	call	0x1e0e	; 0x1e0e <fputc>
    1db6:	81 10       	cpse	r8, r1
    1db8:	f5 cf       	rjmp	.-22     	; 0x1da4 <vfprintf+0x384>
    1dba:	22 20       	and	r2, r2
    1dbc:	09 f4       	brne	.+2      	; 0x1dc0 <vfprintf+0x3a0>
    1dbe:	42 ce       	rjmp	.-892    	; 0x1a44 <vfprintf+0x24>
    1dc0:	b6 01       	movw	r22, r12
    1dc2:	80 e2       	ldi	r24, 0x20	; 32
    1dc4:	90 e0       	ldi	r25, 0x00	; 0
    1dc6:	0e 94 07 0f 	call	0x1e0e	; 0x1e0e <fputc>
    1dca:	2a 94       	dec	r2
    1dcc:	f6 cf       	rjmp	.-20     	; 0x1dba <vfprintf+0x39a>
    1dce:	f6 01       	movw	r30, r12
    1dd0:	86 81       	ldd	r24, Z+6	; 0x06
    1dd2:	97 81       	ldd	r25, Z+7	; 0x07
    1dd4:	02 c0       	rjmp	.+4      	; 0x1dda <vfprintf+0x3ba>
    1dd6:	8f ef       	ldi	r24, 0xFF	; 255
    1dd8:	9f ef       	ldi	r25, 0xFF	; 255
    1dda:	2b 96       	adiw	r28, 0x0b	; 11
    1ddc:	e2 e1       	ldi	r30, 0x12	; 18
    1dde:	0c 94 bd 0f 	jmp	0x1f7a	; 0x1f7a <__epilogue_restores__>

00001de2 <strnlen_P>:
    1de2:	fc 01       	movw	r30, r24
    1de4:	05 90       	lpm	r0, Z+
    1de6:	61 50       	subi	r22, 0x01	; 1
    1de8:	70 40       	sbci	r23, 0x00	; 0
    1dea:	01 10       	cpse	r0, r1
    1dec:	d8 f7       	brcc	.-10     	; 0x1de4 <strnlen_P+0x2>
    1dee:	80 95       	com	r24
    1df0:	90 95       	com	r25
    1df2:	8e 0f       	add	r24, r30
    1df4:	9f 1f       	adc	r25, r31
    1df6:	08 95       	ret

00001df8 <strnlen>:
    1df8:	fc 01       	movw	r30, r24
    1dfa:	61 50       	subi	r22, 0x01	; 1
    1dfc:	70 40       	sbci	r23, 0x00	; 0
    1dfe:	01 90       	ld	r0, Z+
    1e00:	01 10       	cpse	r0, r1
    1e02:	d8 f7       	brcc	.-10     	; 0x1dfa <strnlen+0x2>
    1e04:	80 95       	com	r24
    1e06:	90 95       	com	r25
    1e08:	8e 0f       	add	r24, r30
    1e0a:	9f 1f       	adc	r25, r31
    1e0c:	08 95       	ret

00001e0e <fputc>:
    1e0e:	0f 93       	push	r16
    1e10:	1f 93       	push	r17
    1e12:	cf 93       	push	r28
    1e14:	df 93       	push	r29
    1e16:	fb 01       	movw	r30, r22
    1e18:	23 81       	ldd	r18, Z+3	; 0x03
    1e1a:	21 fd       	sbrc	r18, 1
    1e1c:	03 c0       	rjmp	.+6      	; 0x1e24 <fputc+0x16>
    1e1e:	8f ef       	ldi	r24, 0xFF	; 255
    1e20:	9f ef       	ldi	r25, 0xFF	; 255
    1e22:	2c c0       	rjmp	.+88     	; 0x1e7c <fputc+0x6e>
    1e24:	22 ff       	sbrs	r18, 2
    1e26:	16 c0       	rjmp	.+44     	; 0x1e54 <fputc+0x46>
    1e28:	46 81       	ldd	r20, Z+6	; 0x06
    1e2a:	57 81       	ldd	r21, Z+7	; 0x07
    1e2c:	24 81       	ldd	r18, Z+4	; 0x04
    1e2e:	35 81       	ldd	r19, Z+5	; 0x05
    1e30:	42 17       	cp	r20, r18
    1e32:	53 07       	cpc	r21, r19
    1e34:	44 f4       	brge	.+16     	; 0x1e46 <fputc+0x38>
    1e36:	a0 81       	ld	r26, Z
    1e38:	b1 81       	ldd	r27, Z+1	; 0x01
    1e3a:	9d 01       	movw	r18, r26
    1e3c:	2f 5f       	subi	r18, 0xFF	; 255
    1e3e:	3f 4f       	sbci	r19, 0xFF	; 255
    1e40:	31 83       	std	Z+1, r19	; 0x01
    1e42:	20 83       	st	Z, r18
    1e44:	8c 93       	st	X, r24
    1e46:	26 81       	ldd	r18, Z+6	; 0x06
    1e48:	37 81       	ldd	r19, Z+7	; 0x07
    1e4a:	2f 5f       	subi	r18, 0xFF	; 255
    1e4c:	3f 4f       	sbci	r19, 0xFF	; 255
    1e4e:	37 83       	std	Z+7, r19	; 0x07
    1e50:	26 83       	std	Z+6, r18	; 0x06
    1e52:	14 c0       	rjmp	.+40     	; 0x1e7c <fputc+0x6e>
    1e54:	8b 01       	movw	r16, r22
    1e56:	ec 01       	movw	r28, r24
    1e58:	fb 01       	movw	r30, r22
    1e5a:	00 84       	ldd	r0, Z+8	; 0x08
    1e5c:	f1 85       	ldd	r31, Z+9	; 0x09
    1e5e:	e0 2d       	mov	r30, r0
    1e60:	09 95       	icall
    1e62:	89 2b       	or	r24, r25
    1e64:	e1 f6       	brne	.-72     	; 0x1e1e <fputc+0x10>
    1e66:	d8 01       	movw	r26, r16
    1e68:	16 96       	adiw	r26, 0x06	; 6
    1e6a:	8d 91       	ld	r24, X+
    1e6c:	9c 91       	ld	r25, X
    1e6e:	17 97       	sbiw	r26, 0x07	; 7
    1e70:	01 96       	adiw	r24, 0x01	; 1
    1e72:	17 96       	adiw	r26, 0x07	; 7
    1e74:	9c 93       	st	X, r25
    1e76:	8e 93       	st	-X, r24
    1e78:	16 97       	sbiw	r26, 0x06	; 6
    1e7a:	ce 01       	movw	r24, r28
    1e7c:	df 91       	pop	r29
    1e7e:	cf 91       	pop	r28
    1e80:	1f 91       	pop	r17
    1e82:	0f 91       	pop	r16
    1e84:	08 95       	ret

00001e86 <__ultoa_invert>:
    1e86:	fa 01       	movw	r30, r20
    1e88:	aa 27       	eor	r26, r26
    1e8a:	28 30       	cpi	r18, 0x08	; 8
    1e8c:	51 f1       	breq	.+84     	; 0x1ee2 <__ultoa_invert+0x5c>
    1e8e:	20 31       	cpi	r18, 0x10	; 16
    1e90:	81 f1       	breq	.+96     	; 0x1ef2 <__ultoa_invert+0x6c>
    1e92:	e8 94       	clt
    1e94:	6f 93       	push	r22
    1e96:	6e 7f       	andi	r22, 0xFE	; 254
    1e98:	6e 5f       	subi	r22, 0xFE	; 254
    1e9a:	7f 4f       	sbci	r23, 0xFF	; 255
    1e9c:	8f 4f       	sbci	r24, 0xFF	; 255
    1e9e:	9f 4f       	sbci	r25, 0xFF	; 255
    1ea0:	af 4f       	sbci	r26, 0xFF	; 255
    1ea2:	b1 e0       	ldi	r27, 0x01	; 1
    1ea4:	3e d0       	rcall	.+124    	; 0x1f22 <__ultoa_invert+0x9c>
    1ea6:	b4 e0       	ldi	r27, 0x04	; 4
    1ea8:	3c d0       	rcall	.+120    	; 0x1f22 <__ultoa_invert+0x9c>
    1eaa:	67 0f       	add	r22, r23
    1eac:	78 1f       	adc	r23, r24
    1eae:	89 1f       	adc	r24, r25
    1eb0:	9a 1f       	adc	r25, r26
    1eb2:	a1 1d       	adc	r26, r1
    1eb4:	68 0f       	add	r22, r24
    1eb6:	79 1f       	adc	r23, r25
    1eb8:	8a 1f       	adc	r24, r26
    1eba:	91 1d       	adc	r25, r1
    1ebc:	a1 1d       	adc	r26, r1
    1ebe:	6a 0f       	add	r22, r26
    1ec0:	71 1d       	adc	r23, r1
    1ec2:	81 1d       	adc	r24, r1
    1ec4:	91 1d       	adc	r25, r1
    1ec6:	a1 1d       	adc	r26, r1
    1ec8:	20 d0       	rcall	.+64     	; 0x1f0a <__ultoa_invert+0x84>
    1eca:	09 f4       	brne	.+2      	; 0x1ece <__ultoa_invert+0x48>
    1ecc:	68 94       	set
    1ece:	3f 91       	pop	r19
    1ed0:	2a e0       	ldi	r18, 0x0A	; 10
    1ed2:	26 9f       	mul	r18, r22
    1ed4:	11 24       	eor	r1, r1
    1ed6:	30 19       	sub	r19, r0
    1ed8:	30 5d       	subi	r19, 0xD0	; 208
    1eda:	31 93       	st	Z+, r19
    1edc:	de f6       	brtc	.-74     	; 0x1e94 <__ultoa_invert+0xe>
    1ede:	cf 01       	movw	r24, r30
    1ee0:	08 95       	ret
    1ee2:	46 2f       	mov	r20, r22
    1ee4:	47 70       	andi	r20, 0x07	; 7
    1ee6:	40 5d       	subi	r20, 0xD0	; 208
    1ee8:	41 93       	st	Z+, r20
    1eea:	b3 e0       	ldi	r27, 0x03	; 3
    1eec:	0f d0       	rcall	.+30     	; 0x1f0c <__ultoa_invert+0x86>
    1eee:	c9 f7       	brne	.-14     	; 0x1ee2 <__ultoa_invert+0x5c>
    1ef0:	f6 cf       	rjmp	.-20     	; 0x1ede <__ultoa_invert+0x58>
    1ef2:	46 2f       	mov	r20, r22
    1ef4:	4f 70       	andi	r20, 0x0F	; 15
    1ef6:	40 5d       	subi	r20, 0xD0	; 208
    1ef8:	4a 33       	cpi	r20, 0x3A	; 58
    1efa:	18 f0       	brcs	.+6      	; 0x1f02 <__ultoa_invert+0x7c>
    1efc:	49 5d       	subi	r20, 0xD9	; 217
    1efe:	31 fd       	sbrc	r19, 1
    1f00:	40 52       	subi	r20, 0x20	; 32
    1f02:	41 93       	st	Z+, r20
    1f04:	02 d0       	rcall	.+4      	; 0x1f0a <__ultoa_invert+0x84>
    1f06:	a9 f7       	brne	.-22     	; 0x1ef2 <__ultoa_invert+0x6c>
    1f08:	ea cf       	rjmp	.-44     	; 0x1ede <__ultoa_invert+0x58>
    1f0a:	b4 e0       	ldi	r27, 0x04	; 4
    1f0c:	a6 95       	lsr	r26
    1f0e:	97 95       	ror	r25
    1f10:	87 95       	ror	r24
    1f12:	77 95       	ror	r23
    1f14:	67 95       	ror	r22
    1f16:	ba 95       	dec	r27
    1f18:	c9 f7       	brne	.-14     	; 0x1f0c <__ultoa_invert+0x86>
    1f1a:	00 97       	sbiw	r24, 0x00	; 0
    1f1c:	61 05       	cpc	r22, r1
    1f1e:	71 05       	cpc	r23, r1
    1f20:	08 95       	ret
    1f22:	9b 01       	movw	r18, r22
    1f24:	ac 01       	movw	r20, r24
    1f26:	0a 2e       	mov	r0, r26
    1f28:	06 94       	lsr	r0
    1f2a:	57 95       	ror	r21
    1f2c:	47 95       	ror	r20
    1f2e:	37 95       	ror	r19
    1f30:	27 95       	ror	r18
    1f32:	ba 95       	dec	r27
    1f34:	c9 f7       	brne	.-14     	; 0x1f28 <__ultoa_invert+0xa2>
    1f36:	62 0f       	add	r22, r18
    1f38:	73 1f       	adc	r23, r19
    1f3a:	84 1f       	adc	r24, r20
    1f3c:	95 1f       	adc	r25, r21
    1f3e:	a0 1d       	adc	r26, r0
    1f40:	08 95       	ret

00001f42 <__prologue_saves__>:
    1f42:	2f 92       	push	r2
    1f44:	3f 92       	push	r3
    1f46:	4f 92       	push	r4
    1f48:	5f 92       	push	r5
    1f4a:	6f 92       	push	r6
    1f4c:	7f 92       	push	r7
    1f4e:	8f 92       	push	r8
    1f50:	9f 92       	push	r9
    1f52:	af 92       	push	r10
    1f54:	bf 92       	push	r11
    1f56:	cf 92       	push	r12
    1f58:	df 92       	push	r13
    1f5a:	ef 92       	push	r14
    1f5c:	ff 92       	push	r15
    1f5e:	0f 93       	push	r16
    1f60:	1f 93       	push	r17
    1f62:	cf 93       	push	r28
    1f64:	df 93       	push	r29
    1f66:	cd b7       	in	r28, 0x3d	; 61
    1f68:	de b7       	in	r29, 0x3e	; 62
    1f6a:	ca 1b       	sub	r28, r26
    1f6c:	db 0b       	sbc	r29, r27
    1f6e:	0f b6       	in	r0, 0x3f	; 63
    1f70:	f8 94       	cli
    1f72:	de bf       	out	0x3e, r29	; 62
    1f74:	0f be       	out	0x3f, r0	; 63
    1f76:	cd bf       	out	0x3d, r28	; 61
    1f78:	09 94       	ijmp

00001f7a <__epilogue_restores__>:
    1f7a:	2a 88       	ldd	r2, Y+18	; 0x12
    1f7c:	39 88       	ldd	r3, Y+17	; 0x11
    1f7e:	48 88       	ldd	r4, Y+16	; 0x10
    1f80:	5f 84       	ldd	r5, Y+15	; 0x0f
    1f82:	6e 84       	ldd	r6, Y+14	; 0x0e
    1f84:	7d 84       	ldd	r7, Y+13	; 0x0d
    1f86:	8c 84       	ldd	r8, Y+12	; 0x0c
    1f88:	9b 84       	ldd	r9, Y+11	; 0x0b
    1f8a:	aa 84       	ldd	r10, Y+10	; 0x0a
    1f8c:	b9 84       	ldd	r11, Y+9	; 0x09
    1f8e:	c8 84       	ldd	r12, Y+8	; 0x08
    1f90:	df 80       	ldd	r13, Y+7	; 0x07
    1f92:	ee 80       	ldd	r14, Y+6	; 0x06
    1f94:	fd 80       	ldd	r15, Y+5	; 0x05
    1f96:	0c 81       	ldd	r16, Y+4	; 0x04
    1f98:	1b 81       	ldd	r17, Y+3	; 0x03
    1f9a:	aa 81       	ldd	r26, Y+2	; 0x02
    1f9c:	b9 81       	ldd	r27, Y+1	; 0x01
    1f9e:	ce 0f       	add	r28, r30
    1fa0:	d1 1d       	adc	r29, r1
    1fa2:	0f b6       	in	r0, 0x3f	; 63
    1fa4:	f8 94       	cli
    1fa6:	de bf       	out	0x3e, r29	; 62
    1fa8:	0f be       	out	0x3f, r0	; 63
    1faa:	cd bf       	out	0x3d, r28	; 61
    1fac:	ed 01       	movw	r28, r26
    1fae:	08 95       	ret

00001fb0 <_exit>:
    1fb0:	f8 94       	cli

00001fb2 <__stop_program>:
    1fb2:	ff cf       	rjmp	.-2      	; 0x1fb2 <__stop_program>
