
pingpong.elf:     file format elf32-avr

Sections:
Idx Name          Size      VMA       LMA       File off  Algn
  0 .data         00000084  00800100  00001e82  00001f16  2**0
                  CONTENTS, ALLOC, LOAD, DATA
  1 .text         00001e82  00000000  00000000  00000094  2**1
                  CONTENTS, ALLOC, LOAD, READONLY, CODE
  2 .bss          00000027  00800184  00800184  00001f9a  2**0
                  ALLOC
  3 .comment      0000005c  00000000  00000000  00001f9a  2**0
                  CONTENTS, READONLY
  4 .note.gnu.avr.deviceinfo 0000003c  00000000  00000000  00001ff8  2**2
                  CONTENTS, READONLY
  5 .debug_aranges 000002e8  00000000  00000000  00002034  2**0
                  CONTENTS, READONLY, DEBUGGING
  6 .debug_info   00003d27  00000000  00000000  0000231c  2**0
                  CONTENTS, READONLY, DEBUGGING
  7 .debug_abbrev 00001634  00000000  00000000  00006043  2**0
                  CONTENTS, READONLY, DEBUGGING
  8 .debug_line   00001e40  00000000  00000000  00007677  2**0
                  CONTENTS, READONLY, DEBUGGING
  9 .debug_frame  000007e4  00000000  00000000  000094b8  2**2
                  CONTENTS, READONLY, DEBUGGING
 10 .debug_str    00000bcb  00000000  00000000  00009c9c  2**0
                  CONTENTS, READONLY, DEBUGGING
 11 .debug_loc    00001e52  00000000  00000000  0000a867  2**0
                  CONTENTS, READONLY, DEBUGGING
 12 .debug_ranges 00000280  00000000  00000000  0000c6b9  2**0
                  CONTENTS, READONLY, DEBUGGING

Disassembly of section .text:

00000000 <__vectors>:
       0:	0c 94 c4 02 	jmp	0x588	; 0x588 <__ctors_end>
       4:	0c 94 91 03 	jmp	0x722	; 0x722 <__vector_1>
       8:	0c 94 e1 02 	jmp	0x5c2	; 0x5c2 <__bad_interrupt>
       c:	0c 94 e1 02 	jmp	0x5c2	; 0x5c2 <__bad_interrupt>
      10:	0c 94 e1 02 	jmp	0x5c2	; 0x5c2 <__bad_interrupt>
      14:	0c 94 e1 02 	jmp	0x5c2	; 0x5c2 <__bad_interrupt>
      18:	0c 94 e1 02 	jmp	0x5c2	; 0x5c2 <__bad_interrupt>
      1c:	0c 94 bd 09 	jmp	0x137a	; 0x137a <__vector_7>
      20:	0c 94 e1 02 	jmp	0x5c2	; 0x5c2 <__bad_interrupt>
      24:	0c 94 e1 02 	jmp	0x5c2	; 0x5c2 <__bad_interrupt>
      28:	0c 94 e1 02 	jmp	0x5c2	; 0x5c2 <__bad_interrupt>
      2c:	0c 94 e1 02 	jmp	0x5c2	; 0x5c2 <__bad_interrupt>
      30:	0c 94 e1 02 	jmp	0x5c2	; 0x5c2 <__bad_interrupt>
      34:	0c 94 e1 02 	jmp	0x5c2	; 0x5c2 <__bad_interrupt>
      38:	0c 94 e1 02 	jmp	0x5c2	; 0x5c2 <__bad_interrupt>
      3c:	0c 94 e1 02 	jmp	0x5c2	; 0x5c2 <__bad_interrupt>
      40:	0c 94 e1 02 	jmp	0x5c2	; 0x5c2 <__bad_interrupt>
      44:	0c 94 e1 02 	jmp	0x5c2	; 0x5c2 <__bad_interrupt>
      48:	0c 94 e1 02 	jmp	0x5c2	; 0x5c2 <__bad_interrupt>
      4c:	0c 94 95 0b 	jmp	0x172a	; 0x172a <__vector_19>
      50:	0c 94 e1 02 	jmp	0x5c2	; 0x5c2 <__bad_interrupt>
      54:	0c 94 e1 02 	jmp	0x5c2	; 0x5c2 <__bad_interrupt>
      58:	0c 94 e1 02 	jmp	0x5c2	; 0x5c2 <__bad_interrupt>
      5c:	0c 94 e1 02 	jmp	0x5c2	; 0x5c2 <__bad_interrupt>
      60:	0c 94 e1 02 	jmp	0x5c2	; 0x5c2 <__bad_interrupt>
      64:	0c 94 e1 02 	jmp	0x5c2	; 0x5c2 <__bad_interrupt>
      68:	0c 94 e1 02 	jmp	0x5c2	; 0x5c2 <__bad_interrupt>
      6c:	0c 94 e1 02 	jmp	0x5c2	; 0x5c2 <__bad_interrupt>

00000070 <__trampolines_end>:
      70:	00 80       	ld	r0, Z
      72:	40 20       	and	r4, r0
      74:	10 08       	sbc	r1, r0
      76:	08 08       	sbc	r0, r8
      78:	04 04       	cpc	r0, r4
      7a:	04 08       	sbc	r0, r4
      7c:	08 10       	cpse	r0, r8
      7e:	60 80       	ld	r6, Z
      80:	00 00       	nop
      82:	00 00       	nop
      84:	00 00       	nop
      86:	00 1c       	adc	r0, r0
      88:	63 80       	ldd	r6, Z+3	; 0x03
	...
      92:	80 40       	sbci	r24, 0x00	; 0
      94:	20 10       	cpse	r2, r0
      96:	09 fe       	.word	0xfe09	; ????
	...
      a0:	00 01       	movw	r0, r0
      a2:	01 02       	muls	r16, r17
      a4:	02 04       	cpc	r0, r2
      a6:	04 06       	cpc	r0, r20
      a8:	05 04       	cpc	r0, r5
      aa:	04 04       	cpc	r0, r4
      ac:	04 08       	sbc	r0, r4
      ae:	11 22       	and	r1, r17
      b0:	44 88       	ldd	r4, Z+20	; 0x14
      b2:	50 20       	and	r5, r0
	...

000000b5 <font5>:
      b5:	00 00 00 00 00 00 00 5f 00 00 00 07 00 07 00 14     ......._........
      c5:	7f 14 7f 14 24 2a 7f 2a 12 23 13 08 64 62 36 49     ....$*.*.#..db6I
      d5:	55 22 50 00 05 03 00 00 00 1c 22 41 00 00 41 22     U"P......."A..A"
      e5:	1c 00 08 2a 1c 2a 08 08 08 3e 08 08 00 50 30 00     ...*.*...>...P0.
      f5:	00 08 08 08 08 08 00 60 60 00 00 20 10 08 04 02     .......``.. ....
     105:	3e 51 49 45 3e 00 42 7f 40 00 42 61 51 49 46 21     >QIE>.B.@.BaQIF!
     115:	41 45 4b 31 18 14 12 7f 10 27 45 45 45 39 3c 4a     AEK1.....'EEE9<J
     125:	49 49 30 01 71 09 05 03 36 49 49 49 36 06 49 49     II0.q...6III6.II
     135:	29 1e 00 36 36 00 00 00 56 36 00 00 00 08 14 22     )..66...V6....."
     145:	41 14 14 14 14 14 41 22 14 08 00 02 01 51 09 06     A.....A".....Q..
     155:	32 49 79 41 3e 7e 11 11 11 7e 7f 49 49 49 36 3e     2IyA>~...~.III6>
     165:	41 41 41 22 7f 41 41 22 1c 7f 49 49 49 41 7f 09     AAA".AA"..IIIA..
     175:	09 01 01 3e 41 41 51 32 7f 08 08 08 7f 00 41 7f     ...>AAQ2......A.
     185:	41 00 20 40 41 3f 01 7f 08 14 22 41 7f 40 40 40     A. @A?...."A.@@@
     195:	40 7f 02 04 02 7f 7f 04 08 10 7f 3e 41 41 41 3e     @..........>AAA>
     1a5:	7f 09 09 09 06 3e 41 51 21 5e 7f 09 19 29 46 46     .....>AQ!^...)FF
     1b5:	49 49 49 31 01 01 7f 01 01 3f 40 40 40 3f 1f 20     III1.....?@@@?. 
     1c5:	40 20 1f 7f 20 18 20 7f 63 14 08 14 63 03 04 78     @ .. . .c...c..x
     1d5:	04 03 61 51 49 45 43 00 00 7f 41 41 02 04 08 10     ..aQIEC...AA....
     1e5:	20 41 41 7f 00 00 04 02 01 02 04 40 40 40 40 40      AA........@@@@@
     1f5:	00 01 02 04 00 20 54 54 54 78 7f 48 44 44 38 38     ..... TTTx.HDD88
     205:	44 44 44 20 38 44 44 48 7f 38 54 54 54 18 08 7e     DDD 8DDH.8TTT..~
     215:	09 01 02 08 14 54 54 3c 7f 08 04 04 78 00 44 7d     .....TT<....x.D}
     225:	40 00 20 40 44 3d 00 00 7f 10 28 44 00 41 7f 40     @. @D=....(D.A.@
     235:	00 7c 04 18 04 78 7c 08 04 04 78 38 44 44 44 38     .|...x|...x8DDD8
     245:	7c 14 14 14 08 08 14 14 18 7c 7c 08 04 04 08 48     |........||....H
     255:	54 54 54 20 04 3f 44 40 20 3c 40 40 20 7c 1c 20     TTT .?D@ <@@ |. 
     265:	40 20 1c 3c 40 30 40 3c 44 28 10 28 44 0c 50 50     @ .<@0@<D(.(D.PP
     275:	50 3c 44 64 54 4c 44 00 08 36 41 00 00 00 7f 00     P<DdTLD..6A.....
     285:	00 00 41 36 08 00 02 01 03 02 01                    ..A6.......

00000290 <font8>:
	...
     298:	00 06 5f 5f 06 00 00 00 00 07 07 00 07 07 00 00     ..__............
     2a8:	14 7f 7f 14 7f 7f 14 00 24 2e 6b 6b 3a 12 00 00     ........$.kk:...
     2b8:	46 66 30 18 0c 66 62 00 30 7a 4f 5d 37 7a 48 00     Ff0..fb.0zO]7zH.
     2c8:	04 07 03 00 00 00 00 00 00 1c 3e 63 41 00 00 00     ..........>cA...
     2d8:	00 41 63 3e 1c 00 00 00 08 2a 3e 1c 1c 3e 2a 08     .Ac>.....*>..>*.
     2e8:	08 08 3e 3e 08 08 00 00 00 a0 e0 60 00 00 00 00     ..>>.......`....
     2f8:	08 08 08 08 08 08 00 00 00 00 60 60 00 00 00 00     ..........``....
     308:	60 30 18 0c 06 03 01 00 3e 7f 59 4d 7f 3e 00 00     `0......>.YM.>..
     318:	42 42 7f 7f 40 40 00 00 62 73 59 49 6f 66 00 00     BB..@@..bsYIof..
     328:	22 63 49 49 7f 36 00 00 18 1c 16 13 7f 7f 10 00     "cII.6..........
     338:	27 67 45 45 7d 39 00 00 3c 7e 4b 49 79 30 00 00     'gEE}9..<~KIy0..
     348:	03 63 71 19 0f 07 00 00 36 7f 49 49 7f 36 00 00     .cq.....6.II.6..
     358:	06 4f 49 69 3f 1e 00 00 00 00 6c 6c 00 00 00 00     .OIi?.....ll....
     368:	00 a0 ec 6c 00 00 00 00 08 1c 36 63 41 00 00 00     ...l......6cA...
     378:	14 14 14 14 14 14 00 00 00 41 63 36 1c 08 00 00     .........Ac6....
     388:	02 03 51 59 0f 06 00 00 3e 7f 41 5d 5d 1f 1e 00     ..QY....>.A]]...
     398:	7c 7e 13 13 7e 7c 00 00 41 7f 7f 49 49 7f 36 00     |~..~|..A..II.6.
     3a8:	1c 3e 63 41 41 63 22 00 41 7f 7f 41 63 7f 1c 00     .>cAAc".A..Ac...
     3b8:	41 7f 7f 49 5d 41 63 00 41 7f 7f 49 1d 01 03 00     A..I]Ac.A..I....
     3c8:	1c 3e 63 41 51 73 72 00 7f 7f 08 08 7f 7f 00 00     .>cAQsr.........
     3d8:	00 41 7f 7f 41 00 00 00 30 70 40 41 7f 3f 01 00     .A..A...0p@A.?..
     3e8:	41 7f 7f 08 1c 77 63 00 41 7f 7f 41 40 60 70 00     A....wc.A..A@`p.
     3f8:	7f 7f 06 0c 06 7f 7f 00 7f 7f 06 0c 18 7f 7f 00     ................
     408:	1c 3e 63 41 63 3e 1c 00 41 7f 7f 49 09 0f 06 00     .>cAc>..A..I....
     418:	1e 3f 21 71 7f 5e 00 00 41 7f 7f 19 39 6f 46 00     .?!q.^..A...9oF.
     428:	26 67 4d 59 7b 32 00 00 03 41 7f 7f 41 03 00 00     &gMY{2...A..A...
     438:	7f 7f 40 40 7f 7f 00 00 1f 3f 60 60 3f 1f 00 00     ..@@.....?``?...
     448:	7f 7f 30 18 30 7f 7f 00 63 77 1c 08 1c 77 63 00     ..0.0...cw...wc.
     458:	07 4f 78 78 4f 07 00 00 67 73 59 4d 47 63 71 00     .OxxO...gsYMGcq.
     468:	00 7f 7f 41 41 00 00 00 01 03 06 0c 18 30 60 00     ...AA........0`.
     478:	00 41 41 7f 7f 00 00 00 08 0c 06 03 06 0c 08 00     .AA.............
     488:	80 80 80 80 80 80 80 80 00 00 03 07 04 00 00 00     ................
     498:	20 74 54 54 3c 78 40 00 41 3f 7f 44 44 7c 38 00      tTT<x@.A?.DD|8.
     4a8:	38 7c 44 44 6c 28 00 00 30 78 48 49 3f 7f 40 00     8|DDl(..0xHI?.@.
     4b8:	38 7c 54 54 5c 18 00 00 48 7e 7f 49 03 02 00 00     8|TT\...H~.I....
     4c8:	98 bc a4 a4 f8 7c 04 00 41 7f 7f 08 04 7c 78 00     .....|..A....|x.
     4d8:	00 44 7d 7d 40 00 00 00 40 c4 84 fd 7d 00 00 00     .D}}@...@...}...
     4e8:	41 7f 7f 10 38 6c 44 00 00 41 7f 7f 40 00 00 00     A...8lD..A..@...
     4f8:	7c 7c 0c 18 0c 7c 78 00 7c 7c 04 04 7c 78 00 00     ||...|x.||..|x..
     508:	38 7c 44 44 7c 38 00 00 84 fc f8 a4 24 3c 18 00     8|DD|8......$<..
     518:	18 3c 24 a4 f8 fc 84 00 44 7c 78 44 1c 18 00 00     .<$.....D|xD....
     528:	48 5c 54 54 74 24 00 00 00 04 3e 7f 44 24 00 00     H\TTt$....>.D$..
     538:	3c 7c 40 40 3c 7c 40 00 1c 3c 60 60 3c 1c 00 00     <|@@<|@..<``<...
     548:	3c 7c 60 30 60 7c 3c 00 44 6c 38 10 38 6c 44 00     <|`0`|<.Dl8.8lD.
     558:	9c bc a0 a0 fc 7c 00 00 4c 64 74 5c 4c 64 00 00     .....|..Ldt\Ld..
     568:	08 08 3e 77 41 41 00 00 00 00 00 77 77 00 00 00     ..>wAA.....ww...
     578:	41 41 77 3e 08 08 00 00 02 03 01 03 02 03 01 00     AAw>............

00000588 <__ctors_end>:
     588:	11 24       	eor	r1, r1
     58a:	1f be       	out	0x3f, r1	; 63
     58c:	cf ef       	ldi	r28, 0xFF	; 255
     58e:	d4 e0       	ldi	r29, 0x04	; 4
     590:	de bf       	out	0x3e, r29	; 62
     592:	cd bf       	out	0x3d, r28	; 61

00000594 <__do_copy_data>:
     594:	11 e0       	ldi	r17, 0x01	; 1
     596:	a0 e0       	ldi	r26, 0x00	; 0
     598:	b1 e0       	ldi	r27, 0x01	; 1
     59a:	e2 e8       	ldi	r30, 0x82	; 130
     59c:	fe e1       	ldi	r31, 0x1E	; 30
     59e:	02 c0       	rjmp	.+4      	; 0x5a4 <__do_copy_data+0x10>
     5a0:	05 90       	lpm	r0, Z+
     5a2:	0d 92       	st	X+, r0
     5a4:	a4 38       	cpi	r26, 0x84	; 132
     5a6:	b1 07       	cpc	r27, r17
     5a8:	d9 f7       	brne	.-10     	; 0x5a0 <__do_copy_data+0xc>

000005aa <__do_clear_bss>:
     5aa:	21 e0       	ldi	r18, 0x01	; 1
     5ac:	a4 e8       	ldi	r26, 0x84	; 132
     5ae:	b1 e0       	ldi	r27, 0x01	; 1
     5b0:	01 c0       	rjmp	.+2      	; 0x5b4 <.do_clear_bss_start>

000005b2 <.do_clear_bss_loop>:
     5b2:	1d 92       	st	X+, r1

000005b4 <.do_clear_bss_start>:
     5b4:	ab 3a       	cpi	r26, 0xAB	; 171
     5b6:	b2 07       	cpc	r27, r18
     5b8:	e1 f7       	brne	.-8      	; 0x5b2 <.do_clear_bss_loop>
     5ba:	0e 94 93 05 	call	0xb26	; 0xb26 <main>
     5be:	0c 94 3f 0f 	jmp	0x1e7e	; 0x1e7e <_exit>

000005c2 <__bad_interrupt>:
     5c2:	0c 94 00 00 	jmp	0	; 0x0 <__vectors>

000005c6 <adc_init>:
     5c6:	81 b3       	in	r24, 0x11	; 17
     5c8:	80 62       	ori	r24, 0x20	; 32
     5ca:	81 bb       	out	0x11, r24	; 17
     5cc:	81 b3       	in	r24, 0x11	; 17
     5ce:	87 7f       	andi	r24, 0xF7	; 247
     5d0:	81 bb       	out	0x11, r24	; 17
     5d2:	89 e0       	ldi	r24, 0x09	; 9
     5d4:	8e bd       	out	0x2e, r24	; 46
     5d6:	80 e4       	ldi	r24, 0x40	; 64
     5d8:	8f bd       	out	0x2f, r24	; 47
     5da:	82 e0       	ldi	r24, 0x02	; 2
     5dc:	90 e0       	ldi	r25, 0x00	; 0
     5de:	9b bd       	out	0x2b, r25	; 43
     5e0:	8a bd       	out	0x2a, r24	; 42
     5e2:	81 b3       	in	r24, 0x11	; 17
     5e4:	8f 7e       	andi	r24, 0xEF	; 239
     5e6:	81 bb       	out	0x11, r24	; 17
     5e8:	08 95       	ret

000005ea <get_io_inputs>:
     5ea:	cf 93       	push	r28
     5ec:	df 93       	push	r29
     5ee:	fc 01       	movw	r30, r24
     5f0:	10 92 00 10 	sts	0x1000, r1	; 0x801000 <__bss_end+0xe55>
	#else
		//round up by default
		__ticks_dc = (uint32_t)(ceil(fabs(__tmp)));
	#endif

	__builtin_avr_delay_cycles(__ticks_dc);
     5f4:	00 c0       	rjmp	.+0      	; 0x5f6 <get_io_inputs+0xc>
     5f6:	84 9b       	sbis	0x10, 4	; 16
     5f8:	fe cf       	rjmp	.-4      	; 0x5f6 <get_io_inputs+0xc>
     5fa:	a0 e0       	ldi	r26, 0x00	; 0
     5fc:	b0 e1       	ldi	r27, 0x10	; 16
     5fe:	8c 91       	ld	r24, X
     600:	c4 e8       	ldi	r28, 0x84	; 132
     602:	d1 e0       	ldi	r29, 0x01	; 1
     604:	28 81       	ld	r18, Y
     606:	39 81       	ldd	r19, Y+1	; 0x01
     608:	90 e0       	ldi	r25, 0x00	; 0
     60a:	82 1b       	sub	r24, r18
     60c:	93 0b       	sbc	r25, r19
     60e:	91 83       	std	Z+1, r25	; 0x01
     610:	80 83       	st	Z, r24
     612:	8c 91       	ld	r24, X
     614:	2a 81       	ldd	r18, Y+2	; 0x02
     616:	3b 81       	ldd	r19, Y+3	; 0x03
     618:	90 e0       	ldi	r25, 0x00	; 0
     61a:	82 1b       	sub	r24, r18
     61c:	93 0b       	sbc	r25, r19
     61e:	93 83       	std	Z+3, r25	; 0x03
     620:	82 83       	std	Z+2, r24	; 0x02
     622:	8c 91       	ld	r24, X
     624:	90 e0       	ldi	r25, 0x00	; 0
     626:	95 83       	std	Z+5, r25	; 0x05
     628:	84 83       	std	Z+4, r24	; 0x04
     62a:	8c 91       	ld	r24, X
     62c:	90 e0       	ldi	r25, 0x00	; 0
     62e:	97 83       	std	Z+7, r25	; 0x07
     630:	86 83       	std	Z+6, r24	; 0x06
     632:	80 b3       	in	r24, 0x10	; 16
     634:	86 95       	lsr	r24
     636:	86 95       	lsr	r24
     638:	86 95       	lsr	r24
     63a:	91 e0       	ldi	r25, 0x01	; 1
     63c:	89 27       	eor	r24, r25
     63e:	81 70       	andi	r24, 0x01	; 1
     640:	80 87       	std	Z+8, r24	; 0x08
     642:	11 86       	std	Z+9, r1	; 0x09
     644:	cf 01       	movw	r24, r30
     646:	df 91       	pop	r29
     648:	cf 91       	pop	r28
     64a:	08 95       	ret

0000064c <can_init>:
#include <avr/interrupt.h>
#include "mcp2515.h"   // Definitions of MCP2515's registers

void can_init(void)
{
	cli(); 
     64c:	f8 94       	cli
	// Reset MCP2515
	can_controller_reset();
     64e:	0e 94 c0 04 	call	0x980	; 0x980 <can_controller_reset>
	#else
		//round up by default
		__ticks_dc = (uint32_t)(ceil(fabs(__tmp)));
	#endif

	__builtin_avr_delay_cycles(__ticks_dc);
     652:	83 ec       	ldi	r24, 0xC3	; 195
     654:	99 e0       	ldi	r25, 0x09	; 9
     656:	01 97       	sbiw	r24, 0x01	; 1
     658:	f1 f7       	brne	.-4      	; 0x656 <can_init+0xa>
     65a:	00 c0       	rjmp	.+0      	; 0x65c <can_init+0x10>
     65c:	00 00       	nop
	_delay_ms(10);

	// bit timing
	// 16 MHz
	can_controller_write(MCP_CNF1, 0x03);  // SJW=0 (t_sjw = 1xTQ), BRP=3 --> TQ = 0.5 us 
     65e:	63 e0       	ldi	r22, 0x03	; 3
     660:	8a e2       	ldi	r24, 0x2A	; 42
     662:	0e 94 6f 04 	call	0x8de	; 0x8de <can_controller_write>
	can_controller_write(MCP_CNF2, 0xB0);  // BTLMODE=1, PHSEG1=6 (t_ps1 = 7xTQ), PRSEG=0 (t_propSeg = 1xTQ)
     666:	60 eb       	ldi	r22, 0xB0	; 176
     668:	89 e2       	ldi	r24, 0x29	; 41
     66a:	0e 94 6f 04 	call	0x8de	; 0x8de <can_controller_write>
	can_controller_write(MCP_CNF3, 0x05);  // PHSEG2=5 (t_ps2 = 6xTQ)
     66e:	65 e0       	ldi	r22, 0x05	; 5
     670:	88 e2       	ldi	r24, 0x28	; 40
     672:	0e 94 6f 04 	call	0x8de	; 0x8de <can_controller_write>
	//can_controller_write(MCP_CNF1, 0x07);  // SJW=0 (t_sjw = 1xTQ), BRP=7 --> TQ = 1 us 
	//can_controller_write(MCP_CNF2, 0xAA);  // BTLMODE=1, PHSEG1=5 (t_ps1 = 6xTQ), PRSEG=2 (t_propSeg = 3xTQ)
	//can_controller_write(MCP_CNF3, 0x05);  // PHSEG2=5 (t_ps2 = 6xTQ)
	

	can_controller_write(MCP_CANINTE, 0x03); // For interruption (receive interruptions)
     676:	63 e0       	ldi	r22, 0x03	; 3
     678:	8b e2       	ldi	r24, 0x2B	; 43
     67a:	0e 94 6f 04 	call	0x8de	; 0x8de <can_controller_write>
	can_controller_write(MCP_RXB0CTRL, 0x64); // For reception, deactivate masks and filters
     67e:	64 e6       	ldi	r22, 0x64	; 100
     680:	80 e6       	ldi	r24, 0x60	; 96
     682:	0e 94 6f 04 	call	0x8de	; 0x8de <can_controller_write>
	can_controller_write(MCP_RXB1CTRL, 0x60); 
     686:	60 e6       	ldi	r22, 0x60	; 96
     688:	80 e7       	ldi	r24, 0x70	; 112
     68a:	0e 94 6f 04 	call	0x8de	; 0x8de <can_controller_write>
	
	MCUCR |= (1<<ISC01); 
     68e:	85 b7       	in	r24, 0x35	; 53
     690:	82 60       	ori	r24, 0x02	; 2
     692:	85 bf       	out	0x35, r24	; 53
	MCUCR &= ~(1<<ISC00); 
     694:	85 b7       	in	r24, 0x35	; 53
     696:	8e 7f       	andi	r24, 0xFE	; 254
     698:	85 bf       	out	0x35, r24	; 53
	GICR |= (1<<INT0); 
     69a:	8b b7       	in	r24, 0x3b	; 59
     69c:	80 64       	ori	r24, 0x40	; 64
     69e:	8b bf       	out	0x3b, r24	; 59
	sei(); // activate interrupts
     6a0:	78 94       	sei

	can_controller_write(MCP_CANCTRL, 0x04); // Mode Loopback
     6a2:	64 e0       	ldi	r22, 0x04	; 4
     6a4:	8f e0       	ldi	r24, 0x0F	; 15
     6a6:	0e 94 6f 04 	call	0x8de	; 0x8de <can_controller_write>
     6aa:	89 ef       	ldi	r24, 0xF9	; 249
     6ac:	90 e0       	ldi	r25, 0x00	; 0
     6ae:	01 97       	sbiw	r24, 0x01	; 1
     6b0:	f1 f7       	brne	.-4      	; 0x6ae <can_init+0x62>
     6b2:	00 c0       	rjmp	.+0      	; 0x6b4 <can_init+0x68>
     6b4:	00 00       	nop
     6b6:	08 95       	ret

000006b8 <can_transmit>:
}



void can_transmit(can_message_t *tx)
{
     6b8:	0f 93       	push	r16
     6ba:	1f 93       	push	r17
     6bc:	cf 93       	push	r28
     6be:	8c 01       	movw	r16, r24
	// load ID (standard 11 bits)
	uint8_t sidh = (uint8_t)(tx->id >> 3);
     6c0:	fc 01       	movw	r30, r24
     6c2:	80 81       	ld	r24, Z
     6c4:	91 81       	ldd	r25, Z+1	; 0x01
     6c6:	bc 01       	movw	r22, r24
     6c8:	76 95       	lsr	r23
     6ca:	67 95       	ror	r22
     6cc:	76 95       	lsr	r23
     6ce:	67 95       	ror	r22
     6d0:	76 95       	lsr	r23
     6d2:	67 95       	ror	r22
	uint8_t sidl = (uint8_t)((tx->id & 0x07) << 5);
     6d4:	c8 2f       	mov	r28, r24
     6d6:	c2 95       	swap	r28
     6d8:	cc 0f       	add	r28, r28
     6da:	c0 7e       	andi	r28, 0xE0	; 224

	can_controller_write(0x31, sidh); // TXB0SIDH
     6dc:	81 e3       	ldi	r24, 0x31	; 49
     6de:	0e 94 6f 04 	call	0x8de	; 0x8de <can_controller_write>
	can_controller_write(0x32, sidl); // TXB0SIDL
     6e2:	6c 2f       	mov	r22, r28
     6e4:	82 e3       	ldi	r24, 0x32	; 50
     6e6:	0e 94 6f 04 	call	0x8de	; 0x8de <can_controller_write>

	// Load the length
	can_controller_write(0x35, tx->length & 0x0F); // TXB0DLC
     6ea:	f8 01       	movw	r30, r16
     6ec:	62 81       	ldd	r22, Z+2	; 0x02
     6ee:	6f 70       	andi	r22, 0x0F	; 15
     6f0:	85 e3       	ldi	r24, 0x35	; 53
     6f2:	0e 94 6f 04 	call	0x8de	; 0x8de <can_controller_write>

	// Load the data
	for (uint8_t i = 0; i < tx->length & 0x0F; i++) {
     6f6:	c0 e0       	ldi	r28, 0x00	; 0
     6f8:	09 c0       	rjmp	.+18     	; 0x70c <can_transmit+0x54>
		can_controller_write(0x36 + i, tx->data[i]);
     6fa:	f8 01       	movw	r30, r16
     6fc:	ec 0f       	add	r30, r28
     6fe:	f1 1d       	adc	r31, r1
     700:	63 81       	ldd	r22, Z+3	; 0x03
     702:	86 e3       	ldi	r24, 0x36	; 54
     704:	8c 0f       	add	r24, r28
     706:	0e 94 6f 04 	call	0x8de	; 0x8de <can_controller_write>

	// Load the length
	can_controller_write(0x35, tx->length & 0x0F); // TXB0DLC

	// Load the data
	for (uint8_t i = 0; i < tx->length & 0x0F; i++) {
     70a:	cf 5f       	subi	r28, 0xFF	; 255
     70c:	f8 01       	movw	r30, r16
     70e:	82 81       	ldd	r24, Z+2	; 0x02
     710:	c8 17       	cp	r28, r24
     712:	98 f3       	brcs	.-26     	; 0x6fa <can_transmit+0x42>
		can_controller_write(0x36 + i, tx->data[i]);
	}

	// Request to send (RTS)
	can_controller_request_send(0x01); // RTS pour TXB0
     714:	81 e0       	ldi	r24, 0x01	; 1
     716:	0e 94 8b 04 	call	0x916	; 0x916 <can_controller_request_send>
}
     71a:	cf 91       	pop	r28
     71c:	1f 91       	pop	r17
     71e:	0f 91       	pop	r16
     720:	08 95       	ret

00000722 <__vector_1>:

uint8_t can_rx_flag;

ISR (INT0_vect) {
     722:	1f 92       	push	r1
     724:	0f 92       	push	r0
     726:	0f b6       	in	r0, 0x3f	; 63
     728:	0f 92       	push	r0
     72a:	11 24       	eor	r1, r1
     72c:	2f 93       	push	r18
     72e:	3f 93       	push	r19
     730:	4f 93       	push	r20
     732:	5f 93       	push	r21
     734:	6f 93       	push	r22
     736:	7f 93       	push	r23
     738:	8f 93       	push	r24
     73a:	9f 93       	push	r25
     73c:	af 93       	push	r26
     73e:	bf 93       	push	r27
     740:	ef 93       	push	r30
     742:	ff 93       	push	r31
	can_rx_flag = can_controller_read(MCP_CANINTF); 
     744:	8c e2       	ldi	r24, 0x2C	; 44
     746:	0e 94 54 04 	call	0x8a8	; 0x8a8 <can_controller_read>
     74a:	80 93 a1 01 	sts	0x01A1, r24	; 0x8001a1 <can_rx_flag>
}
     74e:	ff 91       	pop	r31
     750:	ef 91       	pop	r30
     752:	bf 91       	pop	r27
     754:	af 91       	pop	r26
     756:	9f 91       	pop	r25
     758:	8f 91       	pop	r24
     75a:	7f 91       	pop	r23
     75c:	6f 91       	pop	r22
     75e:	5f 91       	pop	r21
     760:	4f 91       	pop	r20
     762:	3f 91       	pop	r19
     764:	2f 91       	pop	r18
     766:	0f 90       	pop	r0
     768:	0f be       	out	0x3f, r0	; 63
     76a:	0f 90       	pop	r0
     76c:	1f 90       	pop	r1
     76e:	18 95       	reti

00000770 <can_receive>:


uint8_t can_receive(can_message_t *rx)
{	
     770:	ef 92       	push	r14
     772:	ff 92       	push	r15
     774:	0f 93       	push	r16
     776:	1f 93       	push	r17
     778:	cf 93       	push	r28
     77a:	8c 01       	movw	r16, r24
	//printf("%d\n", can_rx_flag);
	if(can_rx_flag & 1) {
     77c:	80 91 a1 01 	lds	r24, 0x01A1	; 0x8001a1 <can_rx_flag>
     780:	80 ff       	sbrs	r24, 0
     782:	39 c0       	rjmp	.+114    	; 0x7f6 <can_receive+0x86>
		uint8_t sidh = can_controller_read(MCP_RXB0SIDH);
     784:	81 e6       	ldi	r24, 0x61	; 97
     786:	0e 94 54 04 	call	0x8a8	; 0x8a8 <can_controller_read>
     78a:	c8 2f       	mov	r28, r24
		uint8_t sidl = can_controller_read(0x62); //MCP_RXB0SIDL
     78c:	82 e6       	ldi	r24, 0x62	; 98
     78e:	0e 94 54 04 	call	0x8a8	; 0x8a8 <can_controller_read>
		rx->id = (sidh << 3) | (sidl >> 5);
     792:	2c 2f       	mov	r18, r28
     794:	30 e0       	ldi	r19, 0x00	; 0
     796:	22 0f       	add	r18, r18
     798:	33 1f       	adc	r19, r19
     79a:	22 0f       	add	r18, r18
     79c:	33 1f       	adc	r19, r19
     79e:	22 0f       	add	r18, r18
     7a0:	33 1f       	adc	r19, r19
     7a2:	82 95       	swap	r24
     7a4:	86 95       	lsr	r24
     7a6:	87 70       	andi	r24, 0x07	; 7
     7a8:	28 2b       	or	r18, r24
     7aa:	f8 01       	movw	r30, r16
     7ac:	31 83       	std	Z+1, r19	; 0x01
     7ae:	20 83       	st	Z, r18
		rx->length = can_controller_read(0x65) & 0x0F;
     7b0:	85 e6       	ldi	r24, 0x65	; 101
     7b2:	0e 94 54 04 	call	0x8a8	; 0x8a8 <can_controller_read>
     7b6:	8f 70       	andi	r24, 0x0F	; 15
     7b8:	f8 01       	movw	r30, r16
     7ba:	82 83       	std	Z+2, r24	; 0x02
		
		for (uint8_t i = 0; i < rx->length; i++) {
     7bc:	c0 e0       	ldi	r28, 0x00	; 0
     7be:	0b c0       	rjmp	.+22     	; 0x7d6 <can_receive+0x66>
			rx->data[i] = can_controller_read(0x66 + i);
     7c0:	ec 2e       	mov	r14, r28
     7c2:	f1 2c       	mov	r15, r1
     7c4:	86 e6       	ldi	r24, 0x66	; 102
     7c6:	8c 0f       	add	r24, r28
     7c8:	0e 94 54 04 	call	0x8a8	; 0x8a8 <can_controller_read>
     7cc:	f8 01       	movw	r30, r16
     7ce:	ee 0d       	add	r30, r14
     7d0:	ff 1d       	adc	r31, r15
     7d2:	83 83       	std	Z+3, r24	; 0x03
		uint8_t sidh = can_controller_read(MCP_RXB0SIDH);
		uint8_t sidl = can_controller_read(0x62); //MCP_RXB0SIDL
		rx->id = (sidh << 3) | (sidl >> 5);
		rx->length = can_controller_read(0x65) & 0x0F;
		
		for (uint8_t i = 0; i < rx->length; i++) {
     7d4:	cf 5f       	subi	r28, 0xFF	; 255
     7d6:	f8 01       	movw	r30, r16
     7d8:	82 81       	ldd	r24, Z+2	; 0x02
     7da:	c8 17       	cp	r28, r24
     7dc:	88 f3       	brcs	.-30     	; 0x7c0 <can_receive+0x50>
			rx->data[i] = can_controller_read(0x66 + i);
		}
		
		// Reset interrupt flag RX0IF
		can_controller_bit_modify(MCP_CANINTF, 0x01, 0x00);
     7de:	40 e0       	ldi	r20, 0x00	; 0
     7e0:	61 e0       	ldi	r22, 0x01	; 1
     7e2:	8c e2       	ldi	r24, 0x2C	; 44
     7e4:	0e 94 9c 04 	call	0x938	; 0x938 <can_controller_bit_modify>
		can_rx_flag &= ~1;
     7e8:	80 91 a1 01 	lds	r24, 0x01A1	; 0x8001a1 <can_rx_flag>
     7ec:	8e 7f       	andi	r24, 0xFE	; 254
     7ee:	80 93 a1 01 	sts	0x01A1, r24	; 0x8001a1 <can_rx_flag>
		return 1; // Message received
     7f2:	c1 e0       	ldi	r28, 0x01	; 1
     7f4:	52 c0       	rjmp	.+164    	; 0x89a <can_receive+0x12a>
	} else if (can_rx_flag & 2) {
     7f6:	c8 2f       	mov	r28, r24
     7f8:	c2 70       	andi	r28, 0x02	; 2
     7fa:	81 ff       	sbrs	r24, 1
     7fc:	39 c0       	rjmp	.+114    	; 0x870 <can_receive+0x100>
		uint8_t sidh = can_controller_read(MCP_RXB1SIDH);
     7fe:	81 e7       	ldi	r24, 0x71	; 113
     800:	0e 94 54 04 	call	0x8a8	; 0x8a8 <can_controller_read>
     804:	c8 2f       	mov	r28, r24
		uint8_t sidl = can_controller_read(0x72); // MCP_RXB0SIDL
     806:	82 e7       	ldi	r24, 0x72	; 114
     808:	0e 94 54 04 	call	0x8a8	; 0x8a8 <can_controller_read>
		rx->id = (sidh << 3) | (sidl >> 5);
     80c:	2c 2f       	mov	r18, r28
     80e:	30 e0       	ldi	r19, 0x00	; 0
     810:	22 0f       	add	r18, r18
     812:	33 1f       	adc	r19, r19
     814:	22 0f       	add	r18, r18
     816:	33 1f       	adc	r19, r19
     818:	22 0f       	add	r18, r18
     81a:	33 1f       	adc	r19, r19
     81c:	82 95       	swap	r24
     81e:	86 95       	lsr	r24
     820:	87 70       	andi	r24, 0x07	; 7
     822:	28 2b       	or	r18, r24
     824:	f8 01       	movw	r30, r16
     826:	31 83       	std	Z+1, r19	; 0x01
     828:	20 83       	st	Z, r18
		rx->length = can_controller_read(0x75) & 0x0F;
     82a:	85 e7       	ldi	r24, 0x75	; 117
     82c:	0e 94 54 04 	call	0x8a8	; 0x8a8 <can_controller_read>
     830:	8f 70       	andi	r24, 0x0F	; 15
     832:	f8 01       	movw	r30, r16
     834:	82 83       	std	Z+2, r24	; 0x02
				
		for (uint8_t i = 0; i < rx->length; i++) {
     836:	c0 e0       	ldi	r28, 0x00	; 0
     838:	0b c0       	rjmp	.+22     	; 0x850 <can_receive+0xe0>
			rx->data[i] = can_controller_read(0x76 + i);
     83a:	ec 2e       	mov	r14, r28
     83c:	f1 2c       	mov	r15, r1
     83e:	86 e7       	ldi	r24, 0x76	; 118
     840:	8c 0f       	add	r24, r28
     842:	0e 94 54 04 	call	0x8a8	; 0x8a8 <can_controller_read>
     846:	f8 01       	movw	r30, r16
     848:	ee 0d       	add	r30, r14
     84a:	ff 1d       	adc	r31, r15
     84c:	83 83       	std	Z+3, r24	; 0x03
		uint8_t sidh = can_controller_read(MCP_RXB1SIDH);
		uint8_t sidl = can_controller_read(0x72); // MCP_RXB0SIDL
		rx->id = (sidh << 3) | (sidl >> 5);
		rx->length = can_controller_read(0x75) & 0x0F;
				
		for (uint8_t i = 0; i < rx->length; i++) {
     84e:	cf 5f       	subi	r28, 0xFF	; 255
     850:	f8 01       	movw	r30, r16
     852:	82 81       	ldd	r24, Z+2	; 0x02
     854:	c8 17       	cp	r28, r24
     856:	88 f3       	brcs	.-30     	; 0x83a <can_receive+0xca>
			rx->data[i] = can_controller_read(0x76 + i);
		}
				
		// Reset interrupt flag RX0IF
		can_controller_bit_modify(MCP_CANINTF, 0x02, 0x00);
     858:	40 e0       	ldi	r20, 0x00	; 0
     85a:	62 e0       	ldi	r22, 0x02	; 2
     85c:	8c e2       	ldi	r24, 0x2C	; 44
     85e:	0e 94 9c 04 	call	0x938	; 0x938 <can_controller_bit_modify>

		can_rx_flag &= ~2;
     862:	80 91 a1 01 	lds	r24, 0x01A1	; 0x8001a1 <can_rx_flag>
     866:	8d 7f       	andi	r24, 0xFD	; 253
     868:	80 93 a1 01 	sts	0x01A1, r24	; 0x8001a1 <can_rx_flag>
		return 1; // Message received
     86c:	c1 e0       	ldi	r28, 0x01	; 1
     86e:	15 c0       	rjmp	.+42     	; 0x89a <can_receive+0x12a>

	}
	if (can_rx_flag > 2) {
     870:	83 30       	cpi	r24, 0x03	; 3
     872:	78 f0       	brcs	.+30     	; 0x892 <can_receive+0x122>
		printf("err=%d\n", can_controller_read(0x2D));
     874:	8d e2       	ldi	r24, 0x2D	; 45
     876:	0e 94 54 04 	call	0x8a8	; 0x8a8 <can_controller_read>
     87a:	1f 92       	push	r1
     87c:	8f 93       	push	r24
     87e:	8f e0       	ldi	r24, 0x0F	; 15
     880:	91 e0       	ldi	r25, 0x01	; 1
     882:	9f 93       	push	r25
     884:	8f 93       	push	r24
     886:	0e 94 08 0c 	call	0x1810	; 0x1810 <printf>
     88a:	0f 90       	pop	r0
     88c:	0f 90       	pop	r0
     88e:	0f 90       	pop	r0
     890:	0f 90       	pop	r0
	}
	can_controller_write(MCP_CANINTF, 0x00);
     892:	60 e0       	ldi	r22, 0x00	; 0
     894:	8c e2       	ldi	r24, 0x2C	; 44
     896:	0e 94 6f 04 	call	0x8de	; 0x8de <can_controller_write>


	return 0; // No message
}
     89a:	8c 2f       	mov	r24, r28
     89c:	cf 91       	pop	r28
     89e:	1f 91       	pop	r17
     8a0:	0f 91       	pop	r16
     8a2:	ff 90       	pop	r15
     8a4:	ef 90       	pop	r14
     8a6:	08 95       	ret

000008a8 <can_controller_read>:
     8a8:	cf 93       	push	r28
     8aa:	c8 2f       	mov	r28, r24
     8ac:	80 e0       	ldi	r24, 0x00	; 0
     8ae:	0e 94 3a 0b 	call	0x1674	; 0x1674 <spi_select_slave>
     8b2:	83 e0       	ldi	r24, 0x03	; 3
     8b4:	0e 94 68 0b 	call	0x16d0	; 0x16d0 <spi_write_byte>
     8b8:	0e 94 7b 0b 	call	0x16f6	; 0x16f6 <spi_read_byte>
     8bc:	8c 2f       	mov	r24, r28
     8be:	0e 94 68 0b 	call	0x16d0	; 0x16d0 <spi_write_byte>
     8c2:	0e 94 7b 0b 	call	0x16f6	; 0x16f6 <spi_read_byte>
     8c6:	80 e0       	ldi	r24, 0x00	; 0
     8c8:	0e 94 68 0b 	call	0x16d0	; 0x16d0 <spi_write_byte>
     8cc:	0e 94 7b 0b 	call	0x16f6	; 0x16f6 <spi_read_byte>
     8d0:	c8 2f       	mov	r28, r24
     8d2:	83 e0       	ldi	r24, 0x03	; 3
     8d4:	0e 94 3a 0b 	call	0x1674	; 0x1674 <spi_select_slave>
     8d8:	8c 2f       	mov	r24, r28
     8da:	cf 91       	pop	r28
     8dc:	08 95       	ret

000008de <can_controller_write>:
     8de:	cf 93       	push	r28
     8e0:	df 93       	push	r29
     8e2:	d8 2f       	mov	r29, r24
     8e4:	c6 2f       	mov	r28, r22
     8e6:	80 e0       	ldi	r24, 0x00	; 0
     8e8:	0e 94 3a 0b 	call	0x1674	; 0x1674 <spi_select_slave>
     8ec:	82 e0       	ldi	r24, 0x02	; 2
     8ee:	0e 94 68 0b 	call	0x16d0	; 0x16d0 <spi_write_byte>
     8f2:	0e 94 7b 0b 	call	0x16f6	; 0x16f6 <spi_read_byte>
     8f6:	8d 2f       	mov	r24, r29
     8f8:	0e 94 68 0b 	call	0x16d0	; 0x16d0 <spi_write_byte>
     8fc:	0e 94 7b 0b 	call	0x16f6	; 0x16f6 <spi_read_byte>
     900:	8c 2f       	mov	r24, r28
     902:	0e 94 68 0b 	call	0x16d0	; 0x16d0 <spi_write_byte>
     906:	0e 94 7b 0b 	call	0x16f6	; 0x16f6 <spi_read_byte>
     90a:	83 e0       	ldi	r24, 0x03	; 3
     90c:	0e 94 3a 0b 	call	0x1674	; 0x1674 <spi_select_slave>
     910:	df 91       	pop	r29
     912:	cf 91       	pop	r28
     914:	08 95       	ret

00000916 <can_controller_request_send>:
     916:	cf 93       	push	r28
     918:	c8 2f       	mov	r28, r24
     91a:	80 e0       	ldi	r24, 0x00	; 0
     91c:	0e 94 3a 0b 	call	0x1674	; 0x1674 <spi_select_slave>
     920:	8c 2f       	mov	r24, r28
     922:	87 70       	andi	r24, 0x07	; 7
     924:	80 58       	subi	r24, 0x80	; 128
     926:	0e 94 68 0b 	call	0x16d0	; 0x16d0 <spi_write_byte>
     92a:	0e 94 7b 0b 	call	0x16f6	; 0x16f6 <spi_read_byte>
     92e:	83 e0       	ldi	r24, 0x03	; 3
     930:	0e 94 3a 0b 	call	0x1674	; 0x1674 <spi_select_slave>
     934:	cf 91       	pop	r28
     936:	08 95       	ret

00000938 <can_controller_bit_modify>:
     938:	1f 93       	push	r17
     93a:	cf 93       	push	r28
     93c:	df 93       	push	r29
     93e:	18 2f       	mov	r17, r24
     940:	d6 2f       	mov	r29, r22
     942:	c4 2f       	mov	r28, r20
     944:	80 e0       	ldi	r24, 0x00	; 0
     946:	0e 94 3a 0b 	call	0x1674	; 0x1674 <spi_select_slave>
     94a:	85 e0       	ldi	r24, 0x05	; 5
     94c:	0e 94 68 0b 	call	0x16d0	; 0x16d0 <spi_write_byte>
     950:	0e 94 7b 0b 	call	0x16f6	; 0x16f6 <spi_read_byte>
     954:	81 2f       	mov	r24, r17
     956:	0e 94 68 0b 	call	0x16d0	; 0x16d0 <spi_write_byte>
     95a:	0e 94 7b 0b 	call	0x16f6	; 0x16f6 <spi_read_byte>
     95e:	8d 2f       	mov	r24, r29
     960:	0e 94 68 0b 	call	0x16d0	; 0x16d0 <spi_write_byte>
     964:	0e 94 7b 0b 	call	0x16f6	; 0x16f6 <spi_read_byte>
     968:	8c 2f       	mov	r24, r28
     96a:	0e 94 68 0b 	call	0x16d0	; 0x16d0 <spi_write_byte>
     96e:	0e 94 7b 0b 	call	0x16f6	; 0x16f6 <spi_read_byte>
     972:	83 e0       	ldi	r24, 0x03	; 3
     974:	0e 94 3a 0b 	call	0x1674	; 0x1674 <spi_select_slave>
     978:	df 91       	pop	r29
     97a:	cf 91       	pop	r28
     97c:	1f 91       	pop	r17
     97e:	08 95       	ret

00000980 <can_controller_reset>:
     980:	80 e0       	ldi	r24, 0x00	; 0
     982:	0e 94 3a 0b 	call	0x1674	; 0x1674 <spi_select_slave>
     986:	80 ec       	ldi	r24, 0xC0	; 192
     988:	0e 94 68 0b 	call	0x16d0	; 0x16d0 <spi_write_byte>
     98c:	0e 94 7b 0b 	call	0x16f6	; 0x16f6 <spi_read_byte>
     990:	83 e0       	ldi	r24, 0x03	; 3
     992:	0e 94 3a 0b 	call	0x1674	; 0x1674 <spi_select_slave>
     996:	08 95       	ret

00000998 <io_board_init>:
     998:	0e 94 31 0b 	call	0x1662	; 0x1662 <spi_init>
     99c:	08 95       	ret

0000099e <io_board_read_buttons>:
     99e:	cf 93       	push	r28
     9a0:	df 93       	push	r29
     9a2:	cd b7       	in	r28, 0x3d	; 61
     9a4:	de b7       	in	r29, 0x3e	; 62
     9a6:	2a 97       	sbiw	r28, 0x0a	; 10
     9a8:	0f b6       	in	r0, 0x3f	; 63
     9aa:	f8 94       	cli
     9ac:	de bf       	out	0x3e, r29	; 62
     9ae:	0f be       	out	0x3f, r0	; 63
     9b0:	cd bf       	out	0x3d, r28	; 61
     9b2:	81 e0       	ldi	r24, 0x01	; 1
     9b4:	0e 94 3a 0b 	call	0x1674	; 0x1674 <spi_select_slave>
     9b8:	84 e0       	ldi	r24, 0x04	; 4
     9ba:	0e 94 68 0b 	call	0x16d0	; 0x16d0 <spi_write_byte>
     9be:	0e 94 7b 0b 	call	0x16f6	; 0x16f6 <spi_read_byte>
     9c2:	80 e0       	ldi	r24, 0x00	; 0
     9c4:	0e 94 68 0b 	call	0x16d0	; 0x16d0 <spi_write_byte>
     9c8:	0e 94 7b 0b 	call	0x16f6	; 0x16f6 <spi_read_byte>
     9cc:	8e 83       	std	Y+6, r24	; 0x06
     9ce:	80 e0       	ldi	r24, 0x00	; 0
     9d0:	0e 94 68 0b 	call	0x16d0	; 0x16d0 <spi_write_byte>
     9d4:	0e 94 7b 0b 	call	0x16f6	; 0x16f6 <spi_read_byte>
     9d8:	8f 83       	std	Y+7, r24	; 0x07
     9da:	80 e0       	ldi	r24, 0x00	; 0
     9dc:	0e 94 68 0b 	call	0x16d0	; 0x16d0 <spi_write_byte>
     9e0:	0e 94 7b 0b 	call	0x16f6	; 0x16f6 <spi_read_byte>
     9e4:	88 87       	std	Y+8, r24	; 0x08
     9e6:	82 e0       	ldi	r24, 0x02	; 2
     9e8:	0e 94 68 0b 	call	0x16d0	; 0x16d0 <spi_write_byte>
     9ec:	0e 94 7b 0b 	call	0x16f6	; 0x16f6 <spi_read_byte>
     9f0:	80 e0       	ldi	r24, 0x00	; 0
     9f2:	0e 94 68 0b 	call	0x16d0	; 0x16d0 <spi_write_byte>
     9f6:	0e 94 7b 0b 	call	0x16f6	; 0x16f6 <spi_read_byte>
     9fa:	89 87       	std	Y+9, r24	; 0x09
     9fc:	80 e0       	ldi	r24, 0x00	; 0
     9fe:	0e 94 68 0b 	call	0x16d0	; 0x16d0 <spi_write_byte>
     a02:	0e 94 7b 0b 	call	0x16f6	; 0x16f6 <spi_read_byte>
     a06:	8a 87       	std	Y+10, r24	; 0x0a
     a08:	83 e0       	ldi	r24, 0x03	; 3
     a0a:	0e 94 3a 0b 	call	0x1674	; 0x1674 <spi_select_slave>
     a0e:	85 e0       	ldi	r24, 0x05	; 5
     a10:	fe 01       	movw	r30, r28
     a12:	36 96       	adiw	r30, 0x06	; 6
     a14:	de 01       	movw	r26, r28
     a16:	11 96       	adiw	r26, 0x01	; 1
     a18:	01 90       	ld	r0, Z+
     a1a:	0d 92       	st	X+, r0
     a1c:	8a 95       	dec	r24
     a1e:	e1 f7       	brne	.-8      	; 0xa18 <io_board_read_buttons+0x7a>
     a20:	29 81       	ldd	r18, Y+1	; 0x01
     a22:	3a 81       	ldd	r19, Y+2	; 0x02
     a24:	4b 81       	ldd	r20, Y+3	; 0x03
     a26:	5c 81       	ldd	r21, Y+4	; 0x04
     a28:	6d 81       	ldd	r22, Y+5	; 0x05
     a2a:	70 e0       	ldi	r23, 0x00	; 0
     a2c:	80 e0       	ldi	r24, 0x00	; 0
     a2e:	90 e0       	ldi	r25, 0x00	; 0
     a30:	2a 96       	adiw	r28, 0x0a	; 10
     a32:	0f b6       	in	r0, 0x3f	; 63
     a34:	f8 94       	cli
     a36:	de bf       	out	0x3e, r29	; 62
     a38:	0f be       	out	0x3f, r0	; 63
     a3a:	cd bf       	out	0x3d, r28	; 61
     a3c:	df 91       	pop	r29
     a3e:	cf 91       	pop	r28
     a40:	08 95       	ret

00000a42 <io_board_set_led>:
     a42:	cf 93       	push	r28
     a44:	df 93       	push	r29
     a46:	d8 2f       	mov	r29, r24
     a48:	c6 2f       	mov	r28, r22
     a4a:	81 e0       	ldi	r24, 0x01	; 1
     a4c:	0e 94 3a 0b 	call	0x1674	; 0x1674 <spi_select_slave>
     a50:	85 e0       	ldi	r24, 0x05	; 5
     a52:	0e 94 68 0b 	call	0x16d0	; 0x16d0 <spi_write_byte>
     a56:	0e 94 7b 0b 	call	0x16f6	; 0x16f6 <spi_read_byte>
     a5a:	8d 2f       	mov	r24, r29
     a5c:	0e 94 68 0b 	call	0x16d0	; 0x16d0 <spi_write_byte>
     a60:	0e 94 7b 0b 	call	0x16f6	; 0x16f6 <spi_read_byte>
     a64:	8c 2f       	mov	r24, r28
     a66:	0e 94 68 0b 	call	0x16d0	; 0x16d0 <spi_write_byte>
     a6a:	0e 94 7b 0b 	call	0x16f6	; 0x16f6 <spi_read_byte>
     a6e:	83 e0       	ldi	r24, 0x03	; 3
     a70:	0e 94 3a 0b 	call	0x1674	; 0x1674 <spi_select_slave>
     a74:	df 91       	pop	r29
     a76:	cf 91       	pop	r28
     a78:	08 95       	ret

00000a7a <get_nav_direction>:
     a7a:	cf 93       	push	r28
     a7c:	df 93       	push	r29
     a7e:	00 d0       	rcall	.+0      	; 0xa80 <get_nav_direction+0x6>
     a80:	00 d0       	rcall	.+0      	; 0xa82 <get_nav_direction+0x8>
     a82:	1f 92       	push	r1
     a84:	cd b7       	in	r28, 0x3d	; 61
     a86:	de b7       	in	r29, 0x3e	; 62
     a88:	61 fd       	sbrc	r22, 1
     a8a:	08 c0       	rjmp	.+16     	; 0xa9c <get_nav_direction+0x22>
     a8c:	62 fd       	sbrc	r22, 2
     a8e:	08 c0       	rjmp	.+16     	; 0xaa0 <get_nav_direction+0x26>
     a90:	63 fd       	sbrc	r22, 3
     a92:	08 c0       	rjmp	.+16     	; 0xaa4 <get_nav_direction+0x2a>
     a94:	64 ff       	sbrs	r22, 4
     a96:	08 c0       	rjmp	.+16     	; 0xaa8 <get_nav_direction+0x2e>
     a98:	82 e0       	ldi	r24, 0x02	; 2
     a9a:	07 c0       	rjmp	.+14     	; 0xaaa <get_nav_direction+0x30>
     a9c:	81 e0       	ldi	r24, 0x01	; 1
     a9e:	05 c0       	rjmp	.+10     	; 0xaaa <get_nav_direction+0x30>
     aa0:	83 e0       	ldi	r24, 0x03	; 3
     aa2:	03 c0       	rjmp	.+6      	; 0xaaa <get_nav_direction+0x30>
     aa4:	80 e0       	ldi	r24, 0x00	; 0
     aa6:	01 c0       	rjmp	.+2      	; 0xaaa <get_nav_direction+0x30>
     aa8:	84 e0       	ldi	r24, 0x04	; 4
     aaa:	0f 90       	pop	r0
     aac:	0f 90       	pop	r0
     aae:	0f 90       	pop	r0
     ab0:	0f 90       	pop	r0
     ab2:	0f 90       	pop	r0
     ab4:	df 91       	pop	r29
     ab6:	cf 91       	pop	r28
     ab8:	08 95       	ret

00000aba <get_nav_pressed>:
     aba:	cf 93       	push	r28
     abc:	df 93       	push	r29
     abe:	00 d0       	rcall	.+0      	; 0xac0 <get_nav_pressed+0x6>
     ac0:	00 d0       	rcall	.+0      	; 0xac2 <get_nav_pressed+0x8>
     ac2:	1f 92       	push	r1
     ac4:	cd b7       	in	r28, 0x3d	; 61
     ac6:	de b7       	in	r29, 0x3e	; 62
     ac8:	86 2f       	mov	r24, r22
     aca:	81 70       	andi	r24, 0x01	; 1
     acc:	0f 90       	pop	r0
     ace:	0f 90       	pop	r0
     ad0:	0f 90       	pop	r0
     ad2:	0f 90       	pop	r0
     ad4:	0f 90       	pop	r0
     ad6:	df 91       	pop	r29
     ad8:	cf 91       	pop	r28
     ada:	08 95       	ret

00000adc <send_joystick_data>:
     adc:	0f 93       	push	r16
     ade:	1f 93       	push	r17
     ae0:	cf 93       	push	r28
     ae2:	df 93       	push	r29
     ae4:	cd b7       	in	r28, 0x3d	; 61
     ae6:	de b7       	in	r29, 0x3e	; 62
     ae8:	2a 97       	sbiw	r28, 0x0a	; 10
     aea:	0f b6       	in	r0, 0x3f	; 63
     aec:	f8 94       	cli
     aee:	de bf       	out	0x3e, r29	; 62
     af0:	0f be       	out	0x3f, r0	; 63
     af2:	cd bf       	out	0x3d, r28	; 61
     af4:	ee e8       	ldi	r30, 0x8E	; 142
     af6:	f1 e0       	ldi	r31, 0x01	; 1
     af8:	2a e0       	ldi	r18, 0x0A	; 10
     afa:	30 e0       	ldi	r19, 0x00	; 0
     afc:	31 83       	std	Z+1, r19	; 0x01
     afe:	20 83       	st	Z, r18
     b00:	93 e0       	ldi	r25, 0x03	; 3
     b02:	92 83       	std	Z+2, r25	; 0x02
     b04:	43 83       	std	Z+3, r20	; 0x03
     b06:	04 83       	std	Z+4, r16	; 0x04
     b08:	85 83       	std	Z+5, r24	; 0x05
     b0a:	cf 01       	movw	r24, r30
     b0c:	0e 94 5c 03 	call	0x6b8	; 0x6b8 <can_transmit>
     b10:	2a 96       	adiw	r28, 0x0a	; 10
     b12:	0f b6       	in	r0, 0x3f	; 63
     b14:	f8 94       	cli
     b16:	de bf       	out	0x3e, r29	; 62
     b18:	0f be       	out	0x3f, r0	; 63
     b1a:	cd bf       	out	0x3d, r28	; 61
     b1c:	df 91       	pop	r29
     b1e:	cf 91       	pop	r28
     b20:	1f 91       	pop	r17
     b22:	0f 91       	pop	r16
     b24:	08 95       	ret

00000b26 <main>:
#include "can/can_controller.h"
#include "joystick/joystick.h"
#include "menu/menu.h"


int main(void) {
     b26:	cf 93       	push	r28
     b28:	df 93       	push	r29
     b2a:	cd b7       	in	r28, 0x3d	; 61
     b2c:	de b7       	in	r29, 0x3e	; 62
     b2e:	a3 97       	sbiw	r28, 0x23	; 35
     b30:	0f b6       	in	r0, 0x3f	; 63
     b32:	f8 94       	cli
     b34:	de bf       	out	0x3e, r29	; 62
     b36:	0f be       	out	0x3f, r0	; 63
     b38:	cd bf       	out	0x3d, r28	; 61
	

	uart_init(9600);
     b3a:	60 e8       	ldi	r22, 0x80	; 128
     b3c:	75 e2       	ldi	r23, 0x25	; 37
     b3e:	80 e0       	ldi	r24, 0x00	; 0
     b40:	90 e0       	ldi	r25, 0x00	; 0
     b42:	0e 94 c0 0b 	call	0x1780	; 0x1780 <uart_init>
	xmem_init();
     b46:	0e 94 d7 0b 	call	0x17ae	; 0x17ae <xmem_init>
	adc_init();
     b4a:	0e 94 e3 02 	call	0x5c6	; 0x5c6 <adc_init>
	oled_init();
     b4e:	0e 94 2a 09 	call	0x1254	; 0x1254 <oled_init>
	io_board_init(); 	
     b52:	0e 94 cc 04 	call	0x998	; 0x998 <io_board_init>
	doublebuf_init();
     b56:	0e 94 e1 09 	call	0x13c2	; 0x13c2 <doublebuf_init>
	can_init();
     b5a:	0e 94 26 03 	call	0x64c	; 0x64c <can_init>
	menu_init();
     b5e:	0e 94 02 07 	call	0xe04	; 0xe04 <menu_init>
	draw_string_big_to_buffer(0, 0, "Starting...");
	request_buffer_swap();
	while(!update_screen()) {}
	*/
	 
	clear_all_buffers();
     b62:	0e 94 08 0a 	call	0x1410	; 0x1410 <clear_all_buffers>
	draw_main_menu_to_buffer();
     b66:	0e 94 d3 07 	call	0xfa6	; 0xfa6 <draw_main_menu_to_buffer>
	
	io_board_set_led(2, ON);
     b6a:	61 e0       	ldi	r22, 0x01	; 1
     b6c:	82 e0       	ldi	r24, 0x02	; 2
     b6e:	0e 94 21 05 	call	0xa42	; 0xa42 <io_board_set_led>
	io_board_set_led(4, ON);
     b72:	61 e0       	ldi	r22, 0x01	; 1
     b74:	84 e0       	ldi	r24, 0x04	; 4
     b76:	0e 94 21 05 	call	0xa42	; 0xa42 <io_board_set_led>
	can_message_t game_over_sig;
	
	uint8_t prev_pressed = 0; 
	
	uint8_t final_score; 
	char letters[3] = {'A', 'A', 'A'}; 
     b7a:	81 e4       	ldi	r24, 0x41	; 65
     b7c:	8c 87       	std	Y+12, r24	; 0x0c
     b7e:	8d 87       	std	Y+13, r24	; 0x0d
     b80:	8e 87       	std	Y+14, r24	; 0x0e
	
	state global_state = HOME;
	direction prev_dir = NEUTRAL;
	can_message_t game_over_sig;
	
	uint8_t prev_pressed = 0; 
     b82:	e1 2c       	mov	r14, r1
		SAVE,
		LEADERBOARD,
	} typedef state;
	
	state global_state = HOME;
	direction prev_dir = NEUTRAL;
     b84:	68 94       	set
     b86:	dd 24       	eor	r13, r13
     b88:	d2 f8       	bld	r13, 2
		GAME,
		SAVE,
		LEADERBOARD,
	} typedef state;
	
	state global_state = HOME;
     b8a:	f1 2c       	mov	r15, r1
	
	uint8_t final_score; 
	char letters[3] = {'A', 'A', 'A'}; 
	
	while (1) {
		if (global_state == HOME) {
     b8c:	f1 10       	cpse	r15, r1
     b8e:	54 c0       	rjmp	.+168    	; 0xc38 <main+0x112>
			const buttons_t buttons = io_board_read_buttons();
     b90:	0e 94 cf 04 	call	0x99e	; 0x99e <io_board_read_buttons>
     b94:	94 2f       	mov	r25, r20
     b96:	75 2f       	mov	r23, r21
     b98:	86 2f       	mov	r24, r22
     b9a:	2a 8f       	std	Y+26, r18	; 0x1a
     b9c:	3b 8f       	std	Y+27, r19	; 0x1b
     b9e:	4c 8f       	std	Y+28, r20	; 0x1c
     ba0:	5d 8f       	std	Y+29, r21	; 0x1d
     ba2:	6e 8f       	std	Y+30, r22	; 0x1e
			//printf("getting directions\n");
			const direction dir = get_nav_direction(buttons);
     ba4:	42 2f       	mov	r20, r18
     ba6:	53 2f       	mov	r21, r19
     ba8:	69 2f       	mov	r22, r25
     baa:	0e 94 3d 05 	call	0xa7a	; 0xa7a <get_nav_direction>
     bae:	18 2f       	mov	r17, r24
			const uint8_t pressed = get_nav_pressed(buttons);
     bb0:	4a 8d       	ldd	r20, Y+26	; 0x1a
     bb2:	5b 8d       	ldd	r21, Y+27	; 0x1b
     bb4:	6c 8d       	ldd	r22, Y+28	; 0x1c
     bb6:	7d 8d       	ldd	r23, Y+29	; 0x1d
     bb8:	8e 8d       	ldd	r24, Y+30	; 0x1e
     bba:	0e 94 5d 05 	call	0xaba	; 0xaba <get_nav_pressed>
     bbe:	08 2f       	mov	r16, r24
			if (dir != prev_dir) {
     bc0:	d1 16       	cp	r13, r17
     bc2:	b1 f0       	breq	.+44     	; 0xbf0 <main+0xca>
				if (dir == UP && main_menu.selected == 1) {
     bc4:	12 30       	cpi	r17, 0x02	; 2
     bc6:	49 f4       	brne	.+18     	; 0xbda <main+0xb4>
     bc8:	80 91 a3 01 	lds	r24, 0x01A3	; 0x8001a3 <main_menu>
     bcc:	81 30       	cpi	r24, 0x01	; 1
     bce:	29 f4       	brne	.+10     	; 0xbda <main+0xb4>
					main_menu.selected = 0;
     bd0:	10 92 a3 01 	sts	0x01A3, r1	; 0x8001a3 <main_menu>
					draw_main_menu_to_buffer();
     bd4:	0e 94 d3 07 	call	0xfa6	; 0xfa6 <draw_main_menu_to_buffer>
     bd8:	0b c0       	rjmp	.+22     	; 0xbf0 <main+0xca>
				} else if (dir == DOWN && main_menu.selected == 0) {
     bda:	13 30       	cpi	r17, 0x03	; 3
     bdc:	49 f4       	brne	.+18     	; 0xbf0 <main+0xca>
     bde:	80 91 a3 01 	lds	r24, 0x01A3	; 0x8001a3 <main_menu>
     be2:	81 11       	cpse	r24, r1
     be4:	05 c0       	rjmp	.+10     	; 0xbf0 <main+0xca>
					main_menu.selected = 1;
     be6:	81 e0       	ldi	r24, 0x01	; 1
     be8:	80 93 a3 01 	sts	0x01A3, r24	; 0x8001a3 <main_menu>
					draw_main_menu_to_buffer();
     bec:	0e 94 d3 07 	call	0xfa6	; 0xfa6 <draw_main_menu_to_buffer>
				}
			}
			if (pressed && pressed != prev_pressed) {
     bf0:	00 23       	and	r16, r16
     bf2:	e9 f0       	breq	.+58     	; 0xc2e <main+0x108>
     bf4:	e0 16       	cp	r14, r16
     bf6:	d9 f0       	breq	.+54     	; 0xc2e <main+0x108>
				if (main_menu.selected == 0) {
     bf8:	80 91 a3 01 	lds	r24, 0x01A3	; 0x8001a3 <main_menu>
     bfc:	81 11       	cpse	r24, r1
     bfe:	0f c0       	rjmp	.+30     	; 0xc1e <main+0xf8>
					global_state = GAME;
					clear_all_buffers();
     c00:	0e 94 08 0a 	call	0x1410	; 0x1410 <clear_all_buffers>
					//_delay_ms(100);
					can_message_t start_playing_sig;
					start_playing_sig.id = 4;
     c04:	84 e0       	ldi	r24, 0x04	; 4
     c06:	90 e0       	ldi	r25, 0x00	; 0
     c08:	98 8b       	std	Y+16, r25	; 0x10
     c0a:	8f 87       	std	Y+15, r24	; 0x0f
					start_playing_sig.length = 1;
     c0c:	81 e0       	ldi	r24, 0x01	; 1
     c0e:	89 8b       	std	Y+17, r24	; 0x11
					can_transmit(&start_playing_sig);
     c10:	ce 01       	movw	r24, r28
     c12:	0f 96       	adiw	r24, 0x0f	; 15
     c14:	0e 94 5c 03 	call	0x6b8	; 0x6b8 <can_transmit>
					draw_main_menu_to_buffer();
				}
			}
			if (pressed && pressed != prev_pressed) {
				if (main_menu.selected == 0) {
					global_state = GAME;
     c18:	ff 24       	eor	r15, r15
     c1a:	f3 94       	inc	r15
     c1c:	08 c0       	rjmp	.+16     	; 0xc2e <main+0x108>
					//_delay_ms(100);
					can_message_t start_playing_sig;
					start_playing_sig.id = 4;
					start_playing_sig.length = 1;
					can_transmit(&start_playing_sig);
				} else if (main_menu.selected == 1) {
     c1e:	81 30       	cpi	r24, 0x01	; 1
     c20:	31 f4       	brne	.+12     	; 0xc2e <main+0x108>
					global_state = LEADERBOARD;
					clear_all_buffers();		
     c22:	0e 94 08 0a 	call	0x1410	; 0x1410 <clear_all_buffers>
					can_message_t start_playing_sig;
					start_playing_sig.id = 4;
					start_playing_sig.length = 1;
					can_transmit(&start_playing_sig);
				} else if (main_menu.selected == 1) {
					global_state = LEADERBOARD;
     c26:	0f 2e       	mov	r0, r31
     c28:	f3 e0       	ldi	r31, 0x03	; 3
     c2a:	ff 2e       	mov	r15, r31
     c2c:	f0 2d       	mov	r31, r0
				}

			}
			prev_pressed = pressed; 
			prev_dir = dir;
			update_screen();
     c2e:	0e 94 03 0b 	call	0x1606	; 0x1606 <update_screen>
					global_state = LEADERBOARD;
					clear_all_buffers();		
				}

			}
			prev_pressed = pressed; 
     c32:	e0 2e       	mov	r14, r16
			prev_dir = dir;
     c34:	d1 2e       	mov	r13, r17
     c36:	aa cf       	rjmp	.-172    	; 0xb8c <main+0x66>
			update_screen();
		} else if (global_state == GAME) {
     c38:	81 e0       	ldi	r24, 0x01	; 1
     c3a:	f8 12       	cpse	r15, r24
     c3c:	46 c0       	rjmp	.+140    	; 0xcca <main+0x1a4>
			const io_inputs_t in = get_io_inputs();
     c3e:	ce 01       	movw	r24, r28
     c40:	4a 96       	adiw	r24, 0x1a	; 26
     c42:	0e 94 f5 02 	call	0x5ea	; 0x5ea <get_io_inputs>
			send_joystick_data(in);
     c46:	0a 8d       	ldd	r16, Y+26	; 0x1a
     c48:	1b 8d       	ldd	r17, Y+27	; 0x1b
     c4a:	2c 8d       	ldd	r18, Y+28	; 0x1c
     c4c:	3d 8d       	ldd	r19, Y+29	; 0x1d
     c4e:	4e 8d       	ldd	r20, Y+30	; 0x1e
     c50:	5f 8d       	ldd	r21, Y+31	; 0x1f
     c52:	68 a1       	ldd	r22, Y+32	; 0x20
     c54:	79 a1       	ldd	r23, Y+33	; 0x21
     c56:	8a a1       	ldd	r24, Y+34	; 0x22
     c58:	9b a1       	ldd	r25, Y+35	; 0x23
     c5a:	0e 94 6e 05 	call	0xadc	; 0xadc <send_joystick_data>
     c5e:	8f ef       	ldi	r24, 0xFF	; 255
     c60:	9f e5       	ldi	r25, 0x5F	; 95
     c62:	01 97       	sbiw	r24, 0x01	; 1
     c64:	f1 f7       	brne	.-4      	; 0xc62 <main+0x13c>
     c66:	00 c0       	rjmp	.+0      	; 0xc68 <main+0x142>
     c68:	00 00       	nop
			_delay_ms(20); // Slow down can messaging
			if (can_receive(&game_over_sig)) {
     c6a:	ce 01       	movw	r24, r28
     c6c:	01 96       	adiw	r24, 0x01	; 1
     c6e:	0e 94 b8 03 	call	0x770	; 0x770 <can_receive>
     c72:	88 23       	and	r24, r24
     c74:	09 f4       	brne	.+2      	; 0xc78 <main+0x152>
     c76:	8a cf       	rjmp	.-236    	; 0xb8c <main+0x66>
				if (game_over_sig.id == 5) {
     c78:	89 81       	ldd	r24, Y+1	; 0x01
     c7a:	9a 81       	ldd	r25, Y+2	; 0x02
     c7c:	85 30       	cpi	r24, 0x05	; 5
     c7e:	91 05       	cpc	r25, r1
     c80:	d9 f4       	brne	.+54     	; 0xcb8 <main+0x192>
					printf("game over\r\n");
     c82:	87 e1       	ldi	r24, 0x17	; 23
     c84:	91 e0       	ldi	r25, 0x01	; 1
     c86:	0e 94 25 0c 	call	0x184a	; 0x184a <puts>
					final_score = game_over_sig.data[0];
     c8a:	cc 80       	ldd	r12, Y+4	; 0x04
					global_state = SAVE;
					clear_all_buffers();
     c8c:	0e 94 08 0a 	call	0x1410	; 0x1410 <clear_all_buffers>
					draw_save('A', 'A', 'A', final_score);
     c90:	2c 2d       	mov	r18, r12
     c92:	41 e4       	ldi	r20, 0x41	; 65
     c94:	61 e4       	ldi	r22, 0x41	; 65
     c96:	81 e4       	ldi	r24, 0x41	; 65
     c98:	0e 94 c6 08 	call	0x118c	; 0x118c <draw_save>
					can_message_t end_ack_sig;
					end_ack_sig.id = 3;
     c9c:	83 e0       	ldi	r24, 0x03	; 3
     c9e:	90 e0       	ldi	r25, 0x00	; 0
     ca0:	98 8b       	std	Y+16, r25	; 0x10
     ca2:	8f 87       	std	Y+15, r24	; 0x0f
					end_ack_sig.length = 1;
     ca4:	81 e0       	ldi	r24, 0x01	; 1
     ca6:	89 8b       	std	Y+17, r24	; 0x11
					can_transmit(&end_ack_sig);
     ca8:	ce 01       	movw	r24, r28
     caa:	0f 96       	adiw	r24, 0x0f	; 15
     cac:	0e 94 5c 03 	call	0x6b8	; 0x6b8 <can_transmit>
			_delay_ms(20); // Slow down can messaging
			if (can_receive(&game_over_sig)) {
				if (game_over_sig.id == 5) {
					printf("game over\r\n");
					final_score = game_over_sig.data[0];
					global_state = SAVE;
     cb0:	68 94       	set
     cb2:	ff 24       	eor	r15, r15
     cb4:	f1 f8       	bld	r15, 1
     cb6:	6a cf       	rjmp	.-300    	; 0xb8c <main+0x66>
					draw_save('A', 'A', 'A', final_score);
					can_message_t end_ack_sig;
					end_ack_sig.id = 3;
					end_ack_sig.length = 1;
					can_transmit(&end_ack_sig);
				} else if (game_over_sig.id == 15) {
     cb8:	0f 97       	sbiw	r24, 0x0f	; 15
     cba:	09 f0       	breq	.+2      	; 0xcbe <main+0x198>
     cbc:	67 cf       	rjmp	.-306    	; 0xb8c <main+0x66>
					//printf("score: %d \n", game_over_sig.data[0]);
					draw_in_game(game_over_sig.data[0]);
     cbe:	8c 81       	ldd	r24, Y+4	; 0x04
     cc0:	0e 94 8e 08 	call	0x111c	; 0x111c <draw_in_game>
					update_screen();
     cc4:	0e 94 03 0b 	call	0x1606	; 0x1606 <update_screen>
     cc8:	61 cf       	rjmp	.-318    	; 0xb8c <main+0x66>
				}
			}
			// TODO: Recevoir score
			// TODO: Recevoir fin de partie
		} else if (global_state == SAVE) {
     cca:	92 e0       	ldi	r25, 0x02	; 2
     ccc:	f9 12       	cpse	r15, r25
     cce:	76 c0       	rjmp	.+236    	; 0xdbc <main+0x296>
			const buttons_t buttons = io_board_read_buttons();
     cd0:	0e 94 cf 04 	call	0x99e	; 0x99e <io_board_read_buttons>
     cd4:	94 2f       	mov	r25, r20
     cd6:	75 2f       	mov	r23, r21
     cd8:	86 2f       	mov	r24, r22
     cda:	2f 87       	std	Y+15, r18	; 0x0f
     cdc:	38 8b       	std	Y+16, r19	; 0x10
     cde:	49 8b       	std	Y+17, r20	; 0x11
     ce0:	5a 8b       	std	Y+18, r21	; 0x12
     ce2:	6b 8b       	std	Y+19, r22	; 0x13
			const direction dir = get_nav_direction(buttons);
     ce4:	42 2f       	mov	r20, r18
     ce6:	53 2f       	mov	r21, r19
     ce8:	69 2f       	mov	r22, r25
     cea:	0e 94 3d 05 	call	0xa7a	; 0xa7a <get_nav_direction>
     cee:	18 2f       	mov	r17, r24
			const uint8_t pressed = get_nav_pressed(buttons);
     cf0:	4f 85       	ldd	r20, Y+15	; 0x0f
     cf2:	58 89       	ldd	r21, Y+16	; 0x10
     cf4:	69 89       	ldd	r22, Y+17	; 0x11
     cf6:	7a 89       	ldd	r23, Y+18	; 0x12
     cf8:	8b 89       	ldd	r24, Y+19	; 0x13
     cfa:	0e 94 5d 05 	call	0xaba	; 0xaba <get_nav_pressed>
     cfe:	08 2f       	mov	r16, r24
			if(pressed && pressed != prev_pressed) {
     d00:	88 23       	and	r24, r24
     d02:	c1 f0       	breq	.+48     	; 0xd34 <main+0x20e>
     d04:	e8 16       	cp	r14, r24
     d06:	b1 f0       	breq	.+44     	; 0xd34 <main+0x20e>
				save.selected++; 
     d08:	80 91 a2 01 	lds	r24, 0x01A2	; 0x8001a2 <save>
     d0c:	8f 5f       	subi	r24, 0xFF	; 255
     d0e:	80 93 a2 01 	sts	0x01A2, r24	; 0x8001a2 <save>
				draw_save(letters[0], letters[1], letters[2], final_score);
     d12:	2c 2d       	mov	r18, r12
     d14:	4e 85       	ldd	r20, Y+14	; 0x0e
     d16:	6d 85       	ldd	r22, Y+13	; 0x0d
     d18:	8c 85       	ldd	r24, Y+12	; 0x0c
     d1a:	0e 94 c6 08 	call	0x118c	; 0x118c <draw_save>
				if(save.selected > 2) {
     d1e:	80 91 a2 01 	lds	r24, 0x01A2	; 0x8001a2 <save>
     d22:	83 30       	cpi	r24, 0x03	; 3
     d24:	38 f0       	brcs	.+14     	; 0xd34 <main+0x20e>
					// TODO save pour de vrai
					global_state = HOME;
					clear_all_buffers();
     d26:	0e 94 08 0a 	call	0x1410	; 0x1410 <clear_all_buffers>
					draw_main_menu_to_buffer();
     d2a:	0e 94 d3 07 	call	0xfa6	; 0xfa6 <draw_main_menu_to_buffer>
					save.selected = 0; 
     d2e:	10 92 a2 01 	sts	0x01A2, r1	; 0x8001a2 <save>
			if(pressed && pressed != prev_pressed) {
				save.selected++; 
				draw_save(letters[0], letters[1], letters[2], final_score);
				if(save.selected > 2) {
					// TODO save pour de vrai
					global_state = HOME;
     d32:	f1 2c       	mov	r15, r1
					draw_main_menu_to_buffer();
					save.selected = 0; 
				}
			}
			prev_pressed = pressed; 
			if (dir != prev_dir) {
     d34:	d1 16       	cp	r13, r17
     d36:	e9 f1       	breq	.+122    	; 0xdb2 <main+0x28c>
				if (dir == UP) {
     d38:	12 30       	cpi	r17, 0x02	; 2
     d3a:	e9 f4       	brne	.+58     	; 0xd76 <main+0x250>
					letters[save.selected]--;
     d3c:	80 91 a2 01 	lds	r24, 0x01A2	; 0x8001a2 <save>
     d40:	90 e0       	ldi	r25, 0x00	; 0
     d42:	ec e0       	ldi	r30, 0x0C	; 12
     d44:	f0 e0       	ldi	r31, 0x00	; 0
     d46:	ec 0f       	add	r30, r28
     d48:	fd 1f       	adc	r31, r29
     d4a:	e8 0f       	add	r30, r24
     d4c:	f9 1f       	adc	r31, r25
     d4e:	20 81       	ld	r18, Z
     d50:	21 50       	subi	r18, 0x01	; 1
     d52:	20 83       	st	Z, r18
					if(letters[save.selected] < 'A') {
     d54:	21 34       	cpi	r18, 0x41	; 65
     d56:	40 f4       	brcc	.+16     	; 0xd68 <main+0x242>
						letters[save.selected] = 'Z';
     d58:	ec e0       	ldi	r30, 0x0C	; 12
     d5a:	f0 e0       	ldi	r31, 0x00	; 0
     d5c:	ec 0f       	add	r30, r28
     d5e:	fd 1f       	adc	r31, r29
     d60:	e8 0f       	add	r30, r24
     d62:	f9 1f       	adc	r31, r25
     d64:	2a e5       	ldi	r18, 0x5A	; 90
     d66:	20 83       	st	Z, r18
					}
					draw_save(letters[0], letters[1], letters[2], final_score);
     d68:	2c 2d       	mov	r18, r12
     d6a:	4e 85       	ldd	r20, Y+14	; 0x0e
     d6c:	6d 85       	ldd	r22, Y+13	; 0x0d
     d6e:	8c 85       	ldd	r24, Y+12	; 0x0c
     d70:	0e 94 c6 08 	call	0x118c	; 0x118c <draw_save>
     d74:	1e c0       	rjmp	.+60     	; 0xdb2 <main+0x28c>
				} else if (dir == DOWN) {
     d76:	13 30       	cpi	r17, 0x03	; 3
     d78:	e1 f4       	brne	.+56     	; 0xdb2 <main+0x28c>
					letters[save.selected]++;
     d7a:	80 91 a2 01 	lds	r24, 0x01A2	; 0x8001a2 <save>
     d7e:	90 e0       	ldi	r25, 0x00	; 0
     d80:	ec e0       	ldi	r30, 0x0C	; 12
     d82:	f0 e0       	ldi	r31, 0x00	; 0
     d84:	ec 0f       	add	r30, r28
     d86:	fd 1f       	adc	r31, r29
     d88:	e8 0f       	add	r30, r24
     d8a:	f9 1f       	adc	r31, r25
     d8c:	20 81       	ld	r18, Z
     d8e:	2f 5f       	subi	r18, 0xFF	; 255
     d90:	20 83       	st	Z, r18
					if(letters[save.selected] > 'Z') {
     d92:	2b 35       	cpi	r18, 0x5B	; 91
     d94:	40 f0       	brcs	.+16     	; 0xda6 <main+0x280>
						letters[save.selected] = 'A';
     d96:	ec e0       	ldi	r30, 0x0C	; 12
     d98:	f0 e0       	ldi	r31, 0x00	; 0
     d9a:	ec 0f       	add	r30, r28
     d9c:	fd 1f       	adc	r31, r29
     d9e:	e8 0f       	add	r30, r24
     da0:	f9 1f       	adc	r31, r25
     da2:	21 e4       	ldi	r18, 0x41	; 65
     da4:	20 83       	st	Z, r18
					}
					draw_save(letters[0], letters[1], letters[2], final_score);
     da6:	2c 2d       	mov	r18, r12
     da8:	4e 85       	ldd	r20, Y+14	; 0x0e
     daa:	6d 85       	ldd	r22, Y+13	; 0x0d
     dac:	8c 85       	ldd	r24, Y+12	; 0x0c
     dae:	0e 94 c6 08 	call	0x118c	; 0x118c <draw_save>
				}
			}
			prev_dir = dir;
			update_screen(); 
     db2:	0e 94 03 0b 	call	0x1606	; 0x1606 <update_screen>
					clear_all_buffers();
					draw_main_menu_to_buffer();
					save.selected = 0; 
				}
			}
			prev_pressed = pressed; 
     db6:	e0 2e       	mov	r14, r16
						letters[save.selected] = 'A';
					}
					draw_save(letters[0], letters[1], letters[2], final_score);
				}
			}
			prev_dir = dir;
     db8:	d1 2e       	mov	r13, r17
     dba:	e8 ce       	rjmp	.-560    	; 0xb8c <main+0x66>
			update_screen(); 
		} else if (global_state == LEADERBOARD) {
     dbc:	83 e0       	ldi	r24, 0x03	; 3
     dbe:	f8 12       	cpse	r15, r24
     dc0:	e5 ce       	rjmp	.-566    	; 0xb8c <main+0x66>
			draw_leaderboard_to_buffer();
     dc2:	0e 94 fd 07 	call	0xffa	; 0xffa <draw_leaderboard_to_buffer>
			while(!update_screen()) {}
     dc6:	0e 94 03 0b 	call	0x1606	; 0x1606 <update_screen>
     dca:	88 23       	and	r24, r24
     dcc:	e1 f3       	breq	.-8      	; 0xdc6 <main+0x2a0>
			while (1) {
				const buttons_t buttons = io_board_read_buttons();
     dce:	0e 94 cf 04 	call	0x99e	; 0x99e <io_board_read_buttons>
     dd2:	94 2f       	mov	r25, r20
     dd4:	75 2f       	mov	r23, r21
     dd6:	86 2f       	mov	r24, r22
     dd8:	2f 87       	std	Y+15, r18	; 0x0f
     dda:	38 8b       	std	Y+16, r19	; 0x10
     ddc:	49 8b       	std	Y+17, r20	; 0x11
     dde:	5a 8b       	std	Y+18, r21	; 0x12
     de0:	6b 8b       	std	Y+19, r22	; 0x13
				const uint8_t pressed = get_nav_pressed(buttons);
     de2:	42 2f       	mov	r20, r18
     de4:	53 2f       	mov	r21, r19
     de6:	69 2f       	mov	r22, r25
     de8:	0e 94 5d 05 	call	0xaba	; 0xaba <get_nav_pressed>
				if (pressed && pressed != prev_pressed) {
     dec:	88 23       	and	r24, r24
     dee:	41 f0       	breq	.+16     	; 0xe00 <main+0x2da>
     df0:	e8 16       	cp	r14, r24
     df2:	31 f0       	breq	.+12     	; 0xe00 <main+0x2da>
					global_state = HOME; 
					clear_all_buffers();
     df4:	0e 94 08 0a 	call	0x1410	; 0x1410 <clear_all_buffers>
					draw_main_menu_to_buffer();
     df8:	0e 94 d3 07 	call	0xfa6	; 0xfa6 <draw_main_menu_to_buffer>
			while(!update_screen()) {}
			while (1) {
				const buttons_t buttons = io_board_read_buttons();
				const uint8_t pressed = get_nav_pressed(buttons);
				if (pressed && pressed != prev_pressed) {
					global_state = HOME; 
     dfc:	f1 2c       	mov	r15, r1
     dfe:	c6 ce       	rjmp	.-628    	; 0xb8c <main+0x66>
					clear_all_buffers();
					draw_main_menu_to_buffer();
					break; 
				}
				prev_pressed = pressed; 
     e00:	e8 2e       	mov	r14, r24
			}
     e02:	e5 cf       	rjmp	.-54     	; 0xdce <main+0x2a8>

00000e04 <menu_init>:
#include <stdio.h>

#define LEADERBOARD_BASE 2048

void menu_init(void) {
	main_menu.selected = 0;
     e04:	10 92 a3 01 	sts	0x01A3, r1	; 0x8001a3 <main_menu>
	save.selected = 0; 
     e08:	10 92 a2 01 	sts	0x01A2, r1	; 0x8001a2 <save>
	
	xmem_write(2, LEADERBOARD_BASE); 
     e0c:	60 e0       	ldi	r22, 0x00	; 0
     e0e:	78 e0       	ldi	r23, 0x08	; 8
     e10:	82 e0       	ldi	r24, 0x02	; 2
     e12:	0e 94 de 0b 	call	0x17bc	; 0x17bc <xmem_write>
	xmem_write('A', LEADERBOARD_BASE + 1); 
     e16:	61 e0       	ldi	r22, 0x01	; 1
     e18:	78 e0       	ldi	r23, 0x08	; 8
     e1a:	81 e4       	ldi	r24, 0x41	; 65
     e1c:	0e 94 de 0b 	call	0x17bc	; 0x17bc <xmem_write>
	xmem_write('B', LEADERBOARD_BASE + 2);
     e20:	62 e0       	ldi	r22, 0x02	; 2
     e22:	78 e0       	ldi	r23, 0x08	; 8
     e24:	82 e4       	ldi	r24, 0x42	; 66
     e26:	0e 94 de 0b 	call	0x17bc	; 0x17bc <xmem_write>
	xmem_write('C', LEADERBOARD_BASE + 3);
     e2a:	63 e0       	ldi	r22, 0x03	; 3
     e2c:	78 e0       	ldi	r23, 0x08	; 8
     e2e:	83 e4       	ldi	r24, 0x43	; 67
     e30:	0e 94 de 0b 	call	0x17bc	; 0x17bc <xmem_write>
	xmem_write(22, LEADERBOARD_BASE + 4);
     e34:	64 e0       	ldi	r22, 0x04	; 4
     e36:	78 e0       	ldi	r23, 0x08	; 8
     e38:	86 e1       	ldi	r24, 0x16	; 22
     e3a:	0e 94 de 0b 	call	0x17bc	; 0x17bc <xmem_write>

	xmem_write('D', LEADERBOARD_BASE + 5);
     e3e:	65 e0       	ldi	r22, 0x05	; 5
     e40:	78 e0       	ldi	r23, 0x08	; 8
     e42:	84 e4       	ldi	r24, 0x44	; 68
     e44:	0e 94 de 0b 	call	0x17bc	; 0x17bc <xmem_write>
	xmem_write('E', LEADERBOARD_BASE + 6);
     e48:	66 e0       	ldi	r22, 0x06	; 6
     e4a:	78 e0       	ldi	r23, 0x08	; 8
     e4c:	85 e4       	ldi	r24, 0x45	; 69
     e4e:	0e 94 de 0b 	call	0x17bc	; 0x17bc <xmem_write>
	xmem_write('F', LEADERBOARD_BASE + 7);
     e52:	67 e0       	ldi	r22, 0x07	; 7
     e54:	78 e0       	ldi	r23, 0x08	; 8
     e56:	86 e4       	ldi	r24, 0x46	; 70
     e58:	0e 94 de 0b 	call	0x17bc	; 0x17bc <xmem_write>
	xmem_write(99, LEADERBOARD_BASE + 8);
     e5c:	68 e0       	ldi	r22, 0x08	; 8
     e5e:	78 e0       	ldi	r23, 0x08	; 8
     e60:	83 e6       	ldi	r24, 0x63	; 99
     e62:	0e 94 de 0b 	call	0x17bc	; 0x17bc <xmem_write>
     e66:	08 95       	ret

00000e68 <draw_raquette_to_buffer>:
}

void draw_raquette_to_buffer(uint8_t page, uint8_t col) {
     e68:	bf 92       	push	r11
     e6a:	cf 92       	push	r12
     e6c:	df 92       	push	r13
     e6e:	ef 92       	push	r14
     e70:	ff 92       	push	r15
     e72:	0f 93       	push	r16
     e74:	1f 93       	push	r17
     e76:	cf 93       	push	r28
     e78:	df 93       	push	r29
     e7a:	e8 2e       	mov	r14, r24
     e7c:	b6 2e       	mov	r11, r22
	uint16_t base = buf_base_of(active_buf);
     e7e:	80 91 00 01 	lds	r24, 0x0100	; 0x800100 <__DATA_REGION_ORIGIN__>
     e82:	0e 94 b5 09 	call	0x136a	; 0x136a <buf_base_of>
     e86:	6c 01       	movw	r12, r24
	// Draw the first raquette
	for(int i = 0; i < 3; i++) {
     e88:	00 e0       	ldi	r16, 0x00	; 0
     e8a:	10 e0       	ldi	r17, 0x00	; 0
     e8c:	29 c0       	rjmp	.+82     	; 0xee0 <draw_raquette_to_buffer+0x78>
		for(int j =0; j < 23; j++) {
			const uint8_t data = pgm_read_byte(&(raquette[i][22 - j]));
     e8e:	e6 e1       	ldi	r30, 0x16	; 22
     e90:	f0 e0       	ldi	r31, 0x00	; 0
     e92:	ec 1b       	sub	r30, r28
     e94:	fd 0b       	sbc	r31, r29
     e96:	27 e1       	ldi	r18, 0x17	; 23
     e98:	20 9f       	mul	r18, r16
     e9a:	c0 01       	movw	r24, r0
     e9c:	21 9f       	mul	r18, r17
     e9e:	90 0d       	add	r25, r0
     ea0:	11 24       	eor	r1, r1
     ea2:	e8 0f       	add	r30, r24
     ea4:	f9 1f       	adc	r31, r25
     ea6:	e0 59       	subi	r30, 0x90	; 144
     ea8:	ff 4f       	sbci	r31, 0xFF	; 255
     eaa:	84 91       	lpm	r24, Z
			const uint16_t offset = base + (page + i) * WIDTH + (col + j);
     eac:	b8 01       	movw	r22, r16
     eae:	6e 0d       	add	r22, r14
     eb0:	71 1d       	adc	r23, r1
     eb2:	76 95       	lsr	r23
     eb4:	76 2f       	mov	r23, r22
     eb6:	66 27       	eor	r22, r22
     eb8:	77 95       	ror	r23
     eba:	67 95       	ror	r22
     ebc:	6c 0d       	add	r22, r12
     ebe:	7d 1d       	adc	r23, r13
     ec0:	9e 01       	movw	r18, r28
     ec2:	2b 0d       	add	r18, r11
     ec4:	31 1d       	adc	r19, r1
     ec6:	62 0f       	add	r22, r18
     ec8:	73 1f       	adc	r23, r19
			xmem_write(data, offset);
     eca:	0e 94 de 0b 	call	0x17bc	; 0x17bc <xmem_write>

void draw_raquette_to_buffer(uint8_t page, uint8_t col) {
	uint16_t base = buf_base_of(active_buf);
	// Draw the first raquette
	for(int i = 0; i < 3; i++) {
		for(int j =0; j < 23; j++) {
     ece:	21 96       	adiw	r28, 0x01	; 1
     ed0:	02 c0       	rjmp	.+4      	; 0xed6 <draw_raquette_to_buffer+0x6e>
     ed2:	c0 e0       	ldi	r28, 0x00	; 0
     ed4:	d0 e0       	ldi	r29, 0x00	; 0
     ed6:	c7 31       	cpi	r28, 0x17	; 23
     ed8:	d1 05       	cpc	r29, r1
     eda:	cc f2       	brlt	.-78     	; 0xe8e <draw_raquette_to_buffer+0x26>
}

void draw_raquette_to_buffer(uint8_t page, uint8_t col) {
	uint16_t base = buf_base_of(active_buf);
	// Draw the first raquette
	for(int i = 0; i < 3; i++) {
     edc:	0f 5f       	subi	r16, 0xFF	; 255
     ede:	1f 4f       	sbci	r17, 0xFF	; 255
     ee0:	03 30       	cpi	r16, 0x03	; 3
     ee2:	11 05       	cpc	r17, r1
     ee4:	b4 f3       	brlt	.-20     	; 0xed2 <draw_raquette_to_buffer+0x6a>
			xmem_write(data, offset);
		}
	}
	
	// Draw the ball
	xmem_write(0b00001110, base + page * WIDTH + (col + 30));
     ee6:	f1 2c       	mov	r15, r1
     ee8:	e7 01       	movw	r28, r14
     eea:	d6 95       	lsr	r29
     eec:	dc 2f       	mov	r29, r28
     eee:	cc 27       	eor	r28, r28
     ef0:	d7 95       	ror	r29
     ef2:	c7 95       	ror	r28
     ef4:	cc 0d       	add	r28, r12
     ef6:	dd 1d       	adc	r29, r13
     ef8:	cb 0d       	add	r28, r11
     efa:	d1 1d       	adc	r29, r1
     efc:	be 01       	movw	r22, r28
     efe:	62 5e       	subi	r22, 0xE2	; 226
     f00:	7f 4f       	sbci	r23, 0xFF	; 255
     f02:	8e e0       	ldi	r24, 0x0E	; 14
     f04:	0e 94 de 0b 	call	0x17bc	; 0x17bc <xmem_write>
	xmem_write(0b00011111, base + page * WIDTH + (col + 31));
     f08:	be 01       	movw	r22, r28
     f0a:	61 5e       	subi	r22, 0xE1	; 225
     f0c:	7f 4f       	sbci	r23, 0xFF	; 255
     f0e:	8f e1       	ldi	r24, 0x1F	; 31
     f10:	0e 94 de 0b 	call	0x17bc	; 0x17bc <xmem_write>
	xmem_write(0b00011111, base + page * WIDTH + (col + 32));
     f14:	be 01       	movw	r22, r28
     f16:	60 5e       	subi	r22, 0xE0	; 224
     f18:	7f 4f       	sbci	r23, 0xFF	; 255
     f1a:	8f e1       	ldi	r24, 0x1F	; 31
     f1c:	0e 94 de 0b 	call	0x17bc	; 0x17bc <xmem_write>
	xmem_write(0b00011111, base + page * WIDTH + (col + 33));
     f20:	be 01       	movw	r22, r28
     f22:	6f 5d       	subi	r22, 0xDF	; 223
     f24:	7f 4f       	sbci	r23, 0xFF	; 255
     f26:	8f e1       	ldi	r24, 0x1F	; 31
     f28:	0e 94 de 0b 	call	0x17bc	; 0x17bc <xmem_write>
	xmem_write(0b00001110, base + page * WIDTH + (col + 34));
     f2c:	be 01       	movw	r22, r28
     f2e:	6e 5d       	subi	r22, 0xDE	; 222
     f30:	7f 4f       	sbci	r23, 0xFF	; 255
     f32:	8e e0       	ldi	r24, 0x0E	; 14
     f34:	0e 94 de 0b 	call	0x17bc	; 0x17bc <xmem_write>

	// Draw the second raquette
	for(int i = 0; i < 3; i++) {
     f38:	00 e0       	ldi	r16, 0x00	; 0
     f3a:	10 e0       	ldi	r17, 0x00	; 0
     f3c:	27 c0       	rjmp	.+78     	; 0xf8c <draw_raquette_to_buffer+0x124>
		for(int j = 0; j < 23; j++) {
			const uint8_t data = pgm_read_byte(&(raquette[i][j]));
     f3e:	87 e1       	ldi	r24, 0x17	; 23
     f40:	80 9f       	mul	r24, r16
     f42:	f0 01       	movw	r30, r0
     f44:	81 9f       	mul	r24, r17
     f46:	f0 0d       	add	r31, r0
     f48:	11 24       	eor	r1, r1
     f4a:	ec 0f       	add	r30, r28
     f4c:	fd 1f       	adc	r31, r29
     f4e:	e0 59       	subi	r30, 0x90	; 144
     f50:	ff 4f       	sbci	r31, 0xFF	; 255
     f52:	84 91       	lpm	r24, Z
			const uint16_t offset = base + (page + i) * WIDTH + (col + j + 45);
     f54:	b8 01       	movw	r22, r16
     f56:	6e 0d       	add	r22, r14
     f58:	7f 1d       	adc	r23, r15
     f5a:	76 95       	lsr	r23
     f5c:	76 2f       	mov	r23, r22
     f5e:	66 27       	eor	r22, r22
     f60:	77 95       	ror	r23
     f62:	67 95       	ror	r22
     f64:	6c 0d       	add	r22, r12
     f66:	7d 1d       	adc	r23, r13
     f68:	9e 01       	movw	r18, r28
     f6a:	2b 0d       	add	r18, r11
     f6c:	31 1d       	adc	r19, r1
     f6e:	62 0f       	add	r22, r18
     f70:	73 1f       	adc	r23, r19
     f72:	63 5d       	subi	r22, 0xD3	; 211
     f74:	7f 4f       	sbci	r23, 0xFF	; 255
			xmem_write(data, offset);
     f76:	0e 94 de 0b 	call	0x17bc	; 0x17bc <xmem_write>
	xmem_write(0b00011111, base + page * WIDTH + (col + 33));
	xmem_write(0b00001110, base + page * WIDTH + (col + 34));

	// Draw the second raquette
	for(int i = 0; i < 3; i++) {
		for(int j = 0; j < 23; j++) {
     f7a:	21 96       	adiw	r28, 0x01	; 1
     f7c:	02 c0       	rjmp	.+4      	; 0xf82 <draw_raquette_to_buffer+0x11a>
     f7e:	c0 e0       	ldi	r28, 0x00	; 0
     f80:	d0 e0       	ldi	r29, 0x00	; 0
     f82:	c7 31       	cpi	r28, 0x17	; 23
     f84:	d1 05       	cpc	r29, r1
     f86:	dc f2       	brlt	.-74     	; 0xf3e <draw_raquette_to_buffer+0xd6>
	xmem_write(0b00011111, base + page * WIDTH + (col + 32));
	xmem_write(0b00011111, base + page * WIDTH + (col + 33));
	xmem_write(0b00001110, base + page * WIDTH + (col + 34));

	// Draw the second raquette
	for(int i = 0; i < 3; i++) {
     f88:	0f 5f       	subi	r16, 0xFF	; 255
     f8a:	1f 4f       	sbci	r17, 0xFF	; 255
     f8c:	03 30       	cpi	r16, 0x03	; 3
     f8e:	11 05       	cpc	r17, r1
     f90:	b4 f3       	brlt	.-20     	; 0xf7e <draw_raquette_to_buffer+0x116>
			const uint8_t data = pgm_read_byte(&(raquette[i][j]));
			const uint16_t offset = base + (page + i) * WIDTH + (col + j + 45);
			xmem_write(data, offset);
		}
	}
}
     f92:	df 91       	pop	r29
     f94:	cf 91       	pop	r28
     f96:	1f 91       	pop	r17
     f98:	0f 91       	pop	r16
     f9a:	ff 90       	pop	r15
     f9c:	ef 90       	pop	r14
     f9e:	df 90       	pop	r13
     fa0:	cf 90       	pop	r12
     fa2:	bf 90       	pop	r11
     fa4:	08 95       	ret

00000fa6 <draw_main_menu_to_buffer>:

void draw_main_menu_to_buffer() {
	draw_string_big_to_buffer(0, 0, "Menu Ping-Pong");
     fa6:	42 e2       	ldi	r20, 0x22	; 34
     fa8:	51 e0       	ldi	r21, 0x01	; 1
     faa:	60 e0       	ldi	r22, 0x00	; 0
     fac:	80 e0       	ldi	r24, 0x00	; 0
     fae:	0e 94 ac 0a 	call	0x1558	; 0x1558 <draw_string_big_to_buffer>
	draw_string_normal_to_buffer(2, 0, " Start");
     fb2:	41 e3       	ldi	r20, 0x31	; 49
     fb4:	51 e0       	ldi	r21, 0x01	; 1
     fb6:	60 e0       	ldi	r22, 0x00	; 0
     fb8:	82 e0       	ldi	r24, 0x02	; 2
     fba:	0e 94 56 0a 	call	0x14ac	; 0x14ac <draw_string_normal_to_buffer>
	draw_string_normal_to_buffer(3, 0, " Leaderboard");
     fbe:	48 e3       	ldi	r20, 0x38	; 56
     fc0:	51 e0       	ldi	r21, 0x01	; 1
     fc2:	60 e0       	ldi	r22, 0x00	; 0
     fc4:	83 e0       	ldi	r24, 0x03	; 3
     fc6:	0e 94 56 0a 	call	0x14ac	; 0x14ac <draw_string_normal_to_buffer>
	if (main_menu.selected == 0) {
     fca:	80 91 a3 01 	lds	r24, 0x01A3	; 0x8001a3 <main_menu>
     fce:	81 11       	cpse	r24, r1
     fd0:	06 c0       	rjmp	.+12     	; 0xfde <draw_main_menu_to_buffer+0x38>
		draw_char_normal_to_buffer(2, 0, '>');
     fd2:	4e e3       	ldi	r20, 0x3E	; 62
     fd4:	60 e0       	ldi	r22, 0x00	; 0
     fd6:	82 e0       	ldi	r24, 0x02	; 2
     fd8:	0e 94 1f 0a 	call	0x143e	; 0x143e <draw_char_normal_to_buffer>
     fdc:	07 c0       	rjmp	.+14     	; 0xfec <draw_main_menu_to_buffer+0x46>
		} else if (main_menu.selected == 1) {
     fde:	81 30       	cpi	r24, 0x01	; 1
     fe0:	29 f4       	brne	.+10     	; 0xfec <draw_main_menu_to_buffer+0x46>
		draw_char_normal_to_buffer(3, 0, '>');
     fe2:	4e e3       	ldi	r20, 0x3E	; 62
     fe4:	60 e0       	ldi	r22, 0x00	; 0
     fe6:	83 e0       	ldi	r24, 0x03	; 3
     fe8:	0e 94 1f 0a 	call	0x143e	; 0x143e <draw_char_normal_to_buffer>
	}
	draw_raquette_to_buffer(5, 28);
     fec:	6c e1       	ldi	r22, 0x1C	; 28
     fee:	85 e0       	ldi	r24, 0x05	; 5
     ff0:	0e 94 34 07 	call	0xe68	; 0xe68 <draw_raquette_to_buffer>
	request_buffer_swap();
     ff4:	0e 94 19 0a 	call	0x1432	; 0x1432 <request_buffer_swap>
     ff8:	08 95       	ret

00000ffa <draw_leaderboard_to_buffer>:
}

void draw_leaderboard_to_buffer() {
     ffa:	df 92       	push	r13
     ffc:	ef 92       	push	r14
     ffe:	ff 92       	push	r15
    1000:	0f 93       	push	r16
    1002:	1f 93       	push	r17
    1004:	cf 93       	push	r28
    1006:	df 93       	push	r29
    1008:	00 d0       	rcall	.+0      	; 0x100a <draw_leaderboard_to_buffer+0x10>
    100a:	00 d0       	rcall	.+0      	; 0x100c <draw_leaderboard_to_buffer+0x12>
    100c:	cd b7       	in	r28, 0x3d	; 61
    100e:	de b7       	in	r29, 0x3e	; 62
	draw_string_big_to_buffer(0, 0, "Leaderboard");
    1010:	49 e3       	ldi	r20, 0x39	; 57
    1012:	51 e0       	ldi	r21, 0x01	; 1
    1014:	60 e0       	ldi	r22, 0x00	; 0
    1016:	80 e0       	ldi	r24, 0x00	; 0
    1018:	0e 94 ac 0a 	call	0x1558	; 0x1558 <draw_string_big_to_buffer>
	
	uint8_t leaderboard_size = xmem_read(LEADERBOARD_BASE);
    101c:	80 e0       	ldi	r24, 0x00	; 0
    101e:	98 e0       	ldi	r25, 0x08	; 8
    1020:	0e 94 e2 0b 	call	0x17c4	; 0x17c4 <xmem_read>
    1024:	d8 2e       	mov	r13, r24
	printf("size: %d\n", leaderboard_size); 
    1026:	1f 92       	push	r1
    1028:	8f 93       	push	r24
    102a:	85 e4       	ldi	r24, 0x45	; 69
    102c:	91 e0       	ldi	r25, 0x01	; 1
    102e:	9f 93       	push	r25
    1030:	8f 93       	push	r24
    1032:	0e 94 08 0c 	call	0x1810	; 0x1810 <printf>
	if (leaderboard_size > 6) {
    1036:	0f 90       	pop	r0
    1038:	0f 90       	pop	r0
    103a:	0f 90       	pop	r0
    103c:	0f 90       	pop	r0
    103e:	86 e0       	ldi	r24, 0x06	; 6
    1040:	8d 15       	cp	r24, r13
    1042:	20 f4       	brcc	.+8      	; 0x104c <draw_leaderboard_to_buffer+0x52>
		leaderboard_size = 6;
    1044:	0f 2e       	mov	r0, r31
    1046:	f6 e0       	ldi	r31, 0x06	; 6
    1048:	df 2e       	mov	r13, r31
    104a:	f0 2d       	mov	r31, r0
	}
	printf("size: %d\n", leaderboard_size); 
    104c:	1f 92       	push	r1
    104e:	df 92       	push	r13
    1050:	85 e4       	ldi	r24, 0x45	; 69
    1052:	91 e0       	ldi	r25, 0x01	; 1
    1054:	9f 93       	push	r25
    1056:	8f 93       	push	r24
    1058:	0e 94 08 0c 	call	0x1810	; 0x1810 <printf>
	for (uint8_t i = 0; i < leaderboard_size; i++) {
    105c:	0f 90       	pop	r0
    105e:	0f 90       	pop	r0
    1060:	0f 90       	pop	r0
    1062:	0f 90       	pop	r0
    1064:	e1 2c       	mov	r14, r1
    1066:	49 c0       	rjmp	.+146    	; 0x10fa <draw_leaderboard_to_buffer+0x100>
		uint16_t offset = LEADERBOARD_BASE + 1 + i * 4;
    1068:	0e 2d       	mov	r16, r14
    106a:	10 e0       	ldi	r17, 0x00	; 0
    106c:	00 0f       	add	r16, r16
    106e:	11 1f       	adc	r17, r17
    1070:	00 0f       	add	r16, r16
    1072:	11 1f       	adc	r17, r17
    1074:	0f 5f       	subi	r16, 0xFF	; 255
    1076:	17 4f       	sbci	r17, 0xF7	; 247
		draw_char_normal_to_buffer(2 + i, 0, xmem_read(offset)); 
    1078:	c8 01       	movw	r24, r16
    107a:	0e 94 e2 0b 	call	0x17c4	; 0x17c4 <xmem_read>
    107e:	68 94       	set
    1080:	ff 24       	eor	r15, r15
    1082:	f1 f8       	bld	r15, 1
    1084:	fe 0c       	add	r15, r14
    1086:	48 2f       	mov	r20, r24
    1088:	60 e0       	ldi	r22, 0x00	; 0
    108a:	8f 2d       	mov	r24, r15
    108c:	0e 94 1f 0a 	call	0x143e	; 0x143e <draw_char_normal_to_buffer>
		draw_char_normal_to_buffer(2 + i, 6, xmem_read(offset + 1));
    1090:	c8 01       	movw	r24, r16
    1092:	01 96       	adiw	r24, 0x01	; 1
    1094:	0e 94 e2 0b 	call	0x17c4	; 0x17c4 <xmem_read>
    1098:	48 2f       	mov	r20, r24
    109a:	66 e0       	ldi	r22, 0x06	; 6
    109c:	8f 2d       	mov	r24, r15
    109e:	0e 94 1f 0a 	call	0x143e	; 0x143e <draw_char_normal_to_buffer>
		draw_char_normal_to_buffer(2 + i, 12, xmem_read(offset + 2));
    10a2:	c8 01       	movw	r24, r16
    10a4:	02 96       	adiw	r24, 0x02	; 2
    10a6:	0e 94 e2 0b 	call	0x17c4	; 0x17c4 <xmem_read>
    10aa:	48 2f       	mov	r20, r24
    10ac:	6c e0       	ldi	r22, 0x0C	; 12
    10ae:	8f 2d       	mov	r24, r15
    10b0:	0e 94 1f 0a 	call	0x143e	; 0x143e <draw_char_normal_to_buffer>
		draw_string_normal_to_buffer(2 + i, 18, ":"); 
    10b4:	46 e6       	ldi	r20, 0x66	; 102
    10b6:	51 e0       	ldi	r21, 0x01	; 1
    10b8:	62 e1       	ldi	r22, 0x12	; 18
    10ba:	8f 2d       	mov	r24, r15
    10bc:	0e 94 56 0a 	call	0x14ac	; 0x14ac <draw_string_normal_to_buffer>
		char str_score[4];
		sprintf(str_score, "%d", xmem_read(offset + 3));
    10c0:	c8 01       	movw	r24, r16
    10c2:	03 96       	adiw	r24, 0x03	; 3
    10c4:	0e 94 e2 0b 	call	0x17c4	; 0x17c4 <xmem_read>
    10c8:	1f 92       	push	r1
    10ca:	8f 93       	push	r24
    10cc:	8f e4       	ldi	r24, 0x4F	; 79
    10ce:	91 e0       	ldi	r25, 0x01	; 1
    10d0:	9f 93       	push	r25
    10d2:	8f 93       	push	r24
    10d4:	8e 01       	movw	r16, r28
    10d6:	0f 5f       	subi	r16, 0xFF	; 255
    10d8:	1f 4f       	sbci	r17, 0xFF	; 255
    10da:	1f 93       	push	r17
    10dc:	0f 93       	push	r16
    10de:	0e 94 55 0c 	call	0x18aa	; 0x18aa <sprintf>
		draw_string_normal_to_buffer(2 + i, 26, str_score);		
    10e2:	a8 01       	movw	r20, r16
    10e4:	6a e1       	ldi	r22, 0x1A	; 26
    10e6:	8f 2d       	mov	r24, r15
    10e8:	0e 94 56 0a 	call	0x14ac	; 0x14ac <draw_string_normal_to_buffer>
	printf("size: %d\n", leaderboard_size); 
	if (leaderboard_size > 6) {
		leaderboard_size = 6;
	}
	printf("size: %d\n", leaderboard_size); 
	for (uint8_t i = 0; i < leaderboard_size; i++) {
    10ec:	e3 94       	inc	r14
    10ee:	0f 90       	pop	r0
    10f0:	0f 90       	pop	r0
    10f2:	0f 90       	pop	r0
    10f4:	0f 90       	pop	r0
    10f6:	0f 90       	pop	r0
    10f8:	0f 90       	pop	r0
    10fa:	ed 14       	cp	r14, r13
    10fc:	08 f4       	brcc	.+2      	; 0x1100 <draw_leaderboard_to_buffer+0x106>
    10fe:	b4 cf       	rjmp	.-152    	; 0x1068 <draw_leaderboard_to_buffer+0x6e>
		draw_string_normal_to_buffer(2 + i, 18, ":"); 
		char str_score[4];
		sprintf(str_score, "%d", xmem_read(offset + 3));
		draw_string_normal_to_buffer(2 + i, 26, str_score);		
	}
	request_buffer_swap();
    1100:	0e 94 19 0a 	call	0x1432	; 0x1432 <request_buffer_swap>
}
    1104:	0f 90       	pop	r0
    1106:	0f 90       	pop	r0
    1108:	0f 90       	pop	r0
    110a:	0f 90       	pop	r0
    110c:	df 91       	pop	r29
    110e:	cf 91       	pop	r28
    1110:	1f 91       	pop	r17
    1112:	0f 91       	pop	r16
    1114:	ff 90       	pop	r15
    1116:	ef 90       	pop	r14
    1118:	df 90       	pop	r13
    111a:	08 95       	ret

0000111c <draw_in_game>:

void draw_in_game(uint8_t score) {
    111c:	0f 93       	push	r16
    111e:	1f 93       	push	r17
    1120:	cf 93       	push	r28
    1122:	df 93       	push	r29
    1124:	00 d0       	rcall	.+0      	; 0x1126 <draw_in_game+0xa>
    1126:	00 d0       	rcall	.+0      	; 0x1128 <draw_in_game+0xc>
    1128:	cd b7       	in	r28, 0x3d	; 61
    112a:	de b7       	in	r29, 0x3e	; 62
    112c:	18 2f       	mov	r17, r24
		draw_string_big_to_buffer(0, 0, "Game Started !");
    112e:	42 e5       	ldi	r20, 0x52	; 82
    1130:	51 e0       	ldi	r21, 0x01	; 1
    1132:	60 e0       	ldi	r22, 0x00	; 0
    1134:	80 e0       	ldi	r24, 0x00	; 0
    1136:	0e 94 ac 0a 	call	0x1558	; 0x1558 <draw_string_big_to_buffer>
		draw_string_normal_to_buffer(3, 20, "Score:");
    113a:	41 e6       	ldi	r20, 0x61	; 97
    113c:	51 e0       	ldi	r21, 0x01	; 1
    113e:	64 e1       	ldi	r22, 0x14	; 20
    1140:	83 e0       	ldi	r24, 0x03	; 3
    1142:	0e 94 56 0a 	call	0x14ac	; 0x14ac <draw_string_normal_to_buffer>
		char str_score[4]; 
		sprintf(str_score, "%d", score); 
    1146:	1f 92       	push	r1
    1148:	1f 93       	push	r17
    114a:	8f e4       	ldi	r24, 0x4F	; 79
    114c:	91 e0       	ldi	r25, 0x01	; 1
    114e:	9f 93       	push	r25
    1150:	8f 93       	push	r24
    1152:	8e 01       	movw	r16, r28
    1154:	0f 5f       	subi	r16, 0xFF	; 255
    1156:	1f 4f       	sbci	r17, 0xFF	; 255
    1158:	1f 93       	push	r17
    115a:	0f 93       	push	r16
    115c:	0e 94 55 0c 	call	0x18aa	; 0x18aa <sprintf>
		draw_string_normal_to_buffer(3, 65, str_score); 
    1160:	a8 01       	movw	r20, r16
    1162:	61 e4       	ldi	r22, 0x41	; 65
    1164:	83 e0       	ldi	r24, 0x03	; 3
    1166:	0e 94 56 0a 	call	0x14ac	; 0x14ac <draw_string_normal_to_buffer>
		request_buffer_swap();
    116a:	0e 94 19 0a 	call	0x1432	; 0x1432 <request_buffer_swap>
}
    116e:	0f 90       	pop	r0
    1170:	0f 90       	pop	r0
    1172:	0f 90       	pop	r0
    1174:	0f 90       	pop	r0
    1176:	0f 90       	pop	r0
    1178:	0f 90       	pop	r0
    117a:	0f 90       	pop	r0
    117c:	0f 90       	pop	r0
    117e:	0f 90       	pop	r0
    1180:	0f 90       	pop	r0
    1182:	df 91       	pop	r29
    1184:	cf 91       	pop	r28
    1186:	1f 91       	pop	r17
    1188:	0f 91       	pop	r16
    118a:	08 95       	ret

0000118c <draw_save>:

void draw_save(char l1, char l2, char l3, uint8_t score) {
    118c:	ef 92       	push	r14
    118e:	ff 92       	push	r15
    1190:	0f 93       	push	r16
    1192:	1f 93       	push	r17
    1194:	cf 93       	push	r28
    1196:	df 93       	push	r29
    1198:	00 d0       	rcall	.+0      	; 0x119a <draw_save+0xe>
    119a:	00 d0       	rcall	.+0      	; 0x119c <draw_save+0x10>
    119c:	cd b7       	in	r28, 0x3d	; 61
    119e:	de b7       	in	r29, 0x3e	; 62
    11a0:	e8 2e       	mov	r14, r24
    11a2:	f6 2e       	mov	r15, r22
    11a4:	04 2f       	mov	r16, r20
    11a6:	12 2f       	mov	r17, r18
	draw_string_big_to_buffer(0, 0, "Save your score");
    11a8:	48 e6       	ldi	r20, 0x68	; 104
    11aa:	51 e0       	ldi	r21, 0x01	; 1
    11ac:	60 e0       	ldi	r22, 0x00	; 0
    11ae:	80 e0       	ldi	r24, 0x00	; 0
    11b0:	0e 94 ac 0a 	call	0x1558	; 0x1558 <draw_string_big_to_buffer>
	draw_char_normal_to_buffer(2, 0, l1);
    11b4:	4e 2d       	mov	r20, r14
    11b6:	60 e0       	ldi	r22, 0x00	; 0
    11b8:	82 e0       	ldi	r24, 0x02	; 2
    11ba:	0e 94 1f 0a 	call	0x143e	; 0x143e <draw_char_normal_to_buffer>
	draw_char_normal_to_buffer(2, 6, l2);
    11be:	4f 2d       	mov	r20, r15
    11c0:	66 e0       	ldi	r22, 0x06	; 6
    11c2:	82 e0       	ldi	r24, 0x02	; 2
    11c4:	0e 94 1f 0a 	call	0x143e	; 0x143e <draw_char_normal_to_buffer>
	draw_char_normal_to_buffer(2, 12, l3);
    11c8:	40 2f       	mov	r20, r16
    11ca:	6c e0       	ldi	r22, 0x0C	; 12
    11cc:	82 e0       	ldi	r24, 0x02	; 2
    11ce:	0e 94 1f 0a 	call	0x143e	; 0x143e <draw_char_normal_to_buffer>
	char str_score[4];
	sprintf(str_score, "%d", score);
    11d2:	1f 92       	push	r1
    11d4:	1f 93       	push	r17
    11d6:	8f e4       	ldi	r24, 0x4F	; 79
    11d8:	91 e0       	ldi	r25, 0x01	; 1
    11da:	9f 93       	push	r25
    11dc:	8f 93       	push	r24
    11de:	8e 01       	movw	r16, r28
    11e0:	0f 5f       	subi	r16, 0xFF	; 255
    11e2:	1f 4f       	sbci	r17, 0xFF	; 255
    11e4:	1f 93       	push	r17
    11e6:	0f 93       	push	r16
    11e8:	0e 94 55 0c 	call	0x18aa	; 0x18aa <sprintf>
	draw_string_normal_to_buffer(2, 24, str_score);
    11ec:	a8 01       	movw	r20, r16
    11ee:	68 e1       	ldi	r22, 0x18	; 24
    11f0:	82 e0       	ldi	r24, 0x02	; 2
    11f2:	0e 94 56 0a 	call	0x14ac	; 0x14ac <draw_string_normal_to_buffer>
	if (save.selected == 0) { 
    11f6:	80 91 a2 01 	lds	r24, 0x01A2	; 0x8001a2 <save>
    11fa:	0f 90       	pop	r0
    11fc:	0f 90       	pop	r0
    11fe:	0f 90       	pop	r0
    1200:	0f 90       	pop	r0
    1202:	0f 90       	pop	r0
    1204:	0f 90       	pop	r0
    1206:	81 11       	cpse	r24, r1
    1208:	07 c0       	rjmp	.+14     	; 0x1218 <draw_save+0x8c>
		draw_string_normal_to_buffer(3, 0, "^  ");
    120a:	48 e7       	ldi	r20, 0x78	; 120
    120c:	51 e0       	ldi	r21, 0x01	; 1
    120e:	60 e0       	ldi	r22, 0x00	; 0
    1210:	83 e0       	ldi	r24, 0x03	; 3
    1212:	0e 94 56 0a 	call	0x14ac	; 0x14ac <draw_string_normal_to_buffer>
    1216:	11 c0       	rjmp	.+34     	; 0x123a <draw_save+0xae>
	} else if (save.selected == 1) {
    1218:	81 30       	cpi	r24, 0x01	; 1
    121a:	39 f4       	brne	.+14     	; 0x122a <draw_save+0x9e>
		draw_string_normal_to_buffer(3, 0, " ^ ");
    121c:	4c e7       	ldi	r20, 0x7C	; 124
    121e:	51 e0       	ldi	r21, 0x01	; 1
    1220:	60 e0       	ldi	r22, 0x00	; 0
    1222:	83 e0       	ldi	r24, 0x03	; 3
    1224:	0e 94 56 0a 	call	0x14ac	; 0x14ac <draw_string_normal_to_buffer>
    1228:	08 c0       	rjmp	.+16     	; 0x123a <draw_save+0xae>
	} else if (save.selected == 2) {
    122a:	82 30       	cpi	r24, 0x02	; 2
    122c:	31 f4       	brne	.+12     	; 0x123a <draw_save+0xae>
		draw_string_normal_to_buffer(3, 0, "  ^");
    122e:	40 e8       	ldi	r20, 0x80	; 128
    1230:	51 e0       	ldi	r21, 0x01	; 1
    1232:	60 e0       	ldi	r22, 0x00	; 0
    1234:	83 e0       	ldi	r24, 0x03	; 3
    1236:	0e 94 56 0a 	call	0x14ac	; 0x14ac <draw_string_normal_to_buffer>
	}
	request_buffer_swap(); 
    123a:	0e 94 19 0a 	call	0x1432	; 0x1432 <request_buffer_swap>
    123e:	0f 90       	pop	r0
    1240:	0f 90       	pop	r0
    1242:	0f 90       	pop	r0
    1244:	0f 90       	pop	r0
    1246:	df 91       	pop	r29
    1248:	cf 91       	pop	r28
    124a:	1f 91       	pop	r17
    124c:	0f 91       	pop	r16
    124e:	ff 90       	pop	r15
    1250:	ef 90       	pop	r14
    1252:	08 95       	ret

00001254 <oled_init>:
    1254:	0e 94 31 0b 	call	0x1662	; 0x1662 <spi_init>
    1258:	87 b3       	in	r24, 0x17	; 23
    125a:	82 60       	ori	r24, 0x02	; 2
    125c:	87 bb       	out	0x17, r24	; 23
    125e:	82 e0       	ldi	r24, 0x02	; 2
    1260:	0e 94 3a 0b 	call	0x1674	; 0x1674 <spi_select_slave>
    1264:	88 b3       	in	r24, 0x18	; 24
    1266:	8d 7f       	andi	r24, 0xFD	; 253
    1268:	88 bb       	out	0x18, r24	; 24
    126a:	8e ea       	ldi	r24, 0xAE	; 174
    126c:	0e 94 68 0b 	call	0x16d0	; 0x16d0 <spi_write_byte>
    1270:	0e 94 7b 0b 	call	0x16f6	; 0x16f6 <spi_read_byte>
    1274:	81 ea       	ldi	r24, 0xA1	; 161
    1276:	0e 94 68 0b 	call	0x16d0	; 0x16d0 <spi_write_byte>
    127a:	0e 94 7b 0b 	call	0x16f6	; 0x16f6 <spi_read_byte>
    127e:	8a ed       	ldi	r24, 0xDA	; 218
    1280:	0e 94 68 0b 	call	0x16d0	; 0x16d0 <spi_write_byte>
    1284:	0e 94 7b 0b 	call	0x16f6	; 0x16f6 <spi_read_byte>
    1288:	82 e1       	ldi	r24, 0x12	; 18
    128a:	0e 94 68 0b 	call	0x16d0	; 0x16d0 <spi_write_byte>
    128e:	0e 94 7b 0b 	call	0x16f6	; 0x16f6 <spi_read_byte>
    1292:	88 ec       	ldi	r24, 0xC8	; 200
    1294:	0e 94 68 0b 	call	0x16d0	; 0x16d0 <spi_write_byte>
    1298:	0e 94 7b 0b 	call	0x16f6	; 0x16f6 <spi_read_byte>
    129c:	88 ea       	ldi	r24, 0xA8	; 168
    129e:	0e 94 68 0b 	call	0x16d0	; 0x16d0 <spi_write_byte>
    12a2:	0e 94 7b 0b 	call	0x16f6	; 0x16f6 <spi_read_byte>
    12a6:	8f e3       	ldi	r24, 0x3F	; 63
    12a8:	0e 94 68 0b 	call	0x16d0	; 0x16d0 <spi_write_byte>
    12ac:	0e 94 7b 0b 	call	0x16f6	; 0x16f6 <spi_read_byte>
    12b0:	85 ed       	ldi	r24, 0xD5	; 213
    12b2:	0e 94 68 0b 	call	0x16d0	; 0x16d0 <spi_write_byte>
    12b6:	0e 94 7b 0b 	call	0x16f6	; 0x16f6 <spi_read_byte>
    12ba:	80 e8       	ldi	r24, 0x80	; 128
    12bc:	0e 94 68 0b 	call	0x16d0	; 0x16d0 <spi_write_byte>
    12c0:	0e 94 7b 0b 	call	0x16f6	; 0x16f6 <spi_read_byte>
    12c4:	81 e8       	ldi	r24, 0x81	; 129
    12c6:	0e 94 68 0b 	call	0x16d0	; 0x16d0 <spi_write_byte>
    12ca:	0e 94 7b 0b 	call	0x16f6	; 0x16f6 <spi_read_byte>
    12ce:	80 e5       	ldi	r24, 0x50	; 80
    12d0:	0e 94 68 0b 	call	0x16d0	; 0x16d0 <spi_write_byte>
    12d4:	0e 94 7b 0b 	call	0x16f6	; 0x16f6 <spi_read_byte>
    12d8:	89 ed       	ldi	r24, 0xD9	; 217
    12da:	0e 94 68 0b 	call	0x16d0	; 0x16d0 <spi_write_byte>
    12de:	0e 94 7b 0b 	call	0x16f6	; 0x16f6 <spi_read_byte>
    12e2:	81 e2       	ldi	r24, 0x21	; 33
    12e4:	0e 94 68 0b 	call	0x16d0	; 0x16d0 <spi_write_byte>
    12e8:	0e 94 7b 0b 	call	0x16f6	; 0x16f6 <spi_read_byte>
    12ec:	80 e2       	ldi	r24, 0x20	; 32
    12ee:	0e 94 68 0b 	call	0x16d0	; 0x16d0 <spi_write_byte>
    12f2:	0e 94 7b 0b 	call	0x16f6	; 0x16f6 <spi_read_byte>
    12f6:	82 e0       	ldi	r24, 0x02	; 2
    12f8:	0e 94 68 0b 	call	0x16d0	; 0x16d0 <spi_write_byte>
    12fc:	0e 94 7b 0b 	call	0x16f6	; 0x16f6 <spi_read_byte>
    1300:	8b ed       	ldi	r24, 0xDB	; 219
    1302:	0e 94 68 0b 	call	0x16d0	; 0x16d0 <spi_write_byte>
    1306:	0e 94 7b 0b 	call	0x16f6	; 0x16f6 <spi_read_byte>
    130a:	84 e3       	ldi	r24, 0x34	; 52
    130c:	0e 94 68 0b 	call	0x16d0	; 0x16d0 <spi_write_byte>
    1310:	0e 94 7b 0b 	call	0x16f6	; 0x16f6 <spi_read_byte>
    1314:	84 ea       	ldi	r24, 0xA4	; 164
    1316:	0e 94 68 0b 	call	0x16d0	; 0x16d0 <spi_write_byte>
    131a:	0e 94 7b 0b 	call	0x16f6	; 0x16f6 <spi_read_byte>
    131e:	86 ea       	ldi	r24, 0xA6	; 166
    1320:	0e 94 68 0b 	call	0x16d0	; 0x16d0 <spi_write_byte>
    1324:	0e 94 7b 0b 	call	0x16f6	; 0x16f6 <spi_read_byte>
    1328:	8f ea       	ldi	r24, 0xAF	; 175
    132a:	0e 94 68 0b 	call	0x16d0	; 0x16d0 <spi_write_byte>
    132e:	0e 94 7b 0b 	call	0x16f6	; 0x16f6 <spi_read_byte>
    1332:	83 e0       	ldi	r24, 0x03	; 3
    1334:	0e 94 3a 0b 	call	0x1674	; 0x1674 <spi_select_slave>
    1338:	08 95       	ret

0000133a <start_timer_transfer>:
    133a:	ea e8       	ldi	r30, 0x8A	; 138
    133c:	f0 e0       	ldi	r31, 0x00	; 0
    133e:	10 82       	st	Z, r1
    1340:	80 81       	ld	r24, Z
    1342:	88 60       	ori	r24, 0x08	; 8
    1344:	80 83       	st	Z, r24
    1346:	8f ef       	ldi	r24, 0xFF	; 255
    1348:	9b e2       	ldi	r25, 0x2B	; 43
    134a:	90 93 87 00 	sts	0x0087, r25	; 0x800087 <__TEXT_REGION_LENGTH__+0x7fc087>
    134e:	80 93 86 00 	sts	0x0086, r24	; 0x800086 <__TEXT_REGION_LENGTH__+0x7fc086>
    1352:	80 81       	ld	r24, Z
    1354:	8b 7f       	andi	r24, 0xFB	; 251
    1356:	80 83       	st	Z, r24
    1358:	80 81       	ld	r24, Z
    135a:	83 60       	ori	r24, 0x03	; 3
    135c:	80 83       	st	Z, r24
    135e:	ed e7       	ldi	r30, 0x7D	; 125
    1360:	f0 e0       	ldi	r31, 0x00	; 0
    1362:	80 81       	ld	r24, Z
    1364:	80 61       	ori	r24, 0x10	; 16
    1366:	80 83       	st	Z, r24
    1368:	08 95       	ret

0000136a <buf_base_of>:
    136a:	81 11       	cpse	r24, r1
    136c:	03 c0       	rjmp	.+6      	; 0x1374 <buf_base_of+0xa>
    136e:	80 e0       	ldi	r24, 0x00	; 0
    1370:	90 e0       	ldi	r25, 0x00	; 0
    1372:	08 95       	ret
    1374:	80 e0       	ldi	r24, 0x00	; 0
    1376:	94 e0       	ldi	r25, 0x04	; 4
    1378:	08 95       	ret

0000137a <__vector_7>:
    137a:	1f 92       	push	r1
    137c:	0f 92       	push	r0
    137e:	0f b6       	in	r0, 0x3f	; 63
    1380:	0f 92       	push	r0
    1382:	11 24       	eor	r1, r1
    1384:	8f 93       	push	r24
    1386:	9f 93       	push	r25
    1388:	81 e0       	ldi	r24, 0x01	; 1
    138a:	80 93 99 01 	sts	0x0199, r24	; 0x800199 <screen_update_needed>
    138e:	80 91 9e 01 	lds	r24, 0x019E	; 0x80019e <swap_requested>
    1392:	88 23       	and	r24, r24
    1394:	79 f0       	breq	.+30     	; 0x13b4 <__vector_7+0x3a>
    1396:	f8 94       	cli
    1398:	10 92 9e 01 	sts	0x019E, r1	; 0x80019e <swap_requested>
    139c:	80 91 00 01 	lds	r24, 0x0100	; 0x800100 <__DATA_REGION_ORIGIN__>
    13a0:	80 93 9f 01 	sts	0x019F, r24	; 0x80019f <front_buf>
    13a4:	90 91 00 01 	lds	r25, 0x0100	; 0x800100 <__DATA_REGION_ORIGIN__>
    13a8:	81 e0       	ldi	r24, 0x01	; 1
    13aa:	91 11       	cpse	r25, r1
    13ac:	80 e0       	ldi	r24, 0x00	; 0
    13ae:	80 93 00 01 	sts	0x0100, r24	; 0x800100 <__DATA_REGION_ORIGIN__>
    13b2:	78 94       	sei
    13b4:	9f 91       	pop	r25
    13b6:	8f 91       	pop	r24
    13b8:	0f 90       	pop	r0
    13ba:	0f be       	out	0x3f, r0	; 63
    13bc:	0f 90       	pop	r0
    13be:	1f 90       	pop	r1
    13c0:	18 95       	reti

000013c2 <doublebuf_init>:
    13c2:	cf 93       	push	r28
    13c4:	df 93       	push	r29
    13c6:	0e 94 2a 09 	call	0x1254	; 0x1254 <oled_init>
    13ca:	0e 94 d7 0b 	call	0x17ae	; 0x17ae <xmem_init>
    13ce:	c0 e0       	ldi	r28, 0x00	; 0
    13d0:	d0 e0       	ldi	r29, 0x00	; 0
    13d2:	05 c0       	rjmp	.+10     	; 0x13de <doublebuf_init+0x1c>
    13d4:	be 01       	movw	r22, r28
    13d6:	80 e0       	ldi	r24, 0x00	; 0
    13d8:	0e 94 de 0b 	call	0x17bc	; 0x17bc <xmem_write>
    13dc:	21 96       	adiw	r28, 0x01	; 1
    13de:	c1 15       	cp	r28, r1
    13e0:	88 e0       	ldi	r24, 0x08	; 8
    13e2:	d8 07       	cpc	r29, r24
    13e4:	b8 f3       	brcs	.-18     	; 0x13d4 <doublebuf_init+0x12>
    13e6:	10 92 9f 01 	sts	0x019F, r1	; 0x80019f <front_buf>
    13ea:	81 e0       	ldi	r24, 0x01	; 1
    13ec:	80 93 00 01 	sts	0x0100, r24	; 0x800100 <__DATA_REGION_ORIGIN__>
    13f0:	10 92 9e 01 	sts	0x019E, r1	; 0x80019e <swap_requested>
    13f4:	10 92 9d 01 	sts	0x019D, r1	; 0x80019d <swap_pending>
    13f8:	10 92 9c 01 	sts	0x019C, r1	; 0x80019c <transfer_pos+0x1>
    13fc:	10 92 9b 01 	sts	0x019B, r1	; 0x80019b <transfer_pos>
    1400:	10 92 9a 01 	sts	0x019A, r1	; 0x80019a <transfer_in_progress>
    1404:	0e 94 9d 09 	call	0x133a	; 0x133a <start_timer_transfer>
    1408:	78 94       	sei
    140a:	df 91       	pop	r29
    140c:	cf 91       	pop	r28
    140e:	08 95       	ret

00001410 <clear_all_buffers>:
    1410:	cf 93       	push	r28
    1412:	df 93       	push	r29
    1414:	c0 e0       	ldi	r28, 0x00	; 0
    1416:	d0 e0       	ldi	r29, 0x00	; 0
    1418:	05 c0       	rjmp	.+10     	; 0x1424 <clear_all_buffers+0x14>
    141a:	be 01       	movw	r22, r28
    141c:	80 e0       	ldi	r24, 0x00	; 0
    141e:	0e 94 de 0b 	call	0x17bc	; 0x17bc <xmem_write>
    1422:	21 96       	adiw	r28, 0x01	; 1
    1424:	c1 15       	cp	r28, r1
    1426:	88 e0       	ldi	r24, 0x08	; 8
    1428:	d8 07       	cpc	r29, r24
    142a:	b8 f3       	brcs	.-18     	; 0x141a <clear_all_buffers+0xa>
    142c:	df 91       	pop	r29
    142e:	cf 91       	pop	r28
    1430:	08 95       	ret

00001432 <request_buffer_swap>:
    1432:	f8 94       	cli
    1434:	81 e0       	ldi	r24, 0x01	; 1
    1436:	80 93 9e 01 	sts	0x019E, r24	; 0x80019e <swap_requested>
    143a:	78 94       	sei
    143c:	08 95       	ret

0000143e <draw_char_normal_to_buffer>:
    143e:	ef 92       	push	r14
    1440:	ff 92       	push	r15
    1442:	0f 93       	push	r16
    1444:	1f 93       	push	r17
    1446:	cf 93       	push	r28
    1448:	df 93       	push	r29
    144a:	e8 2e       	mov	r14, r24
    144c:	f6 2e       	mov	r15, r22
    144e:	00 ee       	ldi	r16, 0xE0	; 224
    1450:	04 0f       	add	r16, r20
    1452:	80 91 00 01 	lds	r24, 0x0100	; 0x800100 <__DATA_REGION_ORIGIN__>
    1456:	0e 94 b5 09 	call	0x136a	; 0x136a <buf_base_of>
    145a:	ec 01       	movw	r28, r24
    145c:	10 e0       	ldi	r17, 0x00	; 0
    145e:	1d c0       	rjmp	.+58     	; 0x149a <draw_char_normal_to_buffer+0x5c>
    1460:	80 2f       	mov	r24, r16
    1462:	90 e0       	ldi	r25, 0x00	; 0
    1464:	61 2f       	mov	r22, r17
    1466:	70 e0       	ldi	r23, 0x00	; 0
    1468:	fc 01       	movw	r30, r24
    146a:	ee 0f       	add	r30, r30
    146c:	ff 1f       	adc	r31, r31
    146e:	ee 0f       	add	r30, r30
    1470:	ff 1f       	adc	r31, r31
    1472:	e8 0f       	add	r30, r24
    1474:	f9 1f       	adc	r31, r25
    1476:	e6 0f       	add	r30, r22
    1478:	f7 1f       	adc	r31, r23
    147a:	eb 54       	subi	r30, 0x4B	; 75
    147c:	ff 4f       	sbci	r31, 0xFF	; 255
    147e:	84 91       	lpm	r24, Z
    1480:	6f 0d       	add	r22, r15
    1482:	71 1d       	adc	r23, r1
    1484:	9e 01       	movw	r18, r28
    1486:	90 e8       	ldi	r25, 0x80	; 128
    1488:	e9 9e       	mul	r14, r25
    148a:	20 0d       	add	r18, r0
    148c:	31 1d       	adc	r19, r1
    148e:	11 24       	eor	r1, r1
    1490:	62 0f       	add	r22, r18
    1492:	73 1f       	adc	r23, r19
    1494:	0e 94 de 0b 	call	0x17bc	; 0x17bc <xmem_write>
    1498:	1f 5f       	subi	r17, 0xFF	; 255
    149a:	15 30       	cpi	r17, 0x05	; 5
    149c:	08 f3       	brcs	.-62     	; 0x1460 <draw_char_normal_to_buffer+0x22>
    149e:	df 91       	pop	r29
    14a0:	cf 91       	pop	r28
    14a2:	1f 91       	pop	r17
    14a4:	0f 91       	pop	r16
    14a6:	ff 90       	pop	r15
    14a8:	ef 90       	pop	r14
    14aa:	08 95       	ret

000014ac <draw_string_normal_to_buffer>:
    14ac:	ff 92       	push	r15
    14ae:	0f 93       	push	r16
    14b0:	1f 93       	push	r17
    14b2:	cf 93       	push	r28
    14b4:	df 93       	push	r29
    14b6:	f8 2e       	mov	r15, r24
    14b8:	d6 2f       	mov	r29, r22
    14ba:	8a 01       	movw	r16, r20
    14bc:	c0 e0       	ldi	r28, 0x00	; 0
    14be:	0a c0       	rjmp	.+20     	; 0x14d4 <draw_string_normal_to_buffer+0x28>
    14c0:	8c 2f       	mov	r24, r28
    14c2:	88 0f       	add	r24, r24
    14c4:	8c 0f       	add	r24, r28
    14c6:	68 2f       	mov	r22, r24
    14c8:	66 0f       	add	r22, r22
    14ca:	6d 0f       	add	r22, r29
    14cc:	8f 2d       	mov	r24, r15
    14ce:	0e 94 1f 0a 	call	0x143e	; 0x143e <draw_char_normal_to_buffer>
    14d2:	cf 5f       	subi	r28, 0xFF	; 255
    14d4:	f8 01       	movw	r30, r16
    14d6:	ec 0f       	add	r30, r28
    14d8:	f1 1d       	adc	r31, r1
    14da:	40 81       	ld	r20, Z
    14dc:	41 11       	cpse	r20, r1
    14de:	f0 cf       	rjmp	.-32     	; 0x14c0 <draw_string_normal_to_buffer+0x14>
    14e0:	df 91       	pop	r29
    14e2:	cf 91       	pop	r28
    14e4:	1f 91       	pop	r17
    14e6:	0f 91       	pop	r16
    14e8:	ff 90       	pop	r15
    14ea:	08 95       	ret

000014ec <draw_char_big_to_buffer>:
    14ec:	ef 92       	push	r14
    14ee:	ff 92       	push	r15
    14f0:	0f 93       	push	r16
    14f2:	1f 93       	push	r17
    14f4:	cf 93       	push	r28
    14f6:	df 93       	push	r29
    14f8:	e8 2e       	mov	r14, r24
    14fa:	f6 2e       	mov	r15, r22
    14fc:	00 ee       	ldi	r16, 0xE0	; 224
    14fe:	04 0f       	add	r16, r20
    1500:	80 91 00 01 	lds	r24, 0x0100	; 0x800100 <__DATA_REGION_ORIGIN__>
    1504:	0e 94 b5 09 	call	0x136a	; 0x136a <buf_base_of>
    1508:	ec 01       	movw	r28, r24
    150a:	10 e0       	ldi	r17, 0x00	; 0
    150c:	1c c0       	rjmp	.+56     	; 0x1546 <draw_char_big_to_buffer+0x5a>
    150e:	e0 2f       	mov	r30, r16
    1510:	f0 e0       	ldi	r31, 0x00	; 0
    1512:	61 2f       	mov	r22, r17
    1514:	70 e0       	ldi	r23, 0x00	; 0
    1516:	ee 0f       	add	r30, r30
    1518:	ff 1f       	adc	r31, r31
    151a:	ee 0f       	add	r30, r30
    151c:	ff 1f       	adc	r31, r31
    151e:	ee 0f       	add	r30, r30
    1520:	ff 1f       	adc	r31, r31
    1522:	e6 0f       	add	r30, r22
    1524:	f7 1f       	adc	r31, r23
    1526:	e0 57       	subi	r30, 0x70	; 112
    1528:	fd 4f       	sbci	r31, 0xFD	; 253
    152a:	84 91       	lpm	r24, Z
    152c:	6f 0d       	add	r22, r15
    152e:	71 1d       	adc	r23, r1
    1530:	9e 01       	movw	r18, r28
    1532:	90 e8       	ldi	r25, 0x80	; 128
    1534:	e9 9e       	mul	r14, r25
    1536:	20 0d       	add	r18, r0
    1538:	31 1d       	adc	r19, r1
    153a:	11 24       	eor	r1, r1
    153c:	62 0f       	add	r22, r18
    153e:	73 1f       	adc	r23, r19
    1540:	0e 94 de 0b 	call	0x17bc	; 0x17bc <xmem_write>
    1544:	1f 5f       	subi	r17, 0xFF	; 255
    1546:	18 30       	cpi	r17, 0x08	; 8
    1548:	10 f3       	brcs	.-60     	; 0x150e <draw_char_big_to_buffer+0x22>
    154a:	df 91       	pop	r29
    154c:	cf 91       	pop	r28
    154e:	1f 91       	pop	r17
    1550:	0f 91       	pop	r16
    1552:	ff 90       	pop	r15
    1554:	ef 90       	pop	r14
    1556:	08 95       	ret

00001558 <draw_string_big_to_buffer>:
    1558:	ff 92       	push	r15
    155a:	0f 93       	push	r16
    155c:	1f 93       	push	r17
    155e:	cf 93       	push	r28
    1560:	df 93       	push	r29
    1562:	f8 2e       	mov	r15, r24
    1564:	d6 2f       	mov	r29, r22
    1566:	8a 01       	movw	r16, r20
    1568:	c0 e0       	ldi	r28, 0x00	; 0
    156a:	0a c0       	rjmp	.+20     	; 0x1580 <draw_string_big_to_buffer+0x28>
    156c:	6c 2f       	mov	r22, r28
    156e:	66 0f       	add	r22, r22
    1570:	66 0f       	add	r22, r22
    1572:	66 0f       	add	r22, r22
    1574:	6c 1b       	sub	r22, r28
    1576:	6d 0f       	add	r22, r29
    1578:	8f 2d       	mov	r24, r15
    157a:	0e 94 76 0a 	call	0x14ec	; 0x14ec <draw_char_big_to_buffer>
    157e:	cf 5f       	subi	r28, 0xFF	; 255
    1580:	f8 01       	movw	r30, r16
    1582:	ec 0f       	add	r30, r28
    1584:	f1 1d       	adc	r31, r1
    1586:	40 81       	ld	r20, Z
    1588:	41 11       	cpse	r20, r1
    158a:	f0 cf       	rjmp	.-32     	; 0x156c <draw_string_big_to_buffer+0x14>
    158c:	df 91       	pop	r29
    158e:	cf 91       	pop	r28
    1590:	1f 91       	pop	r17
    1592:	0f 91       	pop	r16
    1594:	ff 90       	pop	r15
    1596:	08 95       	ret

00001598 <oled_goto>:
    1598:	cf 93       	push	r28
    159a:	df 93       	push	r29
    159c:	d8 2f       	mov	r29, r24
    159e:	c6 2f       	mov	r28, r22
    15a0:	88 b3       	in	r24, 0x18	; 24
    15a2:	8d 7f       	andi	r24, 0xFD	; 253
    15a4:	88 bb       	out	0x18, r24	; 24
    15a6:	82 e0       	ldi	r24, 0x02	; 2
    15a8:	0e 94 3a 0b 	call	0x1674	; 0x1674 <spi_select_slave>
    15ac:	8d 2f       	mov	r24, r29
    15ae:	8f 70       	andi	r24, 0x0F	; 15
    15b0:	80 6b       	ori	r24, 0xB0	; 176
    15b2:	0e 94 68 0b 	call	0x16d0	; 0x16d0 <spi_write_byte>
    15b6:	0e 94 7b 0b 	call	0x16f6	; 0x16f6 <spi_read_byte>
    15ba:	8c 2f       	mov	r24, r28
    15bc:	8f 70       	andi	r24, 0x0F	; 15
    15be:	0e 94 68 0b 	call	0x16d0	; 0x16d0 <spi_write_byte>
    15c2:	0e 94 7b 0b 	call	0x16f6	; 0x16f6 <spi_read_byte>
    15c6:	8c 2f       	mov	r24, r28
    15c8:	82 95       	swap	r24
    15ca:	8f 70       	andi	r24, 0x0F	; 15
    15cc:	80 61       	ori	r24, 0x10	; 16
    15ce:	0e 94 68 0b 	call	0x16d0	; 0x16d0 <spi_write_byte>
    15d2:	0e 94 7b 0b 	call	0x16f6	; 0x16f6 <spi_read_byte>
    15d6:	83 e0       	ldi	r24, 0x03	; 3
    15d8:	0e 94 3a 0b 	call	0x1674	; 0x1674 <spi_select_slave>
    15dc:	df 91       	pop	r29
    15de:	cf 91       	pop	r28
    15e0:	08 95       	ret

000015e2 <oled_set_val>:
    15e2:	cf 93       	push	r28
    15e4:	c8 2f       	mov	r28, r24
    15e6:	82 e0       	ldi	r24, 0x02	; 2
    15e8:	0e 94 3a 0b 	call	0x1674	; 0x1674 <spi_select_slave>
    15ec:	88 b3       	in	r24, 0x18	; 24
    15ee:	82 60       	ori	r24, 0x02	; 2
    15f0:	88 bb       	out	0x18, r24	; 24
    15f2:	8c 2f       	mov	r24, r28
    15f4:	0e 94 68 0b 	call	0x16d0	; 0x16d0 <spi_write_byte>
    15f8:	0e 94 7b 0b 	call	0x16f6	; 0x16f6 <spi_read_byte>
    15fc:	83 e0       	ldi	r24, 0x03	; 3
    15fe:	0e 94 3a 0b 	call	0x1674	; 0x1674 <spi_select_slave>
    1602:	cf 91       	pop	r28
    1604:	08 95       	ret

00001606 <update_screen>:
    1606:	1f 93       	push	r17
    1608:	cf 93       	push	r28
    160a:	df 93       	push	r29
    160c:	80 91 99 01 	lds	r24, 0x0199	; 0x800199 <screen_update_needed>
    1610:	81 11       	cpse	r24, r1
    1612:	1d c0       	rjmp	.+58     	; 0x164e <update_screen+0x48>
    1614:	22 c0       	rjmp	.+68     	; 0x165a <update_screen+0x54>
    1616:	60 e0       	ldi	r22, 0x00	; 0
    1618:	81 2f       	mov	r24, r17
    161a:	0e 94 cc 0a 	call	0x1598	; 0x1598 <oled_goto>
    161e:	c0 e0       	ldi	r28, 0x00	; 0
    1620:	d0 e0       	ldi	r29, 0x00	; 0
    1622:	10 c0       	rjmp	.+32     	; 0x1644 <update_screen+0x3e>
    1624:	80 91 9f 01 	lds	r24, 0x019F	; 0x80019f <front_buf>
    1628:	0e 94 b5 09 	call	0x136a	; 0x136a <buf_base_of>
    162c:	20 e8       	ldi	r18, 0x80	; 128
    162e:	12 9f       	mul	r17, r18
    1630:	80 0d       	add	r24, r0
    1632:	91 1d       	adc	r25, r1
    1634:	11 24       	eor	r1, r1
    1636:	8c 0f       	add	r24, r28
    1638:	9d 1f       	adc	r25, r29
    163a:	0e 94 e2 0b 	call	0x17c4	; 0x17c4 <xmem_read>
    163e:	0e 94 f1 0a 	call	0x15e2	; 0x15e2 <oled_set_val>
    1642:	21 96       	adiw	r28, 0x01	; 1
    1644:	c0 38       	cpi	r28, 0x80	; 128
    1646:	d1 05       	cpc	r29, r1
    1648:	68 f3       	brcs	.-38     	; 0x1624 <update_screen+0x1e>
    164a:	1f 5f       	subi	r17, 0xFF	; 255
    164c:	01 c0       	rjmp	.+2      	; 0x1650 <update_screen+0x4a>
    164e:	10 e0       	ldi	r17, 0x00	; 0
    1650:	18 30       	cpi	r17, 0x08	; 8
    1652:	08 f3       	brcs	.-62     	; 0x1616 <update_screen+0x10>
    1654:	10 92 99 01 	sts	0x0199, r1	; 0x800199 <screen_update_needed>
    1658:	81 e0       	ldi	r24, 0x01	; 1
    165a:	df 91       	pop	r29
    165c:	cf 91       	pop	r28
    165e:	1f 91       	pop	r17
    1660:	08 95       	ret

00001662 <spi_init>:
#include "spi.h"
#include <avr/io.h>
#include <stdlib.h>

void spi_init(void) {
	DDRB |= (1<<PB2) | (1<<PB3) | (1<<PB4) | (1<<PB5) | (1<<PB7); // output : CS_DISP CS_CAN CS_IO MOSI SCK
    1662:	87 b3       	in	r24, 0x17	; 23
    1664:	8c 6b       	ori	r24, 0xBC	; 188
    1666:	87 bb       	out	0x17, r24	; 23
	DDRB &= ~(1<<PB6);
    1668:	87 b3       	in	r24, 0x17	; 23
    166a:	8f 7b       	andi	r24, 0xBF	; 191
    166c:	87 bb       	out	0x17, r24	; 23
	
	SPCR = (1<<SPE) | (1<<MSTR);
    166e:	80 e5       	ldi	r24, 0x50	; 80
    1670:	8d b9       	out	0x0d, r24	; 13
    1672:	08 95       	ret

00001674 <spi_select_slave>:
}

void spi_select_slave(slave s) {
	if(s == CAN) {
    1674:	81 11       	cpse	r24, r1
    1676:	0a c0       	rjmp	.+20     	; 0x168c <spi_select_slave+0x18>
		PORTB &= ~(1<<PB3);
    1678:	88 b3       	in	r24, 0x18	; 24
    167a:	87 7f       	andi	r24, 0xF7	; 247
    167c:	88 bb       	out	0x18, r24	; 24
		PORTB |= (1<<PB2);
    167e:	88 b3       	in	r24, 0x18	; 24
    1680:	84 60       	ori	r24, 0x04	; 4
    1682:	88 bb       	out	0x18, r24	; 24
		PORTB |= (1<<PB4);
    1684:	88 b3       	in	r24, 0x18	; 24
    1686:	80 61       	ori	r24, 0x10	; 16
    1688:	88 bb       	out	0x18, r24	; 24
    168a:	08 95       	ret
	}
	else if (s == IO) {
    168c:	81 30       	cpi	r24, 0x01	; 1
    168e:	51 f4       	brne	.+20     	; 0x16a4 <spi_select_slave+0x30>
		PORTB &= ~(1<<PB4);
    1690:	88 b3       	in	r24, 0x18	; 24
    1692:	8f 7e       	andi	r24, 0xEF	; 239
    1694:	88 bb       	out	0x18, r24	; 24
		PORTB |= (1<<PB2);
    1696:	88 b3       	in	r24, 0x18	; 24
    1698:	84 60       	ori	r24, 0x04	; 4
    169a:	88 bb       	out	0x18, r24	; 24
		PORTB |= (1<<PB3);
    169c:	88 b3       	in	r24, 0x18	; 24
    169e:	88 60       	ori	r24, 0x08	; 8
    16a0:	88 bb       	out	0x18, r24	; 24
    16a2:	08 95       	ret
	}
	else if (s == DISP) {
    16a4:	82 30       	cpi	r24, 0x02	; 2
    16a6:	51 f4       	brne	.+20     	; 0x16bc <spi_select_slave+0x48>
		PORTB &= ~(1<<PB2);
    16a8:	88 b3       	in	r24, 0x18	; 24
    16aa:	8b 7f       	andi	r24, 0xFB	; 251
    16ac:	88 bb       	out	0x18, r24	; 24
		PORTB |= (1<<PB3);
    16ae:	88 b3       	in	r24, 0x18	; 24
    16b0:	88 60       	ori	r24, 0x08	; 8
    16b2:	88 bb       	out	0x18, r24	; 24
		PORTB |= (1<<PB4);
    16b4:	88 b3       	in	r24, 0x18	; 24
    16b6:	80 61       	ori	r24, 0x10	; 16
    16b8:	88 bb       	out	0x18, r24	; 24
    16ba:	08 95       	ret
	}
	else {
		PORTB |= (1<<PB3);
    16bc:	88 b3       	in	r24, 0x18	; 24
    16be:	88 60       	ori	r24, 0x08	; 8
    16c0:	88 bb       	out	0x18, r24	; 24
		PORTB |= (1<<PB2);
    16c2:	88 b3       	in	r24, 0x18	; 24
    16c4:	84 60       	ori	r24, 0x04	; 4
    16c6:	88 bb       	out	0x18, r24	; 24
		PORTB |= (1<<PB4);
    16c8:	88 b3       	in	r24, 0x18	; 24
    16ca:	80 61       	ori	r24, 0x10	; 16
    16cc:	88 bb       	out	0x18, r24	; 24
    16ce:	08 95       	ret

000016d0 <spi_write_byte>:
	}
}

void spi_write_byte(uint8_t byte) {
	SPDR = byte; 
    16d0:	8f b9       	out	0x0f, r24	; 15
	uint32_t limiter = 0;
    16d2:	80 e0       	ldi	r24, 0x00	; 0
    16d4:	90 e0       	ldi	r25, 0x00	; 0
    16d6:	dc 01       	movw	r26, r24
	while(!(SPSR & (1<<SPIF)) && limiter < 100000000) { limiter++; }
    16d8:	03 c0       	rjmp	.+6      	; 0x16e0 <spi_write_byte+0x10>
    16da:	01 96       	adiw	r24, 0x01	; 1
    16dc:	a1 1d       	adc	r26, r1
    16de:	b1 1d       	adc	r27, r1
    16e0:	77 99       	sbic	0x0e, 7	; 14
    16e2:	08 c0       	rjmp	.+16     	; 0x16f4 <spi_write_byte+0x24>
    16e4:	81 15       	cp	r24, r1
    16e6:	21 ee       	ldi	r18, 0xE1	; 225
    16e8:	92 07       	cpc	r25, r18
    16ea:	25 ef       	ldi	r18, 0xF5	; 245
    16ec:	a2 07       	cpc	r26, r18
    16ee:	25 e0       	ldi	r18, 0x05	; 5
    16f0:	b2 07       	cpc	r27, r18
    16f2:	98 f3       	brcs	.-26     	; 0x16da <spi_write_byte+0xa>
    16f4:	08 95       	ret

000016f6 <spi_read_byte>:
}

uint8_t spi_read_byte(void) {
	uint32_t limiter = 0;
    16f6:	80 e0       	ldi	r24, 0x00	; 0
    16f8:	90 e0       	ldi	r25, 0x00	; 0
    16fa:	dc 01       	movw	r26, r24
	while(!(SPSR & (1<<SPIF)) && limiter < 100000000) { limiter++; }; 
    16fc:	03 c0       	rjmp	.+6      	; 0x1704 <spi_read_byte+0xe>
    16fe:	01 96       	adiw	r24, 0x01	; 1
    1700:	a1 1d       	adc	r26, r1
    1702:	b1 1d       	adc	r27, r1
    1704:	77 99       	sbic	0x0e, 7	; 14
    1706:	08 c0       	rjmp	.+16     	; 0x1718 <spi_read_byte+0x22>
    1708:	81 15       	cp	r24, r1
    170a:	21 ee       	ldi	r18, 0xE1	; 225
    170c:	92 07       	cpc	r25, r18
    170e:	25 ef       	ldi	r18, 0xF5	; 245
    1710:	a2 07       	cpc	r26, r18
    1712:	25 e0       	ldi	r18, 0x05	; 5
    1714:	b2 07       	cpc	r27, r18
    1716:	98 f3       	brcs	.-26     	; 0x16fe <spi_read_byte+0x8>
	if (limiter >= 1000000) return 0;
    1718:	80 34       	cpi	r24, 0x40	; 64
    171a:	92 44       	sbci	r25, 0x42	; 66
    171c:	af 40       	sbci	r26, 0x0F	; 15
    171e:	b1 05       	cpc	r27, r1
    1720:	10 f4       	brcc	.+4      	; 0x1726 <spi_read_byte+0x30>
	return SPDR; 
    1722:	8f b1       	in	r24, 0x0f	; 15
    1724:	08 95       	ret
}

uint8_t spi_read_byte(void) {
	uint32_t limiter = 0;
	while(!(SPSR & (1<<SPIF)) && limiter < 100000000) { limiter++; }; 
	if (limiter >= 1000000) return 0;
    1726:	80 e0       	ldi	r24, 0x00	; 0
	return SPDR; 
}
    1728:	08 95       	ret

0000172a <__vector_19>:
    172a:	1f 92       	push	r1
    172c:	0f 92       	push	r0
    172e:	0f b6       	in	r0, 0x3f	; 63
    1730:	0f 92       	push	r0
    1732:	11 24       	eor	r1, r1
    1734:	8f 93       	push	r24
    1736:	8c b1       	in	r24, 0x0c	; 12
    1738:	80 93 a4 01 	sts	0x01A4, r24	; 0x8001a4 <uart_rx_data>
    173c:	81 e0       	ldi	r24, 0x01	; 1
    173e:	80 93 a0 01 	sts	0x01A0, r24	; 0x8001a0 <uart_rx_flag>
    1742:	8f 91       	pop	r24
    1744:	0f 90       	pop	r0
    1746:	0f be       	out	0x3f, r0	; 63
    1748:	0f 90       	pop	r0
    174a:	1f 90       	pop	r1
    174c:	18 95       	reti

0000174e <uart_send_byte>:
    174e:	5d 9b       	sbis	0x0b, 5	; 11
    1750:	fe cf       	rjmp	.-4      	; 0x174e <uart_send_byte>
    1752:	8c b9       	out	0x0c, r24	; 12
    1754:	08 95       	ret

00001756 <uart_putchar>:
    1756:	cf 93       	push	r28
    1758:	c8 2f       	mov	r28, r24
    175a:	8a 30       	cpi	r24, 0x0A	; 10
    175c:	19 f4       	brne	.+6      	; 0x1764 <uart_putchar+0xe>
    175e:	8d e0       	ldi	r24, 0x0D	; 13
    1760:	0e 94 a7 0b 	call	0x174e	; 0x174e <uart_send_byte>
    1764:	8c 2f       	mov	r24, r28
    1766:	0e 94 a7 0b 	call	0x174e	; 0x174e <uart_send_byte>
    176a:	80 e0       	ldi	r24, 0x00	; 0
    176c:	90 e0       	ldi	r25, 0x00	; 0
    176e:	cf 91       	pop	r28
    1770:	08 95       	ret

00001772 <uart_printf_init>:
    1772:	81 e0       	ldi	r24, 0x01	; 1
    1774:	91 e0       	ldi	r25, 0x01	; 1
    1776:	90 93 a8 01 	sts	0x01A8, r25	; 0x8001a8 <__iob+0x3>
    177a:	80 93 a7 01 	sts	0x01A7, r24	; 0x8001a7 <__iob+0x2>
    177e:	08 95       	ret

00001780 <uart_init>:
    1780:	9b 01       	movw	r18, r22
    1782:	ac 01       	movw	r20, r24
    1784:	60 e0       	ldi	r22, 0x00	; 0
    1786:	70 eb       	ldi	r23, 0xB0	; 176
    1788:	84 e0       	ldi	r24, 0x04	; 4
    178a:	90 e0       	ldi	r25, 0x00	; 0
    178c:	0e 94 e6 0b 	call	0x17cc	; 0x17cc <__udivmodsi4>
    1790:	21 50       	subi	r18, 0x01	; 1
    1792:	31 09       	sbc	r19, r1
    1794:	30 bd       	out	0x20, r19	; 32
    1796:	29 b9       	out	0x09, r18	; 9
    1798:	88 e9       	ldi	r24, 0x98	; 152
    179a:	8a b9       	out	0x0a, r24	; 10
    179c:	86 e8       	ldi	r24, 0x86	; 134
    179e:	80 bd       	out	0x20, r24	; 32
    17a0:	0e 94 b9 0b 	call	0x1772	; 0x1772 <uart_printf_init>
    17a4:	8a e0       	ldi	r24, 0x0A	; 10
    17a6:	90 e0       	ldi	r25, 0x00	; 0
    17a8:	0e 94 1e 0c 	call	0x183c	; 0x183c <putchar>
    17ac:	08 95       	ret

000017ae <xmem_init>:
    17ae:	85 b7       	in	r24, 0x35	; 53
    17b0:	80 68       	ori	r24, 0x80	; 128
    17b2:	85 bf       	out	0x35, r24	; 53
    17b4:	80 b7       	in	r24, 0x30	; 48
    17b6:	88 60       	ori	r24, 0x08	; 8
    17b8:	80 bf       	out	0x30, r24	; 48
    17ba:	08 95       	ret

000017bc <xmem_write>:
    17bc:	fb 01       	movw	r30, r22
    17be:	fc 5e       	subi	r31, 0xEC	; 236
    17c0:	80 83       	st	Z, r24
    17c2:	08 95       	ret

000017c4 <xmem_read>:
    17c4:	9c 5e       	subi	r25, 0xEC	; 236
    17c6:	fc 01       	movw	r30, r24
    17c8:	80 81       	ld	r24, Z
    17ca:	08 95       	ret

000017cc <__udivmodsi4>:
    17cc:	a1 e2       	ldi	r26, 0x21	; 33
    17ce:	1a 2e       	mov	r1, r26
    17d0:	aa 1b       	sub	r26, r26
    17d2:	bb 1b       	sub	r27, r27
    17d4:	fd 01       	movw	r30, r26
    17d6:	0d c0       	rjmp	.+26     	; 0x17f2 <__udivmodsi4_ep>

000017d8 <__udivmodsi4_loop>:
    17d8:	aa 1f       	adc	r26, r26
    17da:	bb 1f       	adc	r27, r27
    17dc:	ee 1f       	adc	r30, r30
    17de:	ff 1f       	adc	r31, r31
    17e0:	a2 17       	cp	r26, r18
    17e2:	b3 07       	cpc	r27, r19
    17e4:	e4 07       	cpc	r30, r20
    17e6:	f5 07       	cpc	r31, r21
    17e8:	20 f0       	brcs	.+8      	; 0x17f2 <__udivmodsi4_ep>
    17ea:	a2 1b       	sub	r26, r18
    17ec:	b3 0b       	sbc	r27, r19
    17ee:	e4 0b       	sbc	r30, r20
    17f0:	f5 0b       	sbc	r31, r21

000017f2 <__udivmodsi4_ep>:
    17f2:	66 1f       	adc	r22, r22
    17f4:	77 1f       	adc	r23, r23
    17f6:	88 1f       	adc	r24, r24
    17f8:	99 1f       	adc	r25, r25
    17fa:	1a 94       	dec	r1
    17fc:	69 f7       	brne	.-38     	; 0x17d8 <__udivmodsi4_loop>
    17fe:	60 95       	com	r22
    1800:	70 95       	com	r23
    1802:	80 95       	com	r24
    1804:	90 95       	com	r25
    1806:	9b 01       	movw	r18, r22
    1808:	ac 01       	movw	r20, r24
    180a:	bd 01       	movw	r22, r26
    180c:	cf 01       	movw	r24, r30
    180e:	08 95       	ret

00001810 <printf>:
    1810:	a0 e0       	ldi	r26, 0x00	; 0
    1812:	b0 e0       	ldi	r27, 0x00	; 0
    1814:	ee e0       	ldi	r30, 0x0E	; 14
    1816:	fc e0       	ldi	r31, 0x0C	; 12
    1818:	0c 94 18 0f 	jmp	0x1e30	; 0x1e30 <__prologue_saves__+0x20>
    181c:	ae 01       	movw	r20, r28
    181e:	4b 5f       	subi	r20, 0xFB	; 251
    1820:	5f 4f       	sbci	r21, 0xFF	; 255
    1822:	fa 01       	movw	r30, r20
    1824:	61 91       	ld	r22, Z+
    1826:	71 91       	ld	r23, Z+
    1828:	af 01       	movw	r20, r30
    182a:	80 91 a7 01 	lds	r24, 0x01A7	; 0x8001a7 <__iob+0x2>
    182e:	90 91 a8 01 	lds	r25, 0x01A8	; 0x8001a8 <__iob+0x3>
    1832:	0e 94 77 0c 	call	0x18ee	; 0x18ee <vfprintf>
    1836:	e2 e0       	ldi	r30, 0x02	; 2
    1838:	0c 94 34 0f 	jmp	0x1e68	; 0x1e68 <__epilogue_restores__+0x20>

0000183c <putchar>:
    183c:	60 91 a7 01 	lds	r22, 0x01A7	; 0x8001a7 <__iob+0x2>
    1840:	70 91 a8 01 	lds	r23, 0x01A8	; 0x8001a8 <__iob+0x3>
    1844:	0e 94 6e 0e 	call	0x1cdc	; 0x1cdc <fputc>
    1848:	08 95       	ret

0000184a <puts>:
    184a:	0f 93       	push	r16
    184c:	1f 93       	push	r17
    184e:	cf 93       	push	r28
    1850:	df 93       	push	r29
    1852:	e0 91 a7 01 	lds	r30, 0x01A7	; 0x8001a7 <__iob+0x2>
    1856:	f0 91 a8 01 	lds	r31, 0x01A8	; 0x8001a8 <__iob+0x3>
    185a:	23 81       	ldd	r18, Z+3	; 0x03
    185c:	21 ff       	sbrs	r18, 1
    185e:	1b c0       	rjmp	.+54     	; 0x1896 <puts+0x4c>
    1860:	8c 01       	movw	r16, r24
    1862:	d0 e0       	ldi	r29, 0x00	; 0
    1864:	c0 e0       	ldi	r28, 0x00	; 0
    1866:	f8 01       	movw	r30, r16
    1868:	81 91       	ld	r24, Z+
    186a:	8f 01       	movw	r16, r30
    186c:	60 91 a7 01 	lds	r22, 0x01A7	; 0x8001a7 <__iob+0x2>
    1870:	70 91 a8 01 	lds	r23, 0x01A8	; 0x8001a8 <__iob+0x3>
    1874:	db 01       	movw	r26, r22
    1876:	18 96       	adiw	r26, 0x08	; 8
    1878:	ed 91       	ld	r30, X+
    187a:	fc 91       	ld	r31, X
    187c:	19 97       	sbiw	r26, 0x09	; 9
    187e:	88 23       	and	r24, r24
    1880:	31 f0       	breq	.+12     	; 0x188e <puts+0x44>
    1882:	09 95       	icall
    1884:	89 2b       	or	r24, r25
    1886:	79 f3       	breq	.-34     	; 0x1866 <puts+0x1c>
    1888:	df ef       	ldi	r29, 0xFF	; 255
    188a:	cf ef       	ldi	r28, 0xFF	; 255
    188c:	ec cf       	rjmp	.-40     	; 0x1866 <puts+0x1c>
    188e:	8a e0       	ldi	r24, 0x0A	; 10
    1890:	09 95       	icall
    1892:	89 2b       	or	r24, r25
    1894:	19 f0       	breq	.+6      	; 0x189c <puts+0x52>
    1896:	8f ef       	ldi	r24, 0xFF	; 255
    1898:	9f ef       	ldi	r25, 0xFF	; 255
    189a:	02 c0       	rjmp	.+4      	; 0x18a0 <puts+0x56>
    189c:	8d 2f       	mov	r24, r29
    189e:	9c 2f       	mov	r25, r28
    18a0:	df 91       	pop	r29
    18a2:	cf 91       	pop	r28
    18a4:	1f 91       	pop	r17
    18a6:	0f 91       	pop	r16
    18a8:	08 95       	ret

000018aa <sprintf>:
    18aa:	ae e0       	ldi	r26, 0x0E	; 14
    18ac:	b0 e0       	ldi	r27, 0x00	; 0
    18ae:	eb e5       	ldi	r30, 0x5B	; 91
    18b0:	fc e0       	ldi	r31, 0x0C	; 12
    18b2:	0c 94 16 0f 	jmp	0x1e2c	; 0x1e2c <__prologue_saves__+0x1c>
    18b6:	0d 89       	ldd	r16, Y+21	; 0x15
    18b8:	1e 89       	ldd	r17, Y+22	; 0x16
    18ba:	86 e0       	ldi	r24, 0x06	; 6
    18bc:	8c 83       	std	Y+4, r24	; 0x04
    18be:	1a 83       	std	Y+2, r17	; 0x02
    18c0:	09 83       	std	Y+1, r16	; 0x01
    18c2:	8f ef       	ldi	r24, 0xFF	; 255
    18c4:	9f e7       	ldi	r25, 0x7F	; 127
    18c6:	9e 83       	std	Y+6, r25	; 0x06
    18c8:	8d 83       	std	Y+5, r24	; 0x05
    18ca:	ae 01       	movw	r20, r28
    18cc:	47 5e       	subi	r20, 0xE7	; 231
    18ce:	5f 4f       	sbci	r21, 0xFF	; 255
    18d0:	6f 89       	ldd	r22, Y+23	; 0x17
    18d2:	78 8d       	ldd	r23, Y+24	; 0x18
    18d4:	ce 01       	movw	r24, r28
    18d6:	01 96       	adiw	r24, 0x01	; 1
    18d8:	0e 94 77 0c 	call	0x18ee	; 0x18ee <vfprintf>
    18dc:	ef 81       	ldd	r30, Y+7	; 0x07
    18de:	f8 85       	ldd	r31, Y+8	; 0x08
    18e0:	e0 0f       	add	r30, r16
    18e2:	f1 1f       	adc	r31, r17
    18e4:	10 82       	st	Z, r1
    18e6:	2e 96       	adiw	r28, 0x0e	; 14
    18e8:	e4 e0       	ldi	r30, 0x04	; 4
    18ea:	0c 94 32 0f 	jmp	0x1e64	; 0x1e64 <__epilogue_restores__+0x1c>

000018ee <vfprintf>:
    18ee:	ab e0       	ldi	r26, 0x0B	; 11
    18f0:	b0 e0       	ldi	r27, 0x00	; 0
    18f2:	ed e7       	ldi	r30, 0x7D	; 125
    18f4:	fc e0       	ldi	r31, 0x0C	; 12
    18f6:	0c 94 08 0f 	jmp	0x1e10	; 0x1e10 <__prologue_saves__>
    18fa:	6c 01       	movw	r12, r24
    18fc:	7b 01       	movw	r14, r22
    18fe:	8a 01       	movw	r16, r20
    1900:	fc 01       	movw	r30, r24
    1902:	17 82       	std	Z+7, r1	; 0x07
    1904:	16 82       	std	Z+6, r1	; 0x06
    1906:	83 81       	ldd	r24, Z+3	; 0x03
    1908:	81 ff       	sbrs	r24, 1
    190a:	cc c1       	rjmp	.+920    	; 0x1ca4 <vfprintf+0x3b6>
    190c:	ce 01       	movw	r24, r28
    190e:	01 96       	adiw	r24, 0x01	; 1
    1910:	3c 01       	movw	r6, r24
    1912:	f6 01       	movw	r30, r12
    1914:	93 81       	ldd	r25, Z+3	; 0x03
    1916:	f7 01       	movw	r30, r14
    1918:	93 fd       	sbrc	r25, 3
    191a:	85 91       	lpm	r24, Z+
    191c:	93 ff       	sbrs	r25, 3
    191e:	81 91       	ld	r24, Z+
    1920:	7f 01       	movw	r14, r30
    1922:	88 23       	and	r24, r24
    1924:	09 f4       	brne	.+2      	; 0x1928 <vfprintf+0x3a>
    1926:	ba c1       	rjmp	.+884    	; 0x1c9c <vfprintf+0x3ae>
    1928:	85 32       	cpi	r24, 0x25	; 37
    192a:	39 f4       	brne	.+14     	; 0x193a <vfprintf+0x4c>
    192c:	93 fd       	sbrc	r25, 3
    192e:	85 91       	lpm	r24, Z+
    1930:	93 ff       	sbrs	r25, 3
    1932:	81 91       	ld	r24, Z+
    1934:	7f 01       	movw	r14, r30
    1936:	85 32       	cpi	r24, 0x25	; 37
    1938:	29 f4       	brne	.+10     	; 0x1944 <vfprintf+0x56>
    193a:	b6 01       	movw	r22, r12
    193c:	90 e0       	ldi	r25, 0x00	; 0
    193e:	0e 94 6e 0e 	call	0x1cdc	; 0x1cdc <fputc>
    1942:	e7 cf       	rjmp	.-50     	; 0x1912 <vfprintf+0x24>
    1944:	91 2c       	mov	r9, r1
    1946:	21 2c       	mov	r2, r1
    1948:	31 2c       	mov	r3, r1
    194a:	ff e1       	ldi	r31, 0x1F	; 31
    194c:	f3 15       	cp	r31, r3
    194e:	d8 f0       	brcs	.+54     	; 0x1986 <vfprintf+0x98>
    1950:	8b 32       	cpi	r24, 0x2B	; 43
    1952:	79 f0       	breq	.+30     	; 0x1972 <vfprintf+0x84>
    1954:	38 f4       	brcc	.+14     	; 0x1964 <vfprintf+0x76>
    1956:	80 32       	cpi	r24, 0x20	; 32
    1958:	79 f0       	breq	.+30     	; 0x1978 <vfprintf+0x8a>
    195a:	83 32       	cpi	r24, 0x23	; 35
    195c:	a1 f4       	brne	.+40     	; 0x1986 <vfprintf+0x98>
    195e:	23 2d       	mov	r18, r3
    1960:	20 61       	ori	r18, 0x10	; 16
    1962:	1d c0       	rjmp	.+58     	; 0x199e <vfprintf+0xb0>
    1964:	8d 32       	cpi	r24, 0x2D	; 45
    1966:	61 f0       	breq	.+24     	; 0x1980 <vfprintf+0x92>
    1968:	80 33       	cpi	r24, 0x30	; 48
    196a:	69 f4       	brne	.+26     	; 0x1986 <vfprintf+0x98>
    196c:	23 2d       	mov	r18, r3
    196e:	21 60       	ori	r18, 0x01	; 1
    1970:	16 c0       	rjmp	.+44     	; 0x199e <vfprintf+0xb0>
    1972:	83 2d       	mov	r24, r3
    1974:	82 60       	ori	r24, 0x02	; 2
    1976:	38 2e       	mov	r3, r24
    1978:	e3 2d       	mov	r30, r3
    197a:	e4 60       	ori	r30, 0x04	; 4
    197c:	3e 2e       	mov	r3, r30
    197e:	2a c0       	rjmp	.+84     	; 0x19d4 <vfprintf+0xe6>
    1980:	f3 2d       	mov	r31, r3
    1982:	f8 60       	ori	r31, 0x08	; 8
    1984:	1d c0       	rjmp	.+58     	; 0x19c0 <vfprintf+0xd2>
    1986:	37 fc       	sbrc	r3, 7
    1988:	2d c0       	rjmp	.+90     	; 0x19e4 <vfprintf+0xf6>
    198a:	20 ed       	ldi	r18, 0xD0	; 208
    198c:	28 0f       	add	r18, r24
    198e:	2a 30       	cpi	r18, 0x0A	; 10
    1990:	40 f0       	brcs	.+16     	; 0x19a2 <vfprintf+0xb4>
    1992:	8e 32       	cpi	r24, 0x2E	; 46
    1994:	b9 f4       	brne	.+46     	; 0x19c4 <vfprintf+0xd6>
    1996:	36 fc       	sbrc	r3, 6
    1998:	81 c1       	rjmp	.+770    	; 0x1c9c <vfprintf+0x3ae>
    199a:	23 2d       	mov	r18, r3
    199c:	20 64       	ori	r18, 0x40	; 64
    199e:	32 2e       	mov	r3, r18
    19a0:	19 c0       	rjmp	.+50     	; 0x19d4 <vfprintf+0xe6>
    19a2:	36 fe       	sbrs	r3, 6
    19a4:	06 c0       	rjmp	.+12     	; 0x19b2 <vfprintf+0xc4>
    19a6:	8a e0       	ldi	r24, 0x0A	; 10
    19a8:	98 9e       	mul	r9, r24
    19aa:	20 0d       	add	r18, r0
    19ac:	11 24       	eor	r1, r1
    19ae:	92 2e       	mov	r9, r18
    19b0:	11 c0       	rjmp	.+34     	; 0x19d4 <vfprintf+0xe6>
    19b2:	ea e0       	ldi	r30, 0x0A	; 10
    19b4:	2e 9e       	mul	r2, r30
    19b6:	20 0d       	add	r18, r0
    19b8:	11 24       	eor	r1, r1
    19ba:	22 2e       	mov	r2, r18
    19bc:	f3 2d       	mov	r31, r3
    19be:	f0 62       	ori	r31, 0x20	; 32
    19c0:	3f 2e       	mov	r3, r31
    19c2:	08 c0       	rjmp	.+16     	; 0x19d4 <vfprintf+0xe6>
    19c4:	8c 36       	cpi	r24, 0x6C	; 108
    19c6:	21 f4       	brne	.+8      	; 0x19d0 <vfprintf+0xe2>
    19c8:	83 2d       	mov	r24, r3
    19ca:	80 68       	ori	r24, 0x80	; 128
    19cc:	38 2e       	mov	r3, r24
    19ce:	02 c0       	rjmp	.+4      	; 0x19d4 <vfprintf+0xe6>
    19d0:	88 36       	cpi	r24, 0x68	; 104
    19d2:	41 f4       	brne	.+16     	; 0x19e4 <vfprintf+0xf6>
    19d4:	f7 01       	movw	r30, r14
    19d6:	93 fd       	sbrc	r25, 3
    19d8:	85 91       	lpm	r24, Z+
    19da:	93 ff       	sbrs	r25, 3
    19dc:	81 91       	ld	r24, Z+
    19de:	7f 01       	movw	r14, r30
    19e0:	81 11       	cpse	r24, r1
    19e2:	b3 cf       	rjmp	.-154    	; 0x194a <vfprintf+0x5c>
    19e4:	98 2f       	mov	r25, r24
    19e6:	9f 7d       	andi	r25, 0xDF	; 223
    19e8:	95 54       	subi	r25, 0x45	; 69
    19ea:	93 30       	cpi	r25, 0x03	; 3
    19ec:	28 f4       	brcc	.+10     	; 0x19f8 <vfprintf+0x10a>
    19ee:	0c 5f       	subi	r16, 0xFC	; 252
    19f0:	1f 4f       	sbci	r17, 0xFF	; 255
    19f2:	9f e3       	ldi	r25, 0x3F	; 63
    19f4:	99 83       	std	Y+1, r25	; 0x01
    19f6:	0d c0       	rjmp	.+26     	; 0x1a12 <vfprintf+0x124>
    19f8:	83 36       	cpi	r24, 0x63	; 99
    19fa:	31 f0       	breq	.+12     	; 0x1a08 <vfprintf+0x11a>
    19fc:	83 37       	cpi	r24, 0x73	; 115
    19fe:	71 f0       	breq	.+28     	; 0x1a1c <vfprintf+0x12e>
    1a00:	83 35       	cpi	r24, 0x53	; 83
    1a02:	09 f0       	breq	.+2      	; 0x1a06 <vfprintf+0x118>
    1a04:	59 c0       	rjmp	.+178    	; 0x1ab8 <vfprintf+0x1ca>
    1a06:	21 c0       	rjmp	.+66     	; 0x1a4a <vfprintf+0x15c>
    1a08:	f8 01       	movw	r30, r16
    1a0a:	80 81       	ld	r24, Z
    1a0c:	89 83       	std	Y+1, r24	; 0x01
    1a0e:	0e 5f       	subi	r16, 0xFE	; 254
    1a10:	1f 4f       	sbci	r17, 0xFF	; 255
    1a12:	88 24       	eor	r8, r8
    1a14:	83 94       	inc	r8
    1a16:	91 2c       	mov	r9, r1
    1a18:	53 01       	movw	r10, r6
    1a1a:	13 c0       	rjmp	.+38     	; 0x1a42 <vfprintf+0x154>
    1a1c:	28 01       	movw	r4, r16
    1a1e:	f2 e0       	ldi	r31, 0x02	; 2
    1a20:	4f 0e       	add	r4, r31
    1a22:	51 1c       	adc	r5, r1
    1a24:	f8 01       	movw	r30, r16
    1a26:	a0 80       	ld	r10, Z
    1a28:	b1 80       	ldd	r11, Z+1	; 0x01
    1a2a:	36 fe       	sbrs	r3, 6
    1a2c:	03 c0       	rjmp	.+6      	; 0x1a34 <vfprintf+0x146>
    1a2e:	69 2d       	mov	r22, r9
    1a30:	70 e0       	ldi	r23, 0x00	; 0
    1a32:	02 c0       	rjmp	.+4      	; 0x1a38 <vfprintf+0x14a>
    1a34:	6f ef       	ldi	r22, 0xFF	; 255
    1a36:	7f ef       	ldi	r23, 0xFF	; 255
    1a38:	c5 01       	movw	r24, r10
    1a3a:	0e 94 63 0e 	call	0x1cc6	; 0x1cc6 <strnlen>
    1a3e:	4c 01       	movw	r8, r24
    1a40:	82 01       	movw	r16, r4
    1a42:	f3 2d       	mov	r31, r3
    1a44:	ff 77       	andi	r31, 0x7F	; 127
    1a46:	3f 2e       	mov	r3, r31
    1a48:	16 c0       	rjmp	.+44     	; 0x1a76 <vfprintf+0x188>
    1a4a:	28 01       	movw	r4, r16
    1a4c:	22 e0       	ldi	r18, 0x02	; 2
    1a4e:	42 0e       	add	r4, r18
    1a50:	51 1c       	adc	r5, r1
    1a52:	f8 01       	movw	r30, r16
    1a54:	a0 80       	ld	r10, Z
    1a56:	b1 80       	ldd	r11, Z+1	; 0x01
    1a58:	36 fe       	sbrs	r3, 6
    1a5a:	03 c0       	rjmp	.+6      	; 0x1a62 <vfprintf+0x174>
    1a5c:	69 2d       	mov	r22, r9
    1a5e:	70 e0       	ldi	r23, 0x00	; 0
    1a60:	02 c0       	rjmp	.+4      	; 0x1a66 <vfprintf+0x178>
    1a62:	6f ef       	ldi	r22, 0xFF	; 255
    1a64:	7f ef       	ldi	r23, 0xFF	; 255
    1a66:	c5 01       	movw	r24, r10
    1a68:	0e 94 58 0e 	call	0x1cb0	; 0x1cb0 <strnlen_P>
    1a6c:	4c 01       	movw	r8, r24
    1a6e:	f3 2d       	mov	r31, r3
    1a70:	f0 68       	ori	r31, 0x80	; 128
    1a72:	3f 2e       	mov	r3, r31
    1a74:	82 01       	movw	r16, r4
    1a76:	33 fc       	sbrc	r3, 3
    1a78:	1b c0       	rjmp	.+54     	; 0x1ab0 <vfprintf+0x1c2>
    1a7a:	82 2d       	mov	r24, r2
    1a7c:	90 e0       	ldi	r25, 0x00	; 0
    1a7e:	88 16       	cp	r8, r24
    1a80:	99 06       	cpc	r9, r25
    1a82:	b0 f4       	brcc	.+44     	; 0x1ab0 <vfprintf+0x1c2>
    1a84:	b6 01       	movw	r22, r12
    1a86:	80 e2       	ldi	r24, 0x20	; 32
    1a88:	90 e0       	ldi	r25, 0x00	; 0
    1a8a:	0e 94 6e 0e 	call	0x1cdc	; 0x1cdc <fputc>
    1a8e:	2a 94       	dec	r2
    1a90:	f4 cf       	rjmp	.-24     	; 0x1a7a <vfprintf+0x18c>
    1a92:	f5 01       	movw	r30, r10
    1a94:	37 fc       	sbrc	r3, 7
    1a96:	85 91       	lpm	r24, Z+
    1a98:	37 fe       	sbrs	r3, 7
    1a9a:	81 91       	ld	r24, Z+
    1a9c:	5f 01       	movw	r10, r30
    1a9e:	b6 01       	movw	r22, r12
    1aa0:	90 e0       	ldi	r25, 0x00	; 0
    1aa2:	0e 94 6e 0e 	call	0x1cdc	; 0x1cdc <fputc>
    1aa6:	21 10       	cpse	r2, r1
    1aa8:	2a 94       	dec	r2
    1aaa:	21 e0       	ldi	r18, 0x01	; 1
    1aac:	82 1a       	sub	r8, r18
    1aae:	91 08       	sbc	r9, r1
    1ab0:	81 14       	cp	r8, r1
    1ab2:	91 04       	cpc	r9, r1
    1ab4:	71 f7       	brne	.-36     	; 0x1a92 <vfprintf+0x1a4>
    1ab6:	e8 c0       	rjmp	.+464    	; 0x1c88 <vfprintf+0x39a>
    1ab8:	84 36       	cpi	r24, 0x64	; 100
    1aba:	11 f0       	breq	.+4      	; 0x1ac0 <vfprintf+0x1d2>
    1abc:	89 36       	cpi	r24, 0x69	; 105
    1abe:	41 f5       	brne	.+80     	; 0x1b10 <vfprintf+0x222>
    1ac0:	f8 01       	movw	r30, r16
    1ac2:	37 fe       	sbrs	r3, 7
    1ac4:	07 c0       	rjmp	.+14     	; 0x1ad4 <vfprintf+0x1e6>
    1ac6:	60 81       	ld	r22, Z
    1ac8:	71 81       	ldd	r23, Z+1	; 0x01
    1aca:	82 81       	ldd	r24, Z+2	; 0x02
    1acc:	93 81       	ldd	r25, Z+3	; 0x03
    1ace:	0c 5f       	subi	r16, 0xFC	; 252
    1ad0:	1f 4f       	sbci	r17, 0xFF	; 255
    1ad2:	08 c0       	rjmp	.+16     	; 0x1ae4 <vfprintf+0x1f6>
    1ad4:	60 81       	ld	r22, Z
    1ad6:	71 81       	ldd	r23, Z+1	; 0x01
    1ad8:	07 2e       	mov	r0, r23
    1ada:	00 0c       	add	r0, r0
    1adc:	88 0b       	sbc	r24, r24
    1ade:	99 0b       	sbc	r25, r25
    1ae0:	0e 5f       	subi	r16, 0xFE	; 254
    1ae2:	1f 4f       	sbci	r17, 0xFF	; 255
    1ae4:	f3 2d       	mov	r31, r3
    1ae6:	ff 76       	andi	r31, 0x6F	; 111
    1ae8:	3f 2e       	mov	r3, r31
    1aea:	97 ff       	sbrs	r25, 7
    1aec:	09 c0       	rjmp	.+18     	; 0x1b00 <vfprintf+0x212>
    1aee:	90 95       	com	r25
    1af0:	80 95       	com	r24
    1af2:	70 95       	com	r23
    1af4:	61 95       	neg	r22
    1af6:	7f 4f       	sbci	r23, 0xFF	; 255
    1af8:	8f 4f       	sbci	r24, 0xFF	; 255
    1afa:	9f 4f       	sbci	r25, 0xFF	; 255
    1afc:	f0 68       	ori	r31, 0x80	; 128
    1afe:	3f 2e       	mov	r3, r31
    1b00:	2a e0       	ldi	r18, 0x0A	; 10
    1b02:	30 e0       	ldi	r19, 0x00	; 0
    1b04:	a3 01       	movw	r20, r6
    1b06:	0e 94 aa 0e 	call	0x1d54	; 0x1d54 <__ultoa_invert>
    1b0a:	88 2e       	mov	r8, r24
    1b0c:	86 18       	sub	r8, r6
    1b0e:	45 c0       	rjmp	.+138    	; 0x1b9a <vfprintf+0x2ac>
    1b10:	85 37       	cpi	r24, 0x75	; 117
    1b12:	31 f4       	brne	.+12     	; 0x1b20 <vfprintf+0x232>
    1b14:	23 2d       	mov	r18, r3
    1b16:	2f 7e       	andi	r18, 0xEF	; 239
    1b18:	b2 2e       	mov	r11, r18
    1b1a:	2a e0       	ldi	r18, 0x0A	; 10
    1b1c:	30 e0       	ldi	r19, 0x00	; 0
    1b1e:	25 c0       	rjmp	.+74     	; 0x1b6a <vfprintf+0x27c>
    1b20:	93 2d       	mov	r25, r3
    1b22:	99 7f       	andi	r25, 0xF9	; 249
    1b24:	b9 2e       	mov	r11, r25
    1b26:	8f 36       	cpi	r24, 0x6F	; 111
    1b28:	c1 f0       	breq	.+48     	; 0x1b5a <vfprintf+0x26c>
    1b2a:	18 f4       	brcc	.+6      	; 0x1b32 <vfprintf+0x244>
    1b2c:	88 35       	cpi	r24, 0x58	; 88
    1b2e:	79 f0       	breq	.+30     	; 0x1b4e <vfprintf+0x260>
    1b30:	b5 c0       	rjmp	.+362    	; 0x1c9c <vfprintf+0x3ae>
    1b32:	80 37       	cpi	r24, 0x70	; 112
    1b34:	19 f0       	breq	.+6      	; 0x1b3c <vfprintf+0x24e>
    1b36:	88 37       	cpi	r24, 0x78	; 120
    1b38:	21 f0       	breq	.+8      	; 0x1b42 <vfprintf+0x254>
    1b3a:	b0 c0       	rjmp	.+352    	; 0x1c9c <vfprintf+0x3ae>
    1b3c:	e9 2f       	mov	r30, r25
    1b3e:	e0 61       	ori	r30, 0x10	; 16
    1b40:	be 2e       	mov	r11, r30
    1b42:	b4 fe       	sbrs	r11, 4
    1b44:	0d c0       	rjmp	.+26     	; 0x1b60 <vfprintf+0x272>
    1b46:	fb 2d       	mov	r31, r11
    1b48:	f4 60       	ori	r31, 0x04	; 4
    1b4a:	bf 2e       	mov	r11, r31
    1b4c:	09 c0       	rjmp	.+18     	; 0x1b60 <vfprintf+0x272>
    1b4e:	34 fe       	sbrs	r3, 4
    1b50:	0a c0       	rjmp	.+20     	; 0x1b66 <vfprintf+0x278>
    1b52:	29 2f       	mov	r18, r25
    1b54:	26 60       	ori	r18, 0x06	; 6
    1b56:	b2 2e       	mov	r11, r18
    1b58:	06 c0       	rjmp	.+12     	; 0x1b66 <vfprintf+0x278>
    1b5a:	28 e0       	ldi	r18, 0x08	; 8
    1b5c:	30 e0       	ldi	r19, 0x00	; 0
    1b5e:	05 c0       	rjmp	.+10     	; 0x1b6a <vfprintf+0x27c>
    1b60:	20 e1       	ldi	r18, 0x10	; 16
    1b62:	30 e0       	ldi	r19, 0x00	; 0
    1b64:	02 c0       	rjmp	.+4      	; 0x1b6a <vfprintf+0x27c>
    1b66:	20 e1       	ldi	r18, 0x10	; 16
    1b68:	32 e0       	ldi	r19, 0x02	; 2
    1b6a:	f8 01       	movw	r30, r16
    1b6c:	b7 fe       	sbrs	r11, 7
    1b6e:	07 c0       	rjmp	.+14     	; 0x1b7e <vfprintf+0x290>
    1b70:	60 81       	ld	r22, Z
    1b72:	71 81       	ldd	r23, Z+1	; 0x01
    1b74:	82 81       	ldd	r24, Z+2	; 0x02
    1b76:	93 81       	ldd	r25, Z+3	; 0x03
    1b78:	0c 5f       	subi	r16, 0xFC	; 252
    1b7a:	1f 4f       	sbci	r17, 0xFF	; 255
    1b7c:	06 c0       	rjmp	.+12     	; 0x1b8a <vfprintf+0x29c>
    1b7e:	60 81       	ld	r22, Z
    1b80:	71 81       	ldd	r23, Z+1	; 0x01
    1b82:	80 e0       	ldi	r24, 0x00	; 0
    1b84:	90 e0       	ldi	r25, 0x00	; 0
    1b86:	0e 5f       	subi	r16, 0xFE	; 254
    1b88:	1f 4f       	sbci	r17, 0xFF	; 255
    1b8a:	a3 01       	movw	r20, r6
    1b8c:	0e 94 aa 0e 	call	0x1d54	; 0x1d54 <__ultoa_invert>
    1b90:	88 2e       	mov	r8, r24
    1b92:	86 18       	sub	r8, r6
    1b94:	fb 2d       	mov	r31, r11
    1b96:	ff 77       	andi	r31, 0x7F	; 127
    1b98:	3f 2e       	mov	r3, r31
    1b9a:	36 fe       	sbrs	r3, 6
    1b9c:	0d c0       	rjmp	.+26     	; 0x1bb8 <vfprintf+0x2ca>
    1b9e:	23 2d       	mov	r18, r3
    1ba0:	2e 7f       	andi	r18, 0xFE	; 254
    1ba2:	a2 2e       	mov	r10, r18
    1ba4:	89 14       	cp	r8, r9
    1ba6:	58 f4       	brcc	.+22     	; 0x1bbe <vfprintf+0x2d0>
    1ba8:	34 fe       	sbrs	r3, 4
    1baa:	0b c0       	rjmp	.+22     	; 0x1bc2 <vfprintf+0x2d4>
    1bac:	32 fc       	sbrc	r3, 2
    1bae:	09 c0       	rjmp	.+18     	; 0x1bc2 <vfprintf+0x2d4>
    1bb0:	83 2d       	mov	r24, r3
    1bb2:	8e 7e       	andi	r24, 0xEE	; 238
    1bb4:	a8 2e       	mov	r10, r24
    1bb6:	05 c0       	rjmp	.+10     	; 0x1bc2 <vfprintf+0x2d4>
    1bb8:	b8 2c       	mov	r11, r8
    1bba:	a3 2c       	mov	r10, r3
    1bbc:	03 c0       	rjmp	.+6      	; 0x1bc4 <vfprintf+0x2d6>
    1bbe:	b8 2c       	mov	r11, r8
    1bc0:	01 c0       	rjmp	.+2      	; 0x1bc4 <vfprintf+0x2d6>
    1bc2:	b9 2c       	mov	r11, r9
    1bc4:	a4 fe       	sbrs	r10, 4
    1bc6:	0f c0       	rjmp	.+30     	; 0x1be6 <vfprintf+0x2f8>
    1bc8:	fe 01       	movw	r30, r28
    1bca:	e8 0d       	add	r30, r8
    1bcc:	f1 1d       	adc	r31, r1
    1bce:	80 81       	ld	r24, Z
    1bd0:	80 33       	cpi	r24, 0x30	; 48
    1bd2:	21 f4       	brne	.+8      	; 0x1bdc <vfprintf+0x2ee>
    1bd4:	9a 2d       	mov	r25, r10
    1bd6:	99 7e       	andi	r25, 0xE9	; 233
    1bd8:	a9 2e       	mov	r10, r25
    1bda:	09 c0       	rjmp	.+18     	; 0x1bee <vfprintf+0x300>
    1bdc:	a2 fe       	sbrs	r10, 2
    1bde:	06 c0       	rjmp	.+12     	; 0x1bec <vfprintf+0x2fe>
    1be0:	b3 94       	inc	r11
    1be2:	b3 94       	inc	r11
    1be4:	04 c0       	rjmp	.+8      	; 0x1bee <vfprintf+0x300>
    1be6:	8a 2d       	mov	r24, r10
    1be8:	86 78       	andi	r24, 0x86	; 134
    1bea:	09 f0       	breq	.+2      	; 0x1bee <vfprintf+0x300>
    1bec:	b3 94       	inc	r11
    1bee:	a3 fc       	sbrc	r10, 3
    1bf0:	11 c0       	rjmp	.+34     	; 0x1c14 <vfprintf+0x326>
    1bf2:	a0 fe       	sbrs	r10, 0
    1bf4:	06 c0       	rjmp	.+12     	; 0x1c02 <vfprintf+0x314>
    1bf6:	b2 14       	cp	r11, r2
    1bf8:	88 f4       	brcc	.+34     	; 0x1c1c <vfprintf+0x32e>
    1bfa:	28 0c       	add	r2, r8
    1bfc:	92 2c       	mov	r9, r2
    1bfe:	9b 18       	sub	r9, r11
    1c00:	0e c0       	rjmp	.+28     	; 0x1c1e <vfprintf+0x330>
    1c02:	b2 14       	cp	r11, r2
    1c04:	60 f4       	brcc	.+24     	; 0x1c1e <vfprintf+0x330>
    1c06:	b6 01       	movw	r22, r12
    1c08:	80 e2       	ldi	r24, 0x20	; 32
    1c0a:	90 e0       	ldi	r25, 0x00	; 0
    1c0c:	0e 94 6e 0e 	call	0x1cdc	; 0x1cdc <fputc>
    1c10:	b3 94       	inc	r11
    1c12:	f7 cf       	rjmp	.-18     	; 0x1c02 <vfprintf+0x314>
    1c14:	b2 14       	cp	r11, r2
    1c16:	18 f4       	brcc	.+6      	; 0x1c1e <vfprintf+0x330>
    1c18:	2b 18       	sub	r2, r11
    1c1a:	02 c0       	rjmp	.+4      	; 0x1c20 <vfprintf+0x332>
    1c1c:	98 2c       	mov	r9, r8
    1c1e:	21 2c       	mov	r2, r1
    1c20:	a4 fe       	sbrs	r10, 4
    1c22:	10 c0       	rjmp	.+32     	; 0x1c44 <vfprintf+0x356>
    1c24:	b6 01       	movw	r22, r12
    1c26:	80 e3       	ldi	r24, 0x30	; 48
    1c28:	90 e0       	ldi	r25, 0x00	; 0
    1c2a:	0e 94 6e 0e 	call	0x1cdc	; 0x1cdc <fputc>
    1c2e:	a2 fe       	sbrs	r10, 2
    1c30:	17 c0       	rjmp	.+46     	; 0x1c60 <vfprintf+0x372>
    1c32:	a1 fc       	sbrc	r10, 1
    1c34:	03 c0       	rjmp	.+6      	; 0x1c3c <vfprintf+0x34e>
    1c36:	88 e7       	ldi	r24, 0x78	; 120
    1c38:	90 e0       	ldi	r25, 0x00	; 0
    1c3a:	02 c0       	rjmp	.+4      	; 0x1c40 <vfprintf+0x352>
    1c3c:	88 e5       	ldi	r24, 0x58	; 88
    1c3e:	90 e0       	ldi	r25, 0x00	; 0
    1c40:	b6 01       	movw	r22, r12
    1c42:	0c c0       	rjmp	.+24     	; 0x1c5c <vfprintf+0x36e>
    1c44:	8a 2d       	mov	r24, r10
    1c46:	86 78       	andi	r24, 0x86	; 134
    1c48:	59 f0       	breq	.+22     	; 0x1c60 <vfprintf+0x372>
    1c4a:	a1 fe       	sbrs	r10, 1
    1c4c:	02 c0       	rjmp	.+4      	; 0x1c52 <vfprintf+0x364>
    1c4e:	8b e2       	ldi	r24, 0x2B	; 43
    1c50:	01 c0       	rjmp	.+2      	; 0x1c54 <vfprintf+0x366>
    1c52:	80 e2       	ldi	r24, 0x20	; 32
    1c54:	a7 fc       	sbrc	r10, 7
    1c56:	8d e2       	ldi	r24, 0x2D	; 45
    1c58:	b6 01       	movw	r22, r12
    1c5a:	90 e0       	ldi	r25, 0x00	; 0
    1c5c:	0e 94 6e 0e 	call	0x1cdc	; 0x1cdc <fputc>
    1c60:	89 14       	cp	r8, r9
    1c62:	38 f4       	brcc	.+14     	; 0x1c72 <vfprintf+0x384>
    1c64:	b6 01       	movw	r22, r12
    1c66:	80 e3       	ldi	r24, 0x30	; 48
    1c68:	90 e0       	ldi	r25, 0x00	; 0
    1c6a:	0e 94 6e 0e 	call	0x1cdc	; 0x1cdc <fputc>
    1c6e:	9a 94       	dec	r9
    1c70:	f7 cf       	rjmp	.-18     	; 0x1c60 <vfprintf+0x372>
    1c72:	8a 94       	dec	r8
    1c74:	f3 01       	movw	r30, r6
    1c76:	e8 0d       	add	r30, r8
    1c78:	f1 1d       	adc	r31, r1
    1c7a:	80 81       	ld	r24, Z
    1c7c:	b6 01       	movw	r22, r12
    1c7e:	90 e0       	ldi	r25, 0x00	; 0
    1c80:	0e 94 6e 0e 	call	0x1cdc	; 0x1cdc <fputc>
    1c84:	81 10       	cpse	r8, r1
    1c86:	f5 cf       	rjmp	.-22     	; 0x1c72 <vfprintf+0x384>
    1c88:	22 20       	and	r2, r2
    1c8a:	09 f4       	brne	.+2      	; 0x1c8e <vfprintf+0x3a0>
    1c8c:	42 ce       	rjmp	.-892    	; 0x1912 <vfprintf+0x24>
    1c8e:	b6 01       	movw	r22, r12
    1c90:	80 e2       	ldi	r24, 0x20	; 32
    1c92:	90 e0       	ldi	r25, 0x00	; 0
    1c94:	0e 94 6e 0e 	call	0x1cdc	; 0x1cdc <fputc>
    1c98:	2a 94       	dec	r2
    1c9a:	f6 cf       	rjmp	.-20     	; 0x1c88 <vfprintf+0x39a>
    1c9c:	f6 01       	movw	r30, r12
    1c9e:	86 81       	ldd	r24, Z+6	; 0x06
    1ca0:	97 81       	ldd	r25, Z+7	; 0x07
    1ca2:	02 c0       	rjmp	.+4      	; 0x1ca8 <vfprintf+0x3ba>
    1ca4:	8f ef       	ldi	r24, 0xFF	; 255
    1ca6:	9f ef       	ldi	r25, 0xFF	; 255
    1ca8:	2b 96       	adiw	r28, 0x0b	; 11
    1caa:	e2 e1       	ldi	r30, 0x12	; 18
    1cac:	0c 94 24 0f 	jmp	0x1e48	; 0x1e48 <__epilogue_restores__>

00001cb0 <strnlen_P>:
    1cb0:	fc 01       	movw	r30, r24
    1cb2:	05 90       	lpm	r0, Z+
    1cb4:	61 50       	subi	r22, 0x01	; 1
    1cb6:	70 40       	sbci	r23, 0x00	; 0
    1cb8:	01 10       	cpse	r0, r1
    1cba:	d8 f7       	brcc	.-10     	; 0x1cb2 <strnlen_P+0x2>
    1cbc:	80 95       	com	r24
    1cbe:	90 95       	com	r25
    1cc0:	8e 0f       	add	r24, r30
    1cc2:	9f 1f       	adc	r25, r31
    1cc4:	08 95       	ret

00001cc6 <strnlen>:
    1cc6:	fc 01       	movw	r30, r24
    1cc8:	61 50       	subi	r22, 0x01	; 1
    1cca:	70 40       	sbci	r23, 0x00	; 0
    1ccc:	01 90       	ld	r0, Z+
    1cce:	01 10       	cpse	r0, r1
    1cd0:	d8 f7       	brcc	.-10     	; 0x1cc8 <strnlen+0x2>
    1cd2:	80 95       	com	r24
    1cd4:	90 95       	com	r25
    1cd6:	8e 0f       	add	r24, r30
    1cd8:	9f 1f       	adc	r25, r31
    1cda:	08 95       	ret

00001cdc <fputc>:
    1cdc:	0f 93       	push	r16
    1cde:	1f 93       	push	r17
    1ce0:	cf 93       	push	r28
    1ce2:	df 93       	push	r29
    1ce4:	fb 01       	movw	r30, r22
    1ce6:	23 81       	ldd	r18, Z+3	; 0x03
    1ce8:	21 fd       	sbrc	r18, 1
    1cea:	03 c0       	rjmp	.+6      	; 0x1cf2 <fputc+0x16>
    1cec:	8f ef       	ldi	r24, 0xFF	; 255
    1cee:	9f ef       	ldi	r25, 0xFF	; 255
    1cf0:	2c c0       	rjmp	.+88     	; 0x1d4a <fputc+0x6e>
    1cf2:	22 ff       	sbrs	r18, 2
    1cf4:	16 c0       	rjmp	.+44     	; 0x1d22 <fputc+0x46>
    1cf6:	46 81       	ldd	r20, Z+6	; 0x06
    1cf8:	57 81       	ldd	r21, Z+7	; 0x07
    1cfa:	24 81       	ldd	r18, Z+4	; 0x04
    1cfc:	35 81       	ldd	r19, Z+5	; 0x05
    1cfe:	42 17       	cp	r20, r18
    1d00:	53 07       	cpc	r21, r19
    1d02:	44 f4       	brge	.+16     	; 0x1d14 <fputc+0x38>
    1d04:	a0 81       	ld	r26, Z
    1d06:	b1 81       	ldd	r27, Z+1	; 0x01
    1d08:	9d 01       	movw	r18, r26
    1d0a:	2f 5f       	subi	r18, 0xFF	; 255
    1d0c:	3f 4f       	sbci	r19, 0xFF	; 255
    1d0e:	31 83       	std	Z+1, r19	; 0x01
    1d10:	20 83       	st	Z, r18
    1d12:	8c 93       	st	X, r24
    1d14:	26 81       	ldd	r18, Z+6	; 0x06
    1d16:	37 81       	ldd	r19, Z+7	; 0x07
    1d18:	2f 5f       	subi	r18, 0xFF	; 255
    1d1a:	3f 4f       	sbci	r19, 0xFF	; 255
    1d1c:	37 83       	std	Z+7, r19	; 0x07
    1d1e:	26 83       	std	Z+6, r18	; 0x06
    1d20:	14 c0       	rjmp	.+40     	; 0x1d4a <fputc+0x6e>
    1d22:	8b 01       	movw	r16, r22
    1d24:	ec 01       	movw	r28, r24
    1d26:	fb 01       	movw	r30, r22
    1d28:	00 84       	ldd	r0, Z+8	; 0x08
    1d2a:	f1 85       	ldd	r31, Z+9	; 0x09
    1d2c:	e0 2d       	mov	r30, r0
    1d2e:	09 95       	icall
    1d30:	89 2b       	or	r24, r25
    1d32:	e1 f6       	brne	.-72     	; 0x1cec <fputc+0x10>
    1d34:	d8 01       	movw	r26, r16
    1d36:	16 96       	adiw	r26, 0x06	; 6
    1d38:	8d 91       	ld	r24, X+
    1d3a:	9c 91       	ld	r25, X
    1d3c:	17 97       	sbiw	r26, 0x07	; 7
    1d3e:	01 96       	adiw	r24, 0x01	; 1
    1d40:	17 96       	adiw	r26, 0x07	; 7
    1d42:	9c 93       	st	X, r25
    1d44:	8e 93       	st	-X, r24
    1d46:	16 97       	sbiw	r26, 0x06	; 6
    1d48:	ce 01       	movw	r24, r28
    1d4a:	df 91       	pop	r29
    1d4c:	cf 91       	pop	r28
    1d4e:	1f 91       	pop	r17
    1d50:	0f 91       	pop	r16
    1d52:	08 95       	ret

00001d54 <__ultoa_invert>:
    1d54:	fa 01       	movw	r30, r20
    1d56:	aa 27       	eor	r26, r26
    1d58:	28 30       	cpi	r18, 0x08	; 8
    1d5a:	51 f1       	breq	.+84     	; 0x1db0 <__ultoa_invert+0x5c>
    1d5c:	20 31       	cpi	r18, 0x10	; 16
    1d5e:	81 f1       	breq	.+96     	; 0x1dc0 <__ultoa_invert+0x6c>
    1d60:	e8 94       	clt
    1d62:	6f 93       	push	r22
    1d64:	6e 7f       	andi	r22, 0xFE	; 254
    1d66:	6e 5f       	subi	r22, 0xFE	; 254
    1d68:	7f 4f       	sbci	r23, 0xFF	; 255
    1d6a:	8f 4f       	sbci	r24, 0xFF	; 255
    1d6c:	9f 4f       	sbci	r25, 0xFF	; 255
    1d6e:	af 4f       	sbci	r26, 0xFF	; 255
    1d70:	b1 e0       	ldi	r27, 0x01	; 1
    1d72:	3e d0       	rcall	.+124    	; 0x1df0 <__ultoa_invert+0x9c>
    1d74:	b4 e0       	ldi	r27, 0x04	; 4
    1d76:	3c d0       	rcall	.+120    	; 0x1df0 <__ultoa_invert+0x9c>
    1d78:	67 0f       	add	r22, r23
    1d7a:	78 1f       	adc	r23, r24
    1d7c:	89 1f       	adc	r24, r25
    1d7e:	9a 1f       	adc	r25, r26
    1d80:	a1 1d       	adc	r26, r1
    1d82:	68 0f       	add	r22, r24
    1d84:	79 1f       	adc	r23, r25
    1d86:	8a 1f       	adc	r24, r26
    1d88:	91 1d       	adc	r25, r1
    1d8a:	a1 1d       	adc	r26, r1
    1d8c:	6a 0f       	add	r22, r26
    1d8e:	71 1d       	adc	r23, r1
    1d90:	81 1d       	adc	r24, r1
    1d92:	91 1d       	adc	r25, r1
    1d94:	a1 1d       	adc	r26, r1
    1d96:	20 d0       	rcall	.+64     	; 0x1dd8 <__ultoa_invert+0x84>
    1d98:	09 f4       	brne	.+2      	; 0x1d9c <__ultoa_invert+0x48>
    1d9a:	68 94       	set
    1d9c:	3f 91       	pop	r19
    1d9e:	2a e0       	ldi	r18, 0x0A	; 10
    1da0:	26 9f       	mul	r18, r22
    1da2:	11 24       	eor	r1, r1
    1da4:	30 19       	sub	r19, r0
    1da6:	30 5d       	subi	r19, 0xD0	; 208
    1da8:	31 93       	st	Z+, r19
    1daa:	de f6       	brtc	.-74     	; 0x1d62 <__ultoa_invert+0xe>
    1dac:	cf 01       	movw	r24, r30
    1dae:	08 95       	ret
    1db0:	46 2f       	mov	r20, r22
    1db2:	47 70       	andi	r20, 0x07	; 7
    1db4:	40 5d       	subi	r20, 0xD0	; 208
    1db6:	41 93       	st	Z+, r20
    1db8:	b3 e0       	ldi	r27, 0x03	; 3
    1dba:	0f d0       	rcall	.+30     	; 0x1dda <__ultoa_invert+0x86>
    1dbc:	c9 f7       	brne	.-14     	; 0x1db0 <__ultoa_invert+0x5c>
    1dbe:	f6 cf       	rjmp	.-20     	; 0x1dac <__ultoa_invert+0x58>
    1dc0:	46 2f       	mov	r20, r22
    1dc2:	4f 70       	andi	r20, 0x0F	; 15
    1dc4:	40 5d       	subi	r20, 0xD0	; 208
    1dc6:	4a 33       	cpi	r20, 0x3A	; 58
    1dc8:	18 f0       	brcs	.+6      	; 0x1dd0 <__ultoa_invert+0x7c>
    1dca:	49 5d       	subi	r20, 0xD9	; 217
    1dcc:	31 fd       	sbrc	r19, 1
    1dce:	40 52       	subi	r20, 0x20	; 32
    1dd0:	41 93       	st	Z+, r20
    1dd2:	02 d0       	rcall	.+4      	; 0x1dd8 <__ultoa_invert+0x84>
    1dd4:	a9 f7       	brne	.-22     	; 0x1dc0 <__ultoa_invert+0x6c>
    1dd6:	ea cf       	rjmp	.-44     	; 0x1dac <__ultoa_invert+0x58>
    1dd8:	b4 e0       	ldi	r27, 0x04	; 4
    1dda:	a6 95       	lsr	r26
    1ddc:	97 95       	ror	r25
    1dde:	87 95       	ror	r24
    1de0:	77 95       	ror	r23
    1de2:	67 95       	ror	r22
    1de4:	ba 95       	dec	r27
    1de6:	c9 f7       	brne	.-14     	; 0x1dda <__ultoa_invert+0x86>
    1de8:	00 97       	sbiw	r24, 0x00	; 0
    1dea:	61 05       	cpc	r22, r1
    1dec:	71 05       	cpc	r23, r1
    1dee:	08 95       	ret
    1df0:	9b 01       	movw	r18, r22
    1df2:	ac 01       	movw	r20, r24
    1df4:	0a 2e       	mov	r0, r26
    1df6:	06 94       	lsr	r0
    1df8:	57 95       	ror	r21
    1dfa:	47 95       	ror	r20
    1dfc:	37 95       	ror	r19
    1dfe:	27 95       	ror	r18
    1e00:	ba 95       	dec	r27
    1e02:	c9 f7       	brne	.-14     	; 0x1df6 <__ultoa_invert+0xa2>
    1e04:	62 0f       	add	r22, r18
    1e06:	73 1f       	adc	r23, r19
    1e08:	84 1f       	adc	r24, r20
    1e0a:	95 1f       	adc	r25, r21
    1e0c:	a0 1d       	adc	r26, r0
    1e0e:	08 95       	ret

00001e10 <__prologue_saves__>:
    1e10:	2f 92       	push	r2
    1e12:	3f 92       	push	r3
    1e14:	4f 92       	push	r4
    1e16:	5f 92       	push	r5
    1e18:	6f 92       	push	r6
    1e1a:	7f 92       	push	r7
    1e1c:	8f 92       	push	r8
    1e1e:	9f 92       	push	r9
    1e20:	af 92       	push	r10
    1e22:	bf 92       	push	r11
    1e24:	cf 92       	push	r12
    1e26:	df 92       	push	r13
    1e28:	ef 92       	push	r14
    1e2a:	ff 92       	push	r15
    1e2c:	0f 93       	push	r16
    1e2e:	1f 93       	push	r17
    1e30:	cf 93       	push	r28
    1e32:	df 93       	push	r29
    1e34:	cd b7       	in	r28, 0x3d	; 61
    1e36:	de b7       	in	r29, 0x3e	; 62
    1e38:	ca 1b       	sub	r28, r26
    1e3a:	db 0b       	sbc	r29, r27
    1e3c:	0f b6       	in	r0, 0x3f	; 63
    1e3e:	f8 94       	cli
    1e40:	de bf       	out	0x3e, r29	; 62
    1e42:	0f be       	out	0x3f, r0	; 63
    1e44:	cd bf       	out	0x3d, r28	; 61
    1e46:	09 94       	ijmp

00001e48 <__epilogue_restores__>:
    1e48:	2a 88       	ldd	r2, Y+18	; 0x12
    1e4a:	39 88       	ldd	r3, Y+17	; 0x11
    1e4c:	48 88       	ldd	r4, Y+16	; 0x10
    1e4e:	5f 84       	ldd	r5, Y+15	; 0x0f
    1e50:	6e 84       	ldd	r6, Y+14	; 0x0e
    1e52:	7d 84       	ldd	r7, Y+13	; 0x0d
    1e54:	8c 84       	ldd	r8, Y+12	; 0x0c
    1e56:	9b 84       	ldd	r9, Y+11	; 0x0b
    1e58:	aa 84       	ldd	r10, Y+10	; 0x0a
    1e5a:	b9 84       	ldd	r11, Y+9	; 0x09
    1e5c:	c8 84       	ldd	r12, Y+8	; 0x08
    1e5e:	df 80       	ldd	r13, Y+7	; 0x07
    1e60:	ee 80       	ldd	r14, Y+6	; 0x06
    1e62:	fd 80       	ldd	r15, Y+5	; 0x05
    1e64:	0c 81       	ldd	r16, Y+4	; 0x04
    1e66:	1b 81       	ldd	r17, Y+3	; 0x03
    1e68:	aa 81       	ldd	r26, Y+2	; 0x02
    1e6a:	b9 81       	ldd	r27, Y+1	; 0x01
    1e6c:	ce 0f       	add	r28, r30
    1e6e:	d1 1d       	adc	r29, r1
    1e70:	0f b6       	in	r0, 0x3f	; 63
    1e72:	f8 94       	cli
    1e74:	de bf       	out	0x3e, r29	; 62
    1e76:	0f be       	out	0x3f, r0	; 63
    1e78:	cd bf       	out	0x3d, r28	; 61
    1e7a:	ed 01       	movw	r28, r26
    1e7c:	08 95       	ret

00001e7e <_exit>:
    1e7e:	f8 94       	cli

00001e80 <__stop_program>:
    1e80:	ff cf       	rjmp	.-2      	; 0x1e80 <__stop_program>
